CCS PCH C Compiler, Version 4.132, 64318               24-5-20 06:02

               Filename: C:\Users\user\Desktop\ZT-PIC18F46K2201_basic\main.lst

               ROM used: 34614 bytes (53%)
                         Largest free fragment is 30918
               RAM used: 1085 (28%) at main() level
                         1117 (29%) worst case
               Stack:    6 worst case (4 in main + 2 for interrupts)

*
00000:  GOTO   8410
*
00008:  MOVWF  04
0000A:  MOVFF  FD8,05
0000E:  MOVFF  FE0,06
00012:  MOVLB  0
00014:  MOVFF  FE9,0C
00018:  MOVFF  FEA,07
0001C:  MOVFF  FE1,08
00020:  MOVFF  FE2,09
00024:  MOVFF  FD9,0A
00028:  MOVFF  FDA,0B
0002C:  MOVFF  FF3,12
00030:  MOVFF  FF4,13
00034:  MOVFF  FFA,14
00038:  MOVFF  FF5,15
0003C:  MOVFF  FF6,16
00040:  MOVFF  FF7,17
00044:  MOVFF  00,0E
00048:  MOVFF  01,0F
0004C:  MOVFF  02,10
00050:  MOVFF  03,11
00054:  BTFSS  FF2.5
00056:  GOTO   0060
0005A:  BTFSC  FF2.2
0005C:  GOTO   38DC
00060:  BTFSS  F9D.5
00062:  GOTO   006C
00066:  BTFSC  F9E.5
00068:  GOTO   388C
0006C:  MOVFF  0E,00
00070:  MOVFF  0F,01
00074:  MOVFF  10,02
00078:  MOVFF  11,03
0007C:  MOVFF  0C,FE9
00080:  MOVFF  07,FEA
00084:  BSF    07.7
00086:  MOVFF  08,FE1
0008A:  MOVFF  09,FE2
0008E:  MOVFF  0A,FD9
00092:  MOVFF  0B,FDA
00096:  MOVFF  12,FF3
0009A:  MOVFF  13,FF4
0009E:  MOVFF  14,FFA
000A2:  MOVFF  15,FF5
000A6:  MOVFF  16,FF6
000AA:  MOVFF  17,FF7
000AE:  MOVF   04,W
000B0:  MOVFF  06,FE0
000B4:  MOVFF  05,FD8
000B8:  RETFIE 0
.................... #include <18f46k22.h> 
.................... //////// Standard Header file for the PIC18F46K22 device //////////////// 
.................... #device PIC18F46K22 
.................... #list 
....................  
.................... #device ADC=10 
.................... #include <string.h> 
.................... //////////////////////////////////////////////////////////////////////////// 
.................... ////        (C) Copyright 1996,2008 Custom Computer Services            //// 
.................... //// This source code may only be used by licensed users of the CCS C   //// 
.................... //// compiler.  This source code may only be distributed to other       //// 
.................... //// licensed users of the CCS C compiler.  No other use, reproduction  //// 
.................... //// or distribution is permitted without written permission.           //// 
.................... //// Derivative programs created using this software in object code     //// 
.................... //// form are not restricted in any way.                                //// 
.................... //////////////////////////////////////////////////////////////////////////// 
....................  
.................... #ifndef _STRING 
.................... #define _STRING 
.................... #include <stddef.h> 
.................... /////////////////////////////////////////////////////////////////////////// 
.................... ////        (C) Copyright 1996,2003 Custom Computer Services           //// 
.................... //// This source code may only be used by licensed users of the CCS C  //// 
.................... //// compiler.  This source code may only be distributed to other      //// 
.................... //// licensed users of the CCS C compiler.  No other use, reproduction //// 
.................... //// or distribution is permitted without written permission.          //// 
.................... //// Derivative programs created using this software in object code    //// 
.................... //// form are not restricted in any way.                               //// 
.................... /////////////////////////////////////////////////////////////////////////// 
....................  
.................... #ifndef _STDDEF 
....................  
.................... #define _STDDEF 
....................  
.................... #if sizeof(unsigned int8 *)==1 
.................... #define ptrdiff_t unsigned int8 
.................... #else 
.................... #define ptrdiff_t unsigned int16 
.................... #endif 
....................  
.................... #if defined(__PCB__) 
.................... #define size_t unsigned int8 
.................... #else 
.................... #define size_t unsigned int16 
.................... #endif 
.................... #define wchar_t char 
.................... #define NULL 0 
....................  
.................... #define offsetof(s,f) (offsetofbit(s,f)/8) 
....................  
.................... #endif 
....................  
.................... #include <ctype.h> 
.................... //////////////////////////////////////////////////////////////////////////// 
.................... ////        (C) Copyright 1996,2003 Custom Computer Services            //// 
.................... //// This source code may only be used by licensed users of the CCS C   //// 
.................... //// compiler.  This source code may only be distributed to other       //// 
.................... //// licensed users of the CCS C compiler.  No other use, reproduction  //// 
.................... //// or distribution is permitted without written permission.           //// 
.................... //// Derivative programs created using this software in object code     //// 
.................... //// form are not restricted in any way.                                //// 
.................... //////////////////////////////////////////////////////////////////////////// 
....................  
.................... #ifndef _CTYPE 
.................... #define _CTYPE 
....................  
.................... #define islower(x)  isamong(x,"abcdefghijklmnopqrstuvwxyz") 
.................... #define isupper(x)  isamong(x,"ABCDEFGHIJKLMNOPQRSTUVWXYZ") 
.................... #define isalnum(x)  isamong(x,"0123456789ABCDEFGHIJKLMNOPQRSTUVWXYZabcdefghijklmnopqrstuvwxyz") 
.................... #define isalpha(x)  isamong(x,"ABCDEFGHIJKLMNOPQRSTUVWXYZabcdefghijklmnopqrstuvwxyz") 
.................... #define isdigit(x)  isamong(x,"0123456789") 
.................... #define isspace(x)  ((x)==' ') 
.................... #define isxdigit(x) isamong(x,"0123456789ABCDEFabcdef") 
.................... #define iscntrl(x)  ((x)<' ') 
.................... #define isprint(x)  ((x)>=' ') 
.................... #define isgraph(x)  ((x)>' ') 
.................... #define ispunct(x)  (((x)>' ')&&!isalnum(x)) 
....................  
.................... #endif 
....................  
....................  
....................  
....................  
....................  
.................... ////////////////////////////////////////////// 
.................... //// Uncomment the following define to    //// 
.................... //// allow some functions to use a        //// 
.................... //// quicker algorithm, but use more ROM  //// 
.................... ////                                      //// 
.................... //// #define FASTER_BUT_MORE_ROM          //// 
.................... ////////////////////////////////////////////// 
....................  
....................  
....................  
.................... /*Copying functions*/ 
.................... /* standard template: 
....................    void *memmove(void *s1, void *s2, size_t n). 
....................    Copies max of n characters safely (not following ending '\0') 
....................    from s2 in s1; if s2 has less than n characters, appends 0 */ 
....................  
.................... char *memmove(void *s1,char *s2,size_t n) 
.................... { 
....................    char *sc1; 
....................    char *sc2; 
....................    sc1=s1; 
....................    sc2=s2; 
....................    if(sc2<sc1 && sc1 <sc2 +n) 
....................       for(sc1+=n,sc2+=n;0<n;--n) 
....................          *--sc1=*--sc2; 
....................    else 
....................       for(;0<n;--n) 
....................          *sc1++=*sc2++; 
....................   return s1; 
....................   } 
....................  
.................... /* Standard template: char *strcpy(char *s1, const char *s2) 
....................    copies the string s2 including the null character to s1. 
....................    This is a compiler built in to handle the different address 
....................    spaces */ 
....................  
.................... #define strcopy strcpy 
....................  
.................... /* standard template: 
....................    char *strncpy(char *s1, const char *s2, size_t n). 
....................    Copies max of n characters (not following ending '\0') 
....................    from s2 in s1; if s2 has less than n characters, appends 0 */ 
....................  
.................... char *strncpy(char *s1, char *s2, size_t n) 
.................... { 
....................   char *s; 
....................  
....................   for (s = s1; n > 0 && *s2 != '\0'; n--) 
....................      *s++ = *s2++; 
....................   for (; n > 0; n--) 
....................      *s++ = '\0'; 
....................  
....................   return(s1); 
.................... } 
.................... /***********************************************************/ 
....................  
.................... /*concatenation functions*/ 
.................... /* standard template: char *strcat(char *s1, const char *s2) 
.................... appends s2 to s1*/ 
....................  
.................... char *strcat(char *s1, char *s2) 
.................... { 
....................    char *s; 
....................  
....................    for (s = s1; *s != '\0'; ++s); 
....................    while(*s2 != '\0') 
....................    { 
....................       *s = *s2; 
....................       ++s; 
....................       ++s2; 
....................    } 
....................  
....................    *s = '\0'; 
....................    return(s1); 
.................... } 
.................... /* standard template: char *strncat(char *s1, char *s2,size_t n) 
.................... appends not more than n characters from s2 to s1*/ 
....................  
.................... char *strncat(char *s1, char *s2, size_t n) 
.................... { 
....................    char *s; 
....................  
....................    for (s = s1; *s != '\0'; ++s); 
....................    while(*s2 != '\0' && 0<n) 
....................    { 
....................       *s = *s2; 
....................       ++s; 
....................       ++s2; 
....................       --n; 
....................    } 
....................  
....................    *s = '\0'; 
....................    return(s1); 
.................... } 
....................  
.................... /***********************************************************/ 
....................  
....................  
.................... /*comparison functions*/ 
.................... /* standard template: signed int memcmp(void *s1, void *s2). 
....................    Compares s1 & s2; returns -1 if s1<s2, 0 if s1=s2, 1 if s1>s2 */ 
....................  
.................... signed int8 memcmp(void * s1,char *s2,size_t n) 
.................... { 
.................... char *su1, *su2; 
.................... for(su1=s1, su2=s2; 0<n; ++su1, ++su2, --n) 
.................... { 
....................    if(*su1!=*su2) 
....................       return ((*su1<*su2)?-1:+1); 
.................... } 
.................... return 0; 
.................... } 
....................  
.................... /* standard template: int strcmp(const char *s1, const char *s2). 
....................    Compares s1 & s2; returns -1 if s1<s2, 0 if s1=s2, 1 if s1>s2 */ 
....................  
.................... signed int8 strcmp(char *s1, char *s2) 
.................... { 
....................    for (; *s1 == *s2; s1++, s2++) 
....................       if (*s1 == '\0') 
....................          return(0); 
....................    return((*s1 < *s2) ? -1: 1); 
.................... } 
.................... /* standard template: int strcoll(const char *s1, const char *s2). 
....................    Compares s1 & s2; returns -1 if s1<s2, 0 if s1=s2, 1 if s1>s2 */ 
....................  
.................... signed int8 strcoll(char *s1, char *s2) 
.................... { 
....................    for (; *s1 == *s2; s1++, s2++) 
....................       if (*s1 == '\0') 
....................          return(0); 
....................    return((*s1 < *s2) ? -1: 1); 
.................... } 
....................  
.................... /* standard template: 
....................    int strncmp(const char *s1, const char *s2, size_t n). 
....................    Compares max of n characters (not following 0) from s1 to s2; 
....................    returns same as strcmp */ 
....................  
.................... signed int8 strncmp(char *s1, char *s2, size_t n) 
.................... { 
....................    for (; n > 0; s1++, s2++, n--) 
....................       if (*s1 != *s2) 
....................          return((*s1 <*s2) ? -1: 1); 
....................       else if (*s1 == '\0') 
....................          return(0); 
....................    return(0); 
.................... } 
.................... /* standard template: 
....................    int strxfrm(const char *s1, const char *s2, size_t n). 
....................    transforms maximum of n characters from s2 and places them into s1*/ 
.................... size_t strxfrm(char *s1, char *s2, size_t n) 
.................... { 
....................   char *s; 
....................   unsigned int8 n1; 
....................   n1=n; 
....................   for (s = s1; n > 0 && *s2 != '\0'; n--) 
....................      *s++ = *s2++; 
....................   for (; n > 0; n--) 
....................      *s++ = '\0'; 
....................  
....................   return(n1); 
.................... } 
....................  
....................  
....................  
....................  
....................  
.................... /***********************************************************/ 
.................... /*Search functions*/ 
.................... /* standard template: void *memchr(const char *s, int c). 
....................    Finds first occurrence of c in n characters of s */ 
....................  
.................... char *memchr(void *s,unsigned int8 c,size_t n) 
.................... { 
....................    char uc; 
....................    char *su; 
....................    uc=c; 
....................    for(su=s;0<n;++su,--n) 
....................       if(*su==uc) 
....................       return su; 
....................    return NULL; 
.................... } 
....................  
.................... /* standard template: char *strchr(const char *s, int c). 
....................    Finds first occurrence of c in s */ 
....................  
.................... char *strchr(char *s, unsigned int8 c) 
.................... { 
....................    for (; *s != c; s++) 
....................       if (*s == '\0') 
....................          return(0); 
....................    return(s); 
.................... } 
.................... /* standard template: 
....................    size_t strcspn(const char *s1, const char *s2). 
....................    Computes length of max initial segment of s1 that 
....................    consists entirely of characters NOT from s2*/ 
....................  
.................... unsigned int8  strcspn(char *s1, char *s2) 
.................... { 
....................    char *sc1, *sc2; 
....................  
....................    for (sc1 = s1; *sc1 != 0; sc1++) 
....................       for (sc2 = s2; *sc2 != 0; sc2++) 
....................          if (*sc1 == *sc2) 
....................             return(sc1 - s1); 
....................    return(sc1 - s1); 
.................... } 
.................... /* standard template: 
....................    char *strpbrk(const char *s1, const char *s2). 
....................    Locates first occurence of any character from s2 in s1; 
....................    returns s1 if s2 is empty string */ 
....................  
.................... char *strpbrk(char *s1, char *s2) 
.................... { 
....................    char *sc1, *sc2; 
....................  
....................    for (sc1 = s1; *sc1 != 0; sc1++) 
....................       for (sc2 = s2; *sc2 != 0; sc2++) 
....................          if (*sc1 == *sc2) 
....................             return(sc1); 
....................    return(0); 
.................... } 
....................  
....................  
.................... /* standard template: char *strrchr(const char *s, int c). 
....................    Finds last occurrence of c in s */ 
....................  
.................... char *strrchr(char *s, unsigned int8 c) 
.................... { 
....................    char *p; 
....................  
....................    for (p = 0; ; s++) 
....................    { 
....................       if (*s == c) 
....................          p = s; 
....................       if (*s == '\0') 
....................          return(p); 
....................    } 
.................... } 
.................... /* computes length of max initial segment of s1 consisting 
....................    entirely of characters from s2 */ 
....................  
.................... unsigned int8  strspn(char *s1, char *s2) 
.................... { 
....................    char *sc1, *sc2; 
....................  
....................    for (sc1 = s1; *sc1 != 0; sc1++) 
....................       for (sc2 = s2; ; sc2++) 
....................     if (*sc2 == '\0') 
....................        return(sc1 - s1); 
....................          else if (*sc1 == *sc2) 
....................             break; 
....................    return(sc1 - s1); 
.................... } 
.................... /* standard template: 
....................    char *strstr(const char *s1, const char *s2); 
....................    Locates first occurence of character sequence s2 in s1; 
....................    returns 0 if s2 is empty string 
....................  
....................    Uncomment #define FASTER_BUT_MORE_ROM at the top of the 
....................    file to use the faster algorithm */ 
.................... char *strstr(char *s1, char *s2) 
.................... { 
....................    char *s, *t; 
....................  
....................    #ifdef FASTER_BUT_MORE_ROM 
....................    if (*s2 == '\0') 
....................          return(s1); 
....................    #endif 
....................  
....................    while (*s1) 
....................    { 
....................       for(s = s1, t = s2; *t && (*s == *t); ++s, ++t); 
....................  
....................       if (*t == '\0') 
....................          return s1; 
....................       ++s1; 
....................       #ifdef FASTER_BUT_MORE_ROM 
....................          while(*s1 != '\0' && *s1 != *s2) 
....................             ++s1; 
....................       #endif 
....................    } 
....................    return 0; 
.................... } 
....................  
.................... /* standard template: char *strtok(char *s1, const char *s2). 
....................  
....................    Finds next token in s1 delimited by a character from separator 
....................    string s2 (which can be different from call to call).  First call 
....................    starts at beginning of s1 searching for first character NOT 
....................    contained in s2; returns 0 if none is found. 
....................    If one is found, it is the start of first token (return value). 
....................    Function then searches from there for a character contained in s2. 
....................    If none is found, current token extends to end of s1, and subsequent 
....................    searches for a token will return 0.  If one is found, it is 
....................    overwritten by '\0', which terminates current token.  Function saves 
....................    pointer to following character from which next search will start. 
....................    Each subsequent call, with 0 as first argument, starts searching 
....................    from saved pointer */ 
....................  
.................... char *strtok(char *s1, char *s2) 
.................... { 
....................    char *beg, *end; 
....................    static char *save; 
....................  
....................    beg = (s1)? s1: save; 
....................    beg += strspn(beg, s2); 
....................    if (*beg == '\0') 
....................    { 
....................       *save = ' '; 
....................       return(0); 
....................    } 
....................    end = strpbrk(beg, s2); 
....................    if (*end != '\0') 
....................    { 
....................       *end = '\0'; 
....................       end++; 
....................    } 
....................    save = end; 
....................    return(beg); 
.................... } 
....................  
.................... /*****************************************************************/ 
.................... /*Miscellaneous functions*/ 
.................... /* standard template 
.................... maps error number in errnum to an error message string 
.................... Returns: Pointer to string 
.................... */ 
.................... #ifdef _ERRNO 
.................... char * strerror(unsigned int8 errnum) 
.................... { 
.................... static char s[13]; 
.................... switch( errnum) 
.................... { 
.................... case 0: 
....................    strcpy(s,"no errors"); 
....................    return s; 
.................... case EDOM : 
....................    strcpy(s,"domain error"); 
....................    return s; 
.................... case ERANGE: 
....................    strcpy(s,"range error"); 
....................    return s; 
.................... } 
.................... } 
.................... #ENDIF 
.................... /* standard template: size_t strlen(const char *s). 
....................    Computes length of s1 (preceding terminating 0) */ 
....................  
.................... unsigned int8 strlen(char *s) 
.................... { 
....................    char *sc; 
....................  
....................    for (sc = s; *sc != 0; sc++); 
....................    return(sc - s); 
.................... } 
....................  
.................... /* standard template: size_t stricmp(const char *s1, const char *s2). 
....................    Compares s1 to s2 ignoring case (upper vs. lower) */ 
....................  
.................... signed int8 stricmp(char *s1, char *s2) 
.................... { 
....................  for(; *s1==*s2||(isalpha(*s1)&&isalpha(*s2)&&(*s1==*s2+32||*s2==*s1+32)); 
....................     s1++, s2++) 
....................     if (*s1 == '\0') 
....................        return(0); 
....................  return((*s1 < *s2) ? -1: 1); 
.................... } 
....................  
....................  
.................... /* standard template: char *strlwr(char *s). 
....................    Replaces uppercase letters by lowercase; 
....................    returns pointer to new string s */ 
....................  
.................... char *strlwr(char *s) 
.................... { 
....................    char *p; 
....................  
....................    for (p = s; *p != '\0'; p++) 
....................       if (*p >= 'A' && *p <='Z') 
....................          *p += 'a' - 'A'; 
....................    return(s); 
.................... } 
....................  
.................... /* standard template: char *strupr(char *s). 
....................    Replaces lowercase letters by upercase; 
....................    returns pointer to new string s */ 
....................  
.................... char *strupr(char *s) 
.................... { 
....................    char *p; 
....................  
....................    for (p = s; *p != '\0'; p++) 
....................       if (*p >= 'a' && *p <='z') 
....................          *p -= 'a' - 'A'; 
....................    return(s); 
.................... } 
....................  
....................  
.................... /************************************************************/ 
....................  
....................  
.................... #endif 
....................  
.................... #include <stdlib.h> 
.................... /////////////////////////////////////////////////////////////////////////// 
.................... ////        (C) Copyright 1996,2007 Custom Computer Services           //// 
.................... //// This source code may only be used by licensed users of the CCS C  //// 
.................... //// compiler.  This source code may only be distributed to other      //// 
.................... //// licensed users of the CCS C compiler.  No other use, reproduction //// 
.................... //// or distribution is permitted without written permission.          //// 
.................... //// Derivative programs created using this software in object code    //// 
.................... //// form are not restricted in any way.                               //// 
.................... /////////////////////////////////////////////////////////////////////////// 
....................  
.................... #ifndef _STDLIB 
.................... #define _STDLIB 
....................  
.................... //--------------------------------------------------------------------------- 
.................... // Definitions and types 
.................... //--------------------------------------------------------------------------- 
....................  
.................... #ifndef RAND_MAX 
.................... #define RAND_MAX  32767    // The value of which is the maximum value 
....................                            // ... returned by the rand function 
.................... #endif 
....................  
....................  
.................... #IF (sizeof(int16*)>1) 
.................... #DEFINE LONG_POINTERS 1 
.................... #ELSE  
.................... #DEFINE LONG_POINTERS 0 
.................... #ENDIF 
....................  
.................... typedef struct { 
....................    signed int quot; 
....................    signed int rem; 
.................... } div_t; 
....................  
.................... typedef struct { 
....................    signed long quot; 
....................    signed long rem; 
.................... } ldiv_t; 
....................  
.................... #include <stddef.h> 
.................... /////////////////////////////////////////////////////////////////////////// 
.................... ////        (C) Copyright 1996,2003 Custom Computer Services           //// 
.................... //// This source code may only be used by licensed users of the CCS C  //// 
.................... //// compiler.  This source code may only be distributed to other      //// 
.................... //// licensed users of the CCS C compiler.  No other use, reproduction //// 
.................... //// or distribution is permitted without written permission.          //// 
.................... //// Derivative programs created using this software in object code    //// 
.................... //// form are not restricted in any way.                               //// 
.................... /////////////////////////////////////////////////////////////////////////// 
....................  
.................... #ifndef _STDDEF 
....................  
.................... #define _STDDEF 
....................  
.................... #if sizeof(unsigned int8 *)==1 
.................... #define ptrdiff_t unsigned int8 
.................... #else 
.................... #define ptrdiff_t unsigned int16 
.................... #endif 
....................  
.................... #if defined(__PCB__) 
.................... #define size_t unsigned int8 
.................... #else 
.................... #define size_t unsigned int16 
.................... #endif 
.................... #define wchar_t char 
.................... #define NULL 0 
....................  
.................... #define offsetof(s,f) (offsetofbit(s,f)/8) 
....................  
.................... #endif 
....................  
....................  
.................... //--------------------------------------------------------------------------- 
.................... // String conversion functions 
.................... //--------------------------------------------------------------------------- 
....................  
.................... /* Standard template: signed int  atoi(char * s) 
....................  * converts the initial portion of the string s to a signed int 
....................  * returns the converted value if any, 0 otherwise 
....................  */ 
.................... signed int atoi(char *s); 
....................  
.................... /* Syntax: signed int32  atoi32(char * s) 
....................    converts the initial portion of the string s to a signed int32 
....................    returns the converted value if any, 0 otherwise*/ 
.................... #if (sizeof(long)==4) 
....................  #define atoi32(s) atol(s) 
.................... #else  
....................  signed int32 atoi32(char *s); 
.................... #endif 
....................  
.................... #if defined(__PCD__) 
.................... // The following functions only work on the 24 bit compiler 
.................... // for the 30F, 33F, 24F and 24H parts 
.................... /* Syntax: signed int48  atoi48(char * s) 
....................    converts the initial portion of the string s to a signed int48 
....................    returns the converted value if any, 0 otherwise*/ 
....................     
.................... signed int48 atoi48(char *s); 
....................  
.................... /* Syntax: signed int64  atoi64(char * s) 
....................    converts the initial portion of the string s to a signed int64 
....................    returns the converted value if any, 0 otherwise*/ 
.................... signed int64 atoi64(char *s); 
.................... #endif 
....................  
.................... /* Syntax: char *  itoa(signed int32 num, int8 base, char * s) 
....................    converts the signed int32 to a string and 
....................    returns the converted value if any, 0 otherwise*/ 
.................... char * itoa(signed int32 num, unsigned int base, char * s); 
....................  
.................... /* Standard template: signed int16  atol(char * s) 
....................  * converts the initial portion of the string s to a signed int16 
....................  * returns the converted value if any, 0 otherwise 
....................  */ 
.................... signed long atol(char *s); 
....................  
.................... /* Standard template: int16 strtoul(char * s,char *endptr,signed int base) 
....................  * converts the initial portion of the string s, represented as an 
....................  * integral value of radix base  to a signed long. 
....................  * Returns the converted value if any, 0 otherwise 
....................  * the final string is returned in the endptr, if endptr is not null 
....................  */ 
.................... signed long strtol(char *s,char *endptr, signed int base); 
....................  
.................... /* Standard template: int16 strtoul(char * s,char *endptr,signed int base) 
....................  * converts the initial portion of the string s, represented as an 
....................  * integral value of radix base to a unsigned long. 
....................  * returns the converted value if any, 0 otherwise 
....................  * the final string is returned in the endptr, if endptr is not null 
....................  */ 
.................... unsigned long strtoul(char *s,char *endptr, signed int base); 
....................  
.................... /* Standart template: float strtof(char * s,char *endptr) 
....................                       float48 strtof48(char *s,char *endptr); 
....................                       float64 strtod(char *s,char *endptr); 
....................  * converts the initial portion of the string s to a float32, float48 or float64, 
....................  * returns the converted value if any, 0 otherwise 
....................  * the final string is returned in the endptr, if endptr is not null                    
.................... */ 
.................... float strtof(char *s,char *endptr); 
.................... #if defined(__PCD__) 
.................... float48 strtof48(char *s,char *endptr); 
.................... float64 strtod(char *s,char *endptr); 
.................... #else 
.................... //provided for compatibility 
.................... #define strtof48(s, e) strtof(s, e) 
.................... #define strtod(s, e) strtof(s, e) 
.................... #endif 
....................  
.................... /* Standard template: float32 atof(char * s) 
....................  * converts the initial portion of the string s to a float. 
....................  * returns the converted value if any, 0 otherwise 
....................  */ 
.................... #define atof(s)   strtof(s, 0) 
....................  
.................... #if defined(__PCD__) 
.................... // The following functions only work on the 24 bit compiler 
.................... // for the 30F, 33F, 24F and 24H parts 
....................  
.................... /* Standard template: float48 atof48(char * s) 
....................  * converts the initial portion of the string s to a float. 
....................  * returns the converted value if any, 0 otherwise 
....................  */ 
.................... #define atof48(s) strtof48(s, 0) 
....................  
.................... /* Standard template: float64 atof64(char * s) 
....................  * converts the initial portion of the string s to a float. 
....................  * returns the converted value if any, 0 otherwise 
....................  */ 
.................... #define atof64(s) strtod(s, 0) 
.................... #endif 
....................  
.................... /* Standard template: float32 atoe(char * s) 
....................  * converts the initial portion of the string s to a float. 
....................  * returns the converted value if any, 0 otherwise 
....................  * also handles E format numbers 
....................  */ 
.................... #if !defined(__PCD__) 
.................... float atoe(char * s); 
.................... #endif 
....................  
.................... #if defined(__PCD__) 
.................... float32 atoe(char * s); 
.................... #endif 
....................  
.................... //--------------------------------------------------------------------------- 
.................... // Pseudo-random sequence generation functions 
.................... //--------------------------------------------------------------------------- 
....................  
.................... /* The rand function computes a sequence of pseudo-random integers in 
....................  * the range 0 to RAND_MAX 
....................  * 
....................  * Parameters: 
....................  *       (none) 
....................  * 
....................  * Returns: 
....................  *       The pseudo-random integer 
....................  */ 
.................... unsigned int16 rand(void); 
....................  
.................... /* The srand function uses the argument as a seed for a new sequence of 
....................  * pseudo-random numbers to be returned by subsequent calls to rand. 
....................  * 
....................  * Parameters: 
....................  *       [in] seed: The seed value to start from. You might need to pass 
....................  * 
....................  * Returns: 
....................  *       (none) 
....................  * 
....................  * Remarks 
....................  *          The srand function sets the starting point for generating 
....................  *       a series of pseudorandom integers. To reinitialize the 
....................  *       generator, use 1 as the seed argument. Any other value for 
....................  *       seed sets the generator to a random starting point. rand 
....................  *       retrieves the pseudorandom numbers that are generated. 
....................  *       Calling rand before any call to srand generates the same 
....................  *       sequence as calling srand with seed passed as 1. 
....................  *          Usually, you need to pass a time here from outer source 
....................  *       so that the numbers will be different every time you run. 
....................  */ 
.................... void srand(unsigned int32 seed); 
....................  
.................... //--------------------------------------------------------------------------- 
.................... // Memory management functions 
.................... //--------------------------------------------------------------------------- 
....................  
.................... // Comming soon 
....................  
.................... //--------------------------------------------------------------------------- 
.................... // Communication with the environment 
.................... //--------------------------------------------------------------------------- 
....................  
.................... /* The function returns 0 always 
....................  */ 
.................... signed int8 system(char *string); 
....................  
.................... //--------------------------------------------------------------------------- 
.................... // Searching and sorting utilities 
.................... //--------------------------------------------------------------------------- 
....................  
.................... /* Performs a binary search of a sorted array.. 
....................  * 
....................  * Parameters: 
....................  *       [in] key: Object to search for 
....................  *       [in] base: Pointer to base of search data 
....................  *       [in] num: Number of elements 
....................  *       [in] width: Width of elements 
....................  *       [in] compare: Function that compares two elements 
....................  * 
....................  * Returns: 
....................  *       bsearch returns a pointer to an occurrence of key in the array pointed 
....................  *       to by base. If key is not found, the function returns NULL. If the 
....................  *       array is not in order or contains duplicate records with identical keys, 
....................  *       the result is unpredictable. 
....................  */ 
.................... //void *bsearch(const void *key, const void *base, size_t num, size_t width, 
.................... //              int (*compare)(const void *, const void *)); 
....................  
.................... /* Performs the shell-metzner sort (not the quick sort algorithm). The contents 
....................  * of the array are sorted into ascending order according to a comparison 
....................  * function pointed to by compar. 
....................  * 
....................  * Parameters: 
....................  *       [in] base: Pointer to base of search data 
....................  *       [in] num: Number of elements 
....................  *       [in] width: Width of elements 
....................  *       [in] compare: Function that compares two elements 
....................  * 
....................  * Returns: 
....................  *       (none) 
....................  */ 
.................... //void *qsort(const void *base, size_t num, size_t width, 
.................... //              int (*compare)(const void *, const void *)); 
....................  
.................... //--------------------------------------------------------------------------- 
.................... // Integer arithmetic functions 
.................... //--------------------------------------------------------------------------- 
....................  
.................... #define labs abs 
....................  
.................... div_t div(signed int numer, signed int denom); 
.................... ldiv_t ldiv(signed long numer, signed long denom); 
....................  
.................... //--------------------------------------------------------------------------- 
.................... // Multibyte character functions 
.................... //--------------------------------------------------------------------------- 
....................  
.................... // Not supported 
....................  
.................... //--------------------------------------------------------------------------- 
.................... // Multibyte string functions 
.................... //--------------------------------------------------------------------------- 
....................  
.................... // Not supported 
....................  
....................  
.................... //--------------------------------------------------------------------------- 
.................... // Internal implementation 
.................... //--------------------------------------------------------------------------- 
....................  
.................... #include <stddef.h> 
.................... /////////////////////////////////////////////////////////////////////////// 
.................... ////        (C) Copyright 1996,2003 Custom Computer Services           //// 
.................... //// This source code may only be used by licensed users of the CCS C  //// 
.................... //// compiler.  This source code may only be distributed to other      //// 
.................... //// licensed users of the CCS C compiler.  No other use, reproduction //// 
.................... //// or distribution is permitted without written permission.          //// 
.................... //// Derivative programs created using this software in object code    //// 
.................... //// form are not restricted in any way.                               //// 
.................... /////////////////////////////////////////////////////////////////////////// 
....................  
.................... #ifndef _STDDEF 
....................  
.................... #define _STDDEF 
....................  
.................... #if sizeof(unsigned int8 *)==1 
.................... #define ptrdiff_t unsigned int8 
.................... #else 
.................... #define ptrdiff_t unsigned int16 
.................... #endif 
....................  
.................... #if defined(__PCB__) 
.................... #define size_t unsigned int8 
.................... #else 
.................... #define size_t unsigned int16 
.................... #endif 
.................... #define wchar_t char 
.................... #define NULL 0 
....................  
.................... #define offsetof(s,f) (offsetofbit(s,f)/8) 
....................  
.................... #endif 
....................  
.................... #include <string.h> 
.................... //////////////////////////////////////////////////////////////////////////// 
.................... ////        (C) Copyright 1996,2008 Custom Computer Services            //// 
.................... //// This source code may only be used by licensed users of the CCS C   //// 
.................... //// compiler.  This source code may only be distributed to other       //// 
.................... //// licensed users of the CCS C compiler.  No other use, reproduction  //// 
.................... //// or distribution is permitted without written permission.           //// 
.................... //// Derivative programs created using this software in object code     //// 
.................... //// form are not restricted in any way.                                //// 
.................... //////////////////////////////////////////////////////////////////////////// 
....................  
.................... #ifndef _STRING 
.................... #define _STRING 
.................... #include <stddef.h> 
.................... #include <ctype.h> 
....................  
....................  
....................  
.................... ////////////////////////////////////////////// 
.................... //// Uncomment the following define to    //// 
.................... //// allow some functions to use a        //// 
.................... //// quicker algorithm, but use more ROM  //// 
.................... ////                                      //// 
.................... //// #define FASTER_BUT_MORE_ROM          //// 
.................... ////////////////////////////////////////////// 
....................  
....................  
....................  
.................... /*Copying functions*/ 
.................... /* standard template: 
....................    void *memmove(void *s1, void *s2, size_t n). 
....................    Copies max of n characters safely (not following ending '\0') 
....................    from s2 in s1; if s2 has less than n characters, appends 0 */ 
....................  
.................... char *memmove(void *s1,char *s2,size_t n) 
.................... { 
....................    char *sc1; 
....................    char *sc2; 
....................    sc1=s1; 
....................    sc2=s2; 
....................    if(sc2<sc1 && sc1 <sc2 +n) 
....................       for(sc1+=n,sc2+=n;0<n;--n) 
....................          *--sc1=*--sc2; 
....................    else 
....................       for(;0<n;--n) 
....................          *sc1++=*sc2++; 
....................   return s1; 
....................   } 
....................  
.................... /* Standard template: char *strcpy(char *s1, const char *s2) 
....................    copies the string s2 including the null character to s1. 
....................    This is a compiler built in to handle the different address 
....................    spaces */ 
....................  
.................... #define strcopy strcpy 
....................  
.................... /* standard template: 
....................    char *strncpy(char *s1, const char *s2, size_t n). 
....................    Copies max of n characters (not following ending '\0') 
....................    from s2 in s1; if s2 has less than n characters, appends 0 */ 
....................  
.................... char *strncpy(char *s1, char *s2, size_t n) 
.................... { 
....................   char *s; 
....................  
....................   for (s = s1; n > 0 && *s2 != '\0'; n--) 
....................      *s++ = *s2++; 
....................   for (; n > 0; n--) 
....................      *s++ = '\0'; 
....................  
....................   return(s1); 
.................... } 
.................... /***********************************************************/ 
....................  
.................... /*concatenation functions*/ 
.................... /* standard template: char *strcat(char *s1, const char *s2) 
.................... appends s2 to s1*/ 
....................  
.................... char *strcat(char *s1, char *s2) 
.................... { 
....................    char *s; 
....................  
....................    for (s = s1; *s != '\0'; ++s); 
....................    while(*s2 != '\0') 
....................    { 
....................       *s = *s2; 
....................       ++s; 
....................       ++s2; 
....................    } 
....................  
....................    *s = '\0'; 
....................    return(s1); 
.................... } 
.................... /* standard template: char *strncat(char *s1, char *s2,size_t n) 
.................... appends not more than n characters from s2 to s1*/ 
....................  
.................... char *strncat(char *s1, char *s2, size_t n) 
.................... { 
....................    char *s; 
....................  
....................    for (s = s1; *s != '\0'; ++s); 
....................    while(*s2 != '\0' && 0<n) 
....................    { 
....................       *s = *s2; 
....................       ++s; 
....................       ++s2; 
....................       --n; 
....................    } 
....................  
....................    *s = '\0'; 
....................    return(s1); 
.................... } 
....................  
.................... /***********************************************************/ 
....................  
....................  
.................... /*comparison functions*/ 
.................... /* standard template: signed int memcmp(void *s1, void *s2). 
....................    Compares s1 & s2; returns -1 if s1<s2, 0 if s1=s2, 1 if s1>s2 */ 
....................  
.................... signed int8 memcmp(void * s1,char *s2,size_t n) 
.................... { 
.................... char *su1, *su2; 
.................... for(su1=s1, su2=s2; 0<n; ++su1, ++su2, --n) 
.................... { 
....................    if(*su1!=*su2) 
....................       return ((*su1<*su2)?-1:+1); 
.................... } 
.................... return 0; 
.................... } 
....................  
.................... /* standard template: int strcmp(const char *s1, const char *s2). 
....................    Compares s1 & s2; returns -1 if s1<s2, 0 if s1=s2, 1 if s1>s2 */ 
....................  
.................... signed int8 strcmp(char *s1, char *s2) 
.................... { 
....................    for (; *s1 == *s2; s1++, s2++) 
....................       if (*s1 == '\0') 
....................          return(0); 
....................    return((*s1 < *s2) ? -1: 1); 
.................... } 
.................... /* standard template: int strcoll(const char *s1, const char *s2). 
....................    Compares s1 & s2; returns -1 if s1<s2, 0 if s1=s2, 1 if s1>s2 */ 
....................  
.................... signed int8 strcoll(char *s1, char *s2) 
.................... { 
....................    for (; *s1 == *s2; s1++, s2++) 
....................       if (*s1 == '\0') 
....................          return(0); 
....................    return((*s1 < *s2) ? -1: 1); 
.................... } 
....................  
.................... /* standard template: 
....................    int strncmp(const char *s1, const char *s2, size_t n). 
....................    Compares max of n characters (not following 0) from s1 to s2; 
....................    returns same as strcmp */ 
....................  
.................... signed int8 strncmp(char *s1, char *s2, size_t n) 
.................... { 
....................    for (; n > 0; s1++, s2++, n--) 
....................       if (*s1 != *s2) 
....................          return((*s1 <*s2) ? -1: 1); 
....................       else if (*s1 == '\0') 
....................          return(0); 
....................    return(0); 
.................... } 
.................... /* standard template: 
....................    int strxfrm(const char *s1, const char *s2, size_t n). 
....................    transforms maximum of n characters from s2 and places them into s1*/ 
.................... size_t strxfrm(char *s1, char *s2, size_t n) 
.................... { 
....................   char *s; 
....................   unsigned int8 n1; 
....................   n1=n; 
....................   for (s = s1; n > 0 && *s2 != '\0'; n--) 
....................      *s++ = *s2++; 
....................   for (; n > 0; n--) 
....................      *s++ = '\0'; 
....................  
....................   return(n1); 
.................... } 
....................  
....................  
....................  
....................  
....................  
.................... /***********************************************************/ 
.................... /*Search functions*/ 
.................... /* standard template: void *memchr(const char *s, int c). 
....................    Finds first occurrence of c in n characters of s */ 
....................  
.................... char *memchr(void *s,unsigned int8 c,size_t n) 
.................... { 
....................    char uc; 
....................    char *su; 
....................    uc=c; 
....................    for(su=s;0<n;++su,--n) 
....................       if(*su==uc) 
....................       return su; 
....................    return NULL; 
.................... } 
....................  
.................... /* standard template: char *strchr(const char *s, int c). 
....................    Finds first occurrence of c in s */ 
....................  
.................... char *strchr(char *s, unsigned int8 c) 
.................... { 
....................    for (; *s != c; s++) 
....................       if (*s == '\0') 
....................          return(0); 
....................    return(s); 
.................... } 
.................... /* standard template: 
....................    size_t strcspn(const char *s1, const char *s2). 
....................    Computes length of max initial segment of s1 that 
....................    consists entirely of characters NOT from s2*/ 
....................  
.................... unsigned int8  strcspn(char *s1, char *s2) 
.................... { 
....................    char *sc1, *sc2; 
....................  
....................    for (sc1 = s1; *sc1 != 0; sc1++) 
....................       for (sc2 = s2; *sc2 != 0; sc2++) 
....................          if (*sc1 == *sc2) 
....................             return(sc1 - s1); 
....................    return(sc1 - s1); 
.................... } 
.................... /* standard template: 
....................    char *strpbrk(const char *s1, const char *s2). 
....................    Locates first occurence of any character from s2 in s1; 
....................    returns s1 if s2 is empty string */ 
....................  
.................... char *strpbrk(char *s1, char *s2) 
.................... { 
....................    char *sc1, *sc2; 
....................  
....................    for (sc1 = s1; *sc1 != 0; sc1++) 
....................       for (sc2 = s2; *sc2 != 0; sc2++) 
....................          if (*sc1 == *sc2) 
....................             return(sc1); 
....................    return(0); 
.................... } 
....................  
....................  
.................... /* standard template: char *strrchr(const char *s, int c). 
....................    Finds last occurrence of c in s */ 
....................  
.................... char *strrchr(char *s, unsigned int8 c) 
.................... { 
....................    char *p; 
....................  
....................    for (p = 0; ; s++) 
....................    { 
....................       if (*s == c) 
....................          p = s; 
....................       if (*s == '\0') 
....................          return(p); 
....................    } 
.................... } 
.................... /* computes length of max initial segment of s1 consisting 
....................    entirely of characters from s2 */ 
....................  
.................... unsigned int8  strspn(char *s1, char *s2) 
.................... { 
....................    char *sc1, *sc2; 
....................  
....................    for (sc1 = s1; *sc1 != 0; sc1++) 
....................       for (sc2 = s2; ; sc2++) 
....................     if (*sc2 == '\0') 
....................        return(sc1 - s1); 
....................          else if (*sc1 == *sc2) 
....................             break; 
....................    return(sc1 - s1); 
.................... } 
.................... /* standard template: 
....................    char *strstr(const char *s1, const char *s2); 
....................    Locates first occurence of character sequence s2 in s1; 
....................    returns 0 if s2 is empty string 
....................  
....................    Uncomment #define FASTER_BUT_MORE_ROM at the top of the 
....................    file to use the faster algorithm */ 
.................... char *strstr(char *s1, char *s2) 
.................... { 
....................    char *s, *t; 
....................  
....................    #ifdef FASTER_BUT_MORE_ROM 
....................    if (*s2 == '\0') 
....................          return(s1); 
....................    #endif 
....................  
....................    while (*s1) 
....................    { 
....................       for(s = s1, t = s2; *t && (*s == *t); ++s, ++t); 
....................  
....................       if (*t == '\0') 
....................          return s1; 
....................       ++s1; 
....................       #ifdef FASTER_BUT_MORE_ROM 
....................          while(*s1 != '\0' && *s1 != *s2) 
....................             ++s1; 
....................       #endif 
....................    } 
....................    return 0; 
.................... } 
....................  
.................... /* standard template: char *strtok(char *s1, const char *s2). 
....................  
....................    Finds next token in s1 delimited by a character from separator 
....................    string s2 (which can be different from call to call).  First call 
....................    starts at beginning of s1 searching for first character NOT 
....................    contained in s2; returns 0 if none is found. 
....................    If one is found, it is the start of first token (return value). 
....................    Function then searches from there for a character contained in s2. 
....................    If none is found, current token extends to end of s1, and subsequent 
....................    searches for a token will return 0.  If one is found, it is 
....................    overwritten by '\0', which terminates current token.  Function saves 
....................    pointer to following character from which next search will start. 
....................    Each subsequent call, with 0 as first argument, starts searching 
....................    from saved pointer */ 
....................  
.................... char *strtok(char *s1, char *s2) 
.................... { 
....................    char *beg, *end; 
....................    static char *save; 
....................  
....................    beg = (s1)? s1: save; 
....................    beg += strspn(beg, s2); 
....................    if (*beg == '\0') 
....................    { 
....................       *save = ' '; 
....................       return(0); 
....................    } 
....................    end = strpbrk(beg, s2); 
....................    if (*end != '\0') 
....................    { 
....................       *end = '\0'; 
....................       end++; 
....................    } 
....................    save = end; 
....................    return(beg); 
.................... } 
....................  
.................... /*****************************************************************/ 
.................... /*Miscellaneous functions*/ 
.................... /* standard template 
.................... maps error number in errnum to an error message string 
.................... Returns: Pointer to string 
.................... */ 
.................... #ifdef _ERRNO 
.................... char * strerror(unsigned int8 errnum) 
.................... { 
.................... static char s[13]; 
.................... switch( errnum) 
.................... { 
.................... case 0: 
....................    strcpy(s,"no errors"); 
....................    return s; 
.................... case EDOM : 
....................    strcpy(s,"domain error"); 
....................    return s; 
.................... case ERANGE: 
....................    strcpy(s,"range error"); 
....................    return s; 
.................... } 
.................... } 
.................... #ENDIF 
.................... /* standard template: size_t strlen(const char *s). 
....................    Computes length of s1 (preceding terminating 0) */ 
....................  
.................... unsigned int8 strlen(char *s) 
.................... { 
....................    char *sc; 
....................  
....................    for (sc = s; *sc != 0; sc++); 
....................    return(sc - s); 
.................... } 
....................  
.................... /* standard template: size_t stricmp(const char *s1, const char *s2). 
....................    Compares s1 to s2 ignoring case (upper vs. lower) */ 
....................  
.................... signed int8 stricmp(char *s1, char *s2) 
.................... { 
....................  for(; *s1==*s2||(isalpha(*s1)&&isalpha(*s2)&&(*s1==*s2+32||*s2==*s1+32)); 
....................     s1++, s2++) 
....................     if (*s1 == '\0') 
....................        return(0); 
....................  return((*s1 < *s2) ? -1: 1); 
.................... } 
....................  
....................  
.................... /* standard template: char *strlwr(char *s). 
....................    Replaces uppercase letters by lowercase; 
....................    returns pointer to new string s */ 
....................  
.................... char *strlwr(char *s) 
.................... { 
....................    char *p; 
....................  
....................    for (p = s; *p != '\0'; p++) 
....................       if (*p >= 'A' && *p <='Z') 
....................          *p += 'a' - 'A'; 
....................    return(s); 
.................... } 
....................  
.................... /* standard template: char *strupr(char *s). 
....................    Replaces lowercase letters by upercase; 
....................    returns pointer to new string s */ 
....................  
.................... char *strupr(char *s) 
.................... { 
....................    char *p; 
....................  
....................    for (p = s; *p != '\0'; p++) 
....................       if (*p >= 'a' && *p <='z') 
....................          *p -= 'a' - 'A'; 
....................    return(s); 
.................... } 
....................  
....................  
.................... /************************************************************/ 
....................  
....................  
.................... #endif 
....................  
....................  
.................... div_t div(signed int numer, signed int denom) 
.................... { 
....................    div_t val; 
....................    val.quot = numer / denom; 
....................    val.rem = numer - (denom * val.quot); 
....................    return (val); 
.................... } 
....................  
.................... ldiv_t ldiv(signed long numer, signed long denom) 
.................... { 
....................    ldiv_t val; 
....................  
....................    val.quot = numer / denom; 
....................    val.rem = numer - (denom * val.quot); 
....................    return (val); 
.................... } 
....................  
.................... #if defined(__PCD__) 
.................... float32 atoe(char * s) 
.................... { 
....................    float32 pow10 = 1.0; 
....................    float32 result = 0.0; 
....................    unsigned int8 sign = 0; 
....................    unsigned int8 expsign = 0; 
....................    char c; 
....................    unsigned int8 ptr = 0; 
....................    unsigned int8 i; 
....................    float32 exp = 1.0; 
....................    unsigned int8 expcnt = 0; 
....................  
....................    c = s[ptr++]; 
....................  
....................    if ((c>='0' && c<='9') || c=='+' || c=='-' || c=='.' || c=='E' || c=='e') { 
....................       if(c == '-') { 
....................          sign = 1; 
....................          c = s[ptr++]; 
....................       } 
....................       if(c == '+') 
....................          c = s[ptr++]; 
....................  
....................       while((c >= '0' && c <= '9')) { 
....................          result = 10*result + c - '0'; 
....................          c = s[ptr++]; 
....................       } 
....................  
....................       if (c == '.') { 
....................          c = s[ptr++]; 
....................          while((c >= '0' && c <= '9')) { 
....................              pow10 = pow10*10; 
....................              result += (c - '0')/pow10; 
....................              c = s[ptr++]; 
....................          } 
....................       } 
....................  
....................       // Handling the exponent 
....................       if (c=='e' || c=='E') { 
....................          c = s[ptr++]; 
....................  
....................          if(c == '-') { 
....................             expsign = 1; 
....................             c = s[ptr++]; 
....................          } 
....................          if(c == '+') 
....................             c = s[ptr++]; 
....................  
....................          while((c >= '0' && c <= '9')) { 
....................             expcnt = 10*expcnt + c - '0'; 
....................             c = s[ptr++]; 
....................          } 
....................  
....................          for(i=0;i<expcnt;i++) 
....................             exp*=10; 
....................  
....................          if(expsign==1) 
....................             result/=exp; 
....................          else 
....................             result*=exp; 
....................       } 
....................    } 
....................  
....................    if (sign == 1) 
....................       result = -1*result; 
....................    return(result); 
.................... } 
.................... #endif 
....................  
.................... #if !defined(__PCD__) 
.................... float atoe(char * s) 
.................... { 
....................    float pow10 = 1.0; 
....................    float result = 0.0; 
....................    unsigned int8 sign = 0; 
....................    unsigned int8 expsign = 0; 
....................    char c; 
....................    unsigned int8 ptr = 0; 
....................    unsigned int8 i; 
....................    float exp = 1.0; 
....................    unsigned int8 expcnt = 0; 
....................  
....................    c = s[ptr++]; 
....................  
....................    if ((c>='0' && c<='9') || c=='+' || c=='-' || c=='.' || c=='E' || c=='e') { 
....................       if(c == '-') { 
....................          sign = 1; 
....................          c = s[ptr++]; 
....................       } 
....................       if(c == '+') 
....................          c = s[ptr++]; 
....................  
....................       while((c >= '0' && c <= '9')) { 
....................          result = 10*result + c - '0'; 
....................          c = s[ptr++]; 
....................       } 
....................  
....................       if (c == '.') { 
....................          c = s[ptr++]; 
....................          while((c >= '0' && c <= '9')) { 
....................              pow10 = pow10*10; 
....................              result += (c - '0')/pow10; 
....................              c = s[ptr++]; 
....................          } 
....................       } 
....................  
....................       // Handling the exponent 
....................       if (c=='e' || c=='E') { 
....................          c = s[ptr++]; 
....................  
....................          if(c == '-') { 
....................             expsign = 1; 
....................             c = s[ptr++]; 
....................          } 
....................          if(c == '+') 
....................             c = s[ptr++]; 
....................  
....................          while((c >= '0' && c <= '9')) { 
....................             expcnt = 10*expcnt + c - '0'; 
....................             c = s[ptr++]; 
....................          } 
....................  
....................          for(i=0;i<expcnt;i++) 
....................             exp*=10; 
....................  
....................          if(expsign==1) 
....................             result/=exp; 
....................          else 
....................             result*=exp; 
....................       } 
....................    } 
....................  
....................    if (sign == 1) 
....................       result = -1*result; 
....................    return(result); 
.................... } 
.................... #endif 
....................  
.................... signed int atoi(char *s) 
.................... { 
....................    signed int result; 
....................    unsigned int sign, base, index; 
....................    char c; 
....................  
....................    index = 0; 
....................    sign = 0; 
....................    base = 10; 
....................    result = 0; 
....................  
....................    if (!s) 
....................       return 0; 
....................    // Omit all preceeding alpha characters 
....................    c = s[index++]; 
....................  
....................    // increase index if either positive or negative sign is detected 
....................    if (c == '-') 
....................    { 
....................       sign = 1;         // Set the sign to negative 
....................       c = s[index++]; 
....................    } 
....................    else if (c == '+') 
....................    { 
....................       c = s[index++]; 
....................    } 
....................  
....................    if (c >= '0' && c <= '9') 
....................    { 
....................  
....................       // Check for hexa number 
....................       if (c == '0' && (s[index] == 'x' || s[index] == 'X')) 
....................       { 
....................          base = 16; 
....................          index++; 
....................          c = s[index++]; 
....................       } 
....................  
....................       // The number is a decimal number 
....................       if (base == 10) 
....................       { 
....................          while (c >= '0' && c <= '9') 
....................          { 
....................             result = 10*result + (c - '0'); 
....................             c = s[index++]; 
....................          } 
....................       } 
....................       else if (base == 16)    // The number is a hexa number 
....................       { 
....................          c = toupper(c); 
....................          while ( (c >= '0' && c <= '9') || (c >= 'A' && c<='F')) 
....................          { 
....................             if (c >= '0' && c <= '9') 
....................                result = (result << 4) + (c - '0'); 
....................             else 
....................                result = (result << 4) + (c - 'A' + 10); 
....................  
....................             c = s[index++]; 
....................             c = toupper(c); 
....................          } 
....................       } 
....................    } 
....................  
....................    if (sign == 1 && base == 10) 
....................        result = -result; 
....................  
....................    return(result); 
.................... } 
....................  
.................... signed long atol(char *s) 
.................... { 
....................    signed long result; 
....................    unsigned int sign, base, index; 
....................    char c; 
....................  
....................    index = 0; 
....................    sign = 0; 
....................    base = 10; 
....................    result = 0; 
....................  
....................    if (!s) 
....................       return 0; 
....................    c = s[index++]; 
....................  
....................    // increase index if either positive or negative sign is detected 
....................    if (c == '-') 
....................    { 
....................       sign = 1;         // Set the sign to negative 
....................       c = s[index++]; 
....................    } 
....................    else if (c == '+') 
....................    { 
....................       c = s[index++]; 
....................    } 
....................  
....................    if (c >= '0' && c <= '9') 
....................    { 
....................       if (c == '0' && (s[index] == 'x' || s[index] == 'X')) 
....................       { 
....................          base = 16; 
....................          index++; 
....................          c = s[index++]; 
....................       } 
....................  
....................       // The number is a decimal number 
....................       if (base == 10) 
....................       { 
....................          while (c >= '0' && c <= '9') 
....................          { 
....................             result = 10*result + (c - '0'); 
....................             c = s[index++]; 
....................          } 
....................       } 
....................       else if (base == 16)    // The number is a hexa number 
....................       { 
....................          c = toupper(c); 
....................          while ( (c >= '0' && c <= '9') || (c >= 'A' && c <='F')) 
....................          { 
....................             if (c >= '0' && c <= '9') 
....................                result = (result << 4) + (c - '0'); 
....................             else 
....................                result = (result << 4) + (c - 'A' + 10); 
....................  
....................             c = s[index++];c = toupper(c); 
....................          } 
....................       } 
....................    } 
....................  
....................    if (base == 10 && sign == 1) 
....................       result = -result; 
....................  
....................    return(result); 
.................... } 
....................  
.................... /* A fast routine to multiply by 10 
....................  */ 
.................... signed int32 mult_with10(int32 num) 
.................... { 
....................    return ( (num << 1) + (num << 3) ); 
.................... } 
....................  
.................... #if sizeof(long)==2 
.................... signed int32 atoi32(char *s) 
.................... { 
....................    signed int32 result; 
....................    int8 sign, base, index; 
....................    char c; 
....................  
....................    index = 0; 
....................    sign = 0; 
....................    base = 10; 
....................    result = 0; 
....................  
....................    if (!s) 
....................       return 0; 
....................    c = s[index++]; 
....................  
....................    // increase index if either positive or negative sign is detected 
....................    if (c == '-') 
....................    { 
....................       sign = 1;         // Set the sign to negative 
....................       c = s[index++]; 
....................    } 
....................    else if (c == '+') 
....................    { 
....................       c = s[index++]; 
....................    } 
....................  
....................    if (c >= '0' && c <= '9') 
....................    { 
....................       if (c == '0' && (s[index] == 'x' || s[index] == 'X')) 
....................       { 
....................          base = 16; 
....................          index++; 
....................          c = s[index++]; 
....................       } 
....................  
....................       // The number is a decimal number 
....................       if (base == 10) 
....................       { 
....................          while (c >= '0' && c <= '9') { 
....................             result = (result << 1) + (result << 3);  // result *= 10; 
....................             result += (c - '0'); 
....................             c = s[index++]; 
....................          } 
....................       } 
....................       else if (base == 16)    // The number is a hexa number 
....................       { 
....................          c = toupper(c); 
....................          while ((c >= '0' && c <= '9') || (c >= 'A' && c <='F')) 
....................          { 
....................             if (c >= '0' && c <= '9') 
....................                result = (result << 4) + (c - '0'); 
....................             else 
....................                result = (result << 4) + (c - 'A' + 10); 
....................  
....................             c = s[index++];c = toupper(c); 
....................          } 
....................       } 
....................    } 
....................  
....................    if (base == 10 && sign == 1) 
....................       result = -result; 
....................  
....................    return(result); 
.................... } 
.................... #endif 
....................  
.................... #if defined(__PCD__) 
....................  
.................... signed int48 atoi48(char *s) 
.................... { 
....................    signed int48 result; 
....................    int8 sign, base, index; 
....................    char c; 
....................  
....................    index = 0; 
....................    sign = 0; 
....................    base = 10; 
....................    result = 0; 
....................  
....................    if (!s) 
....................       return 0; 
....................    c = s[index++]; 
....................  
....................    // increase index if either positive or negative sign is detected 
....................    if (c == '-') 
....................    { 
....................       sign = 1;         // Set the sign to negative 
....................       c = s[index++]; 
....................    } 
....................    else if (c == '+') 
....................    { 
....................       c = s[index++]; 
....................    } 
....................  
....................    if (c >= '0' && c <= '9') 
....................    { 
....................       if (c == '0' && (s[index] == 'x' || s[index] == 'X')) 
....................       { 
....................          base = 16; 
....................          index++; 
....................          c = s[index++]; 
....................       } 
....................  
....................       // The number is a decimal number 
....................       if (base == 10) 
....................       { 
....................          while (c >= '0' && c <= '9') { 
....................             result = (result << 1) + (result << 3);  // result *= 10; 
....................             result += (c - '0'); 
....................             c = s[index++]; 
....................          } 
....................       } 
....................       else if (base == 16)    // The number is a hexa number 
....................       { 
....................          c = toupper(c); 
....................          while ((c >= '0' && c <= '9') || (c >= 'A' && c <='F')) 
....................          { 
....................             if (c >= '0' && c <= '9') 
....................                result = (result << 4) + (c - '0'); 
....................             else 
....................                result = (result << 4) + (c - 'A' + 10); 
....................  
....................             c = s[index++];c = toupper(c); 
....................          } 
....................       } 
....................    } 
....................  
....................    if (base == 10 && sign == 1) 
....................       result = -result; 
....................  
....................    return(result); 
.................... } 
....................  
.................... signed int64 atoi64(char *s) 
.................... { 
....................    signed int64 result; 
....................    int8 sign, base, index; 
....................    char c; 
....................  
....................    index = 0; 
....................    sign = 0; 
....................    base = 10; 
....................    result = 0; 
....................  
....................    if (!s) 
....................       return 0; 
....................    c = s[index++]; 
....................  
....................    // increase index if either positive or negative sign is detected 
....................    if (c == '-') 
....................    { 
....................       sign = 1;         // Set the sign to negative 
....................       c = s[index++]; 
....................    } 
....................    else if (c == '+') 
....................    { 
....................       c = s[index++]; 
....................    } 
....................  
....................    if (c >= '0' && c <= '9') 
....................    { 
....................       if (c == '0' && (s[index] == 'x' || s[index] == 'X')) 
....................       { 
....................          base = 16; 
....................          index++; 
....................          c = s[index++]; 
....................       } 
....................  
....................       // The number is a decimal number 
....................       if (base == 10) 
....................       { 
....................          while (c >= '0' && c <= '9') { 
....................             result = (result << 1) + (result << 3);  // result *= 10; 
....................             result += (c - '0'); 
....................             c = s[index++]; 
....................          } 
....................       } 
....................       else if (base == 16)    // The number is a hexa number 
....................       { 
....................          c = toupper(c); 
....................          while ((c >= '0' && c <= '9') || (c >= 'A' && c <='F')) 
....................          { 
....................             if (c >= '0' && c <= '9') 
....................                result = (result << 4) + (c - '0'); 
....................             else 
....................                result = (result << 4) + (c - 'A' + 10); 
....................  
....................             c = s[index++];c = toupper(c); 
....................          } 
....................       } 
....................    } 
....................  
....................    if (base == 10 && sign == 1) 
....................       result = -result; 
....................  
....................    return(result); 
.................... } 
.................... #endif 
....................  
.................... char * itoa(signed int32 num, unsigned int base, char * s) 
.................... { 
....................      unsigned int32 temp=1; 
....................      unsigned int8 i,sign=0,cnt=0; 
....................      char c; 
....................  
....................      if(num<0) { 
....................          sign=1;        // Check for negative number 
....................          num*=-1; 
....................      } 
....................  
....................      while(temp>0) { 
....................          temp=(num/base); 
....................          s[cnt]=(num%base)+'0';    // Conversion 
....................  
....................          if(s[cnt]>0x39) 
....................             s[cnt]+=0x7; 
....................  
....................          cnt++; 
....................          num=temp; 
....................      } 
....................  
....................      if(sign==1) { 
....................          s[cnt]=0x2D;      // Negative sign 
....................          cnt++; 
....................      } 
....................  
....................      for(i = 0;i<(int8)(cnt/2);i++) { 
....................  
....................          c=s[i]; 
....................          s[i]=s[cnt-i-1];        // Reverse the number 
....................          s[cnt-i-1]=c; 
....................      } 
....................      s[cnt]='\0';     // End the string 
....................      return s; 
.................... } 
....................  
.................... #if defined(__PCD__) 
....................  
.................... char * itoa(signed int48 num, unsigned int base, char * s) 
.................... { 
....................      unsigned int48 temp=1; 
....................      unsigned int8 i,sign=0,cnt=0; 
....................      char c; 
....................  
....................      if(num<0) { 
....................          sign=1;        // Check for negative number 
....................          num*=-1; 
....................      } 
....................  
....................      while(temp>0) { 
....................          temp=(num/base); 
....................          s[cnt]=(num%base)+'0';    // Conversion 
....................  
....................          if(s[cnt]>0x39) 
....................             s[cnt]+=0x7; 
....................  
....................          cnt++; 
....................          num=temp; 
....................      } 
....................  
....................      if(sign==1) { 
....................          s[cnt]=0x2D;      // Negative sign 
....................          cnt++; 
....................      } 
....................  
....................      for(i = 0;i<(int8)(cnt/2);i++) { 
....................  
....................          c=s[i]; 
....................          s[i]=s[cnt-i-1];        // Reverse the number 
....................          s[cnt-i-1]=c; 
....................      } 
....................      s[cnt]='\0';     // End the string 
....................      return s; 
.................... } 
....................  
.................... char * itoa(signed int64 num, unsigned int base, char * s) 
.................... { 
....................      unsigned int64 temp=1; 
....................      unsigned int8 i,sign=0,cnt=0; 
....................      char c; 
....................       
....................      if(num<0) { 
....................          sign=1;        // Check for negative number 
....................          num*=-1;         
....................      } 
....................  
....................      while(temp>0) { 
....................          temp=(num/base); 
....................          s[cnt]=(num%base)+'0';    // Conversion 
....................  
....................          if(s[cnt]>0x39) 
....................             s[cnt]+=0x7; 
....................              
....................          cnt++; 
....................          num=temp; 
....................      } 
....................  
....................      if(sign==1) { 
....................          s[cnt]=0x2D;      // Negative sign 
....................          cnt++; 
....................      } 
....................  
....................      for(i = 0;i<(int8)(cnt/2);i++) { 
....................  
....................          c=s[i]; 
....................          s[i]=s[cnt-i-1];        // Reverse the number 
....................          s[cnt-i-1]=c; 
....................      } 
....................      s[cnt]='\0';     // End the string 
....................      return s; 
.................... } 
....................  
.................... #endif 
....................  
.................... float strtof(char *s, char *endptr) 
.................... { 
....................    float pow10 = 1.0; 
....................    float result = 0.0; 
....................    int1 skip = 1, sign = 0, point = 0; 
....................    char c; 
....................    unsigned int8 ptr = 0; 
....................  
....................    if (!s) 
....................       return 0; 
....................  
....................    for(c=s[ptr++]; c!=0; c=s[ptr++]) 
....................    { 
....................       if (skip && !isspace(c)) 
....................       { 
....................          skip = 0; 
....................          if (c == '+') 
....................          { 
....................             sign = 0; 
....................             continue; 
....................          }             
....................          else if (c == '-') 
....................          { 
....................             sign = 1; 
....................             continue; 
....................          } 
....................       } 
....................       if (!skip && (c == '.') && !point) 
....................          point = 1; 
....................       else if (!skip && isdigit(c)) 
....................       { 
....................          c -= '0'; 
....................          if (point) 
....................          { 
....................             pow10 = pow10 * 10.0; 
....................             result += (float)c / pow10;    
....................          } 
....................          else 
....................          { 
....................             result = 10.0 * result + (float)c; 
....................          } 
....................       } 
....................       else if (!skip) 
....................          break; 
....................    } 
....................  
....................    if (sign) 
....................       result = -1*result; 
....................        
....................    if(endptr) 
....................    { 
....................       if (ptr) { 
....................          ptr--; 
....................        #IF LONG_POINTERS  
....................          *((int16 *)endptr)= s+ptr;  
....................        #ELSE 
....................          *((char *)endptr)=s+ptr; 
....................        #ENDIF 
....................       } 
....................       else 
....................       { 
....................       #IF LONG_POINTERS 
....................       *((int16 *)endptr)= s;  
....................       #ELSE 
....................       *((char *)endptr)=s; 
....................       #ENDIF 
....................       } 
....................    } 
....................  
....................    return(result); 
.................... } 
....................  
.................... #if defined(__PCD__) 
.................... float48 strtof48(char *s, char *endptr) 
.................... { 
....................    float48 pow10 = 1.0; 
....................    float48 result = 0.0; 
....................    int1 skip = 1, sign = 0, point = 0; 
....................    char c; 
....................    unsigned int8 ptr = 0; 
....................  
....................    if (!s) 
....................       return 0; 
....................  
....................    for(c=s[ptr++]; c!=0; c=s[ptr++]) 
....................    { 
....................       if (skip && !isspace(c)) 
....................       { 
....................          skip = 0; 
....................          if (c == '+') 
....................          { 
....................             sign = 0; 
....................             continue; 
....................          }             
....................          else if (c == '-') 
....................          { 
....................             sign = 1; 
....................             continue; 
....................          } 
....................       } 
....................       if (!skip && (c == '.') && !point) 
....................          point = 1; 
....................       else if (!skip && isdigit(c)) 
....................       { 
....................          c -= '0'; 
....................          if (point) 
....................          { 
....................             pow10 = pow10 * 10.0; 
....................             result += (float48)c / pow10;    
....................          } 
....................          else 
....................          { 
....................             result = 10.0 * result + (float48)c; 
....................          } 
....................       } 
....................       else if (!skip) 
....................          break; 
....................    } 
....................  
....................    if (sign) 
....................       result = -1*result; 
....................        
....................    if(endptr) 
....................    { 
....................       if (ptr) { 
....................          ptr--; 
....................        #IF LONG_POINTERS  
....................          *((int16 *)endptr)= s+ptr;  
....................        #ELSE 
....................          *((char *)endptr)=s+ptr; 
....................        #ENDIF 
....................       } 
....................       else 
....................       { 
....................       #IF LONG_POINTERS 
....................       *((int16 *)endptr)= s;  
....................       #ELSE 
....................       *((char *)endptr)=s; 
....................       #ENDIF 
....................       } 
....................    } 
....................  
....................    return(result); 
.................... } 
....................  
.................... float64 strtod(char *s, char *endptr) 
.................... { 
....................    float64 pow10 = 1.0; 
....................    float64 result = 0.0; 
....................    int1 skip = 1, sign = 0, point = 0; 
....................    char c; 
....................    unsigned int8 ptr = 0; 
....................  
....................    if (!s) 
....................       return 0; 
....................  
....................    for(c=s[ptr++]; c!=0; c=s[ptr++]) 
....................    { 
....................       if (skip && !isspace(c)) 
....................       { 
....................          skip = 0; 
....................          if (c == '+') 
....................          { 
....................             sign = 0; 
....................             continue; 
....................          }             
....................          else if (c == '-') 
....................          { 
....................             sign = 1; 
....................             continue; 
....................          } 
....................       } 
....................       if (!skip && (c == '.') && !point) 
....................          point = 1; 
....................       else if (!skip && isdigit(c)) 
....................       { 
....................          c -= '0'; 
....................          if (point) 
....................          { 
....................             pow10 = pow10 * 10.0; 
....................             result += (float64)c / pow10;    
....................          } 
....................          else 
....................          { 
....................             result = 10.0 * result + (float64)c; 
....................          } 
....................       } 
....................       else if (!skip) 
....................          break; 
....................    } 
....................  
....................    if (sign) 
....................       result = -1*result; 
....................        
....................    if(endptr) 
....................    { 
....................       if (ptr) { 
....................          ptr--; 
....................        #IF LONG_POINTERS  
....................          *((int16 *)endptr)= s+ptr;  
....................        #ELSE 
....................          *((char *)endptr)=s+ptr; 
....................        #ENDIF 
....................       } 
....................       else 
....................       { 
....................       #IF LONG_POINTERS 
....................       *((int16 *)endptr)= s;  
....................       #ELSE 
....................       *((char *)endptr)=s; 
....................       #ENDIF 
....................       } 
....................    } 
....................  
....................    return(result); 
.................... } 
.................... #endif 
....................  
.................... unsigned long strtoul(char *s, char *endptr, signed int base) 
.................... { 
....................    char *sc,*s1,*sd; 
....................    unsigned long x=0; 
....................    char sign; 
....................    char digits[]="0123456789abcdefghijklmnopqstuvwxyz"; 
....................    for(sc=s;isspace(*sc);++sc); 
....................    sign=*sc=='-'||*sc=='+'?*sc++:'+'; 
....................    if(sign=='-' || base <0 || base ==1|| base >36) // invalid base 
....................    goto StrtoulGO; 
....................  
....................    else if (base) 
....................    { 
....................       if(base==16 && *sc =='0'&&(sc[1]=='x' || sc[1]=='X')) 
....................          sc+=2; 
....................       if(base==8 && *sc =='0') 
....................          sc+=1; 
....................       if(base==2 && *sc =='0'&&sc[1]=='b') 
....................          sc+=2; 
....................  
....................    } 
....................    else if(*sc!='0') // base is 0, find base 
....................       base=10; 
....................    else if (sc[1]=='x' || sc[1]=='X') 
....................       base =16,sc+=2; 
....................    else if(sc[1]=='b') 
....................       base=2,sc+=2; 
....................    else 
....................       base=8; 
....................    for (s1=sc;*sc=='0';++sc);// skip leading zeroes 
....................    sd=memchr(digits,tolower(*sc),base); 
....................    for(; sd!=0; ) 
....................    { 
....................       x=x*base+(int16)(sd-digits); 
....................       ++sc; 
....................       sd=memchr(digits,tolower(*sc),base); 
....................    } 
....................    if(s1==sc) 
....................    { 
....................    StrtoulGO: 
....................       if (endptr) 
....................       { 
....................          #IF LONG_POINTERS 
....................          *((int16 *)endptr)= s;  
....................          #ELSE 
....................          *((char *)endptr)=s; 
....................          #ENDIF 
....................          } 
....................    return 0; 
....................    } 
....................    if (endptr) 
....................    { 
....................          #IF LONG_POINTERS 
....................          *((int16 *)endptr)= sc;  
....................          #ELSE 
....................          *((char *)endptr)=sc;  
....................          #ENDIF 
....................    } 
....................    return x; 
.................... } 
....................  
....................  
.................... signed long strtol(char *s,char *endptr, signed int base) 
.................... { 
....................    char *sc,*s1,*sd; 
....................    signed long x=0; 
....................    char sign; 
....................    char digits[]="0123456789abcdefghijklmnopqstuvwxyz"; 
....................    for(sc=s;isspace(*sc);++sc); 
....................    sign=*sc=='-'||*sc=='+'?*sc++:'+'; 
....................    if (base <0 || base ==1|| base >36) // invalid base 
....................    goto StrtolGO; 
....................    else if (base) 
....................    { 
....................       if(base==16 && *sc =='0'&&(sc[1]=='x' || sc[1]=='X')) 
....................          sc+=2; 
....................       if(base==8 && *sc =='0') 
....................          sc+=1; 
....................       if(base==2 && *sc =='0'&&sc[1]=='b') 
....................          sc+=2; 
....................  
....................    } 
....................    else if(*sc!='0') // base is 0, find base 
....................       base=10; 
....................    else if (sc[1]=='x' || sc[1]=='X') 
....................       base =16,sc+=2; 
....................    else if(sc[1]=='b') 
....................       base=2,sc+=2; 
....................    else 
....................       base=8; 
....................    for (s1=sc;*sc=='0';++sc);// skip leading zeroes 
....................  
....................    sd=memchr(digits,tolower(*sc),base); 
....................    for(;sd!=0;) 
....................    { 
....................       x=x*base+(int16)(sd-digits); 
....................       ++sc; 
....................       sd=memchr(digits,tolower(*sc),base); 
....................    } 
....................    if(s1==sc) 
....................    { 
....................    StrtolGO: 
....................       if (endptr) 
....................       { 
....................          #IF LONG_POINTERS 
....................          *((int16 *)endptr)= s;  
....................          #ELSE 
....................          *((char *)endptr)=s; 
....................          #ENDIF 
....................       } 
....................    return 0; 
....................    } 
....................    if(sign=='-') 
....................       x  =-x; 
....................    if (endptr) 
....................    { 
....................         #IF LONG_POINTERS 
....................          *((int16 *)endptr)= sc;  
....................         #ELSE 
....................         *((char *)endptr)=sc; 
....................         #ENDIF 
....................    } 
....................    return x; 
.................... } 
....................  
.................... signed int8 system(char *string) 
.................... { 
....................    return 0; 
.................... } 
....................  
.................... int8 mblen(char *s,size_t n) 
.................... { 
....................    return strlen(s); 
.................... } 
....................  
.................... int8 mbtowc(wchar_t *pwc,char *s,size_t n) 
.................... { 
....................    *pwc=*s; 
....................    return 1; 
.................... } 
....................  
.................... int8 wctomb(char *s,wchar_t wchar) 
.................... { 
....................    *s=wchar; 
....................    return 1; 
.................... } 
....................  
.................... size_t mbstowcs(wchar_t *pwcs,char *s,size_t n) 
.................... { 
....................    strncpy(pwcs,s,n); 
....................    return strlen(pwcs); 
.................... } 
....................  
.................... size_t wcstombs(char *s,wchar_t *pwcs,size_t n) 
.................... { 
....................    strncpy(s,pwcs,n); 
....................    return strlen(s); 
.................... } 
....................  
.................... //--------------------------------------------------------------------------- 
.................... // The random number implementation 
.................... //--------------------------------------------------------------------------- 
....................  
.................... unsigned int32 _Randseed; 
....................  
.................... unsigned int16 rand(void) 
.................... { 
....................    _Randseed = _Randseed * 1103515245 + 12345; 
....................    return ((unsigned int16)(_Randseed >> 16) % RAND_MAX); 
.................... } 
....................  
.................... void srand(unsigned int32 seed) 
.................... { 
....................    _Randseed = seed; 
.................... } 
....................  
.................... //--------------------------------------------------------------------------- 
.................... // Searching and sorting utilities implementation 
.................... //--------------------------------------------------------------------------- 
....................  
.................... #if !defined(__PCD__) 
.................... typedef signed int8 (*_Cmpfun)(char * p1,char * p2);  
.................... #else  
.................... typedef signed int16 (*_Cmpfun)(char * p1,char * p2);  
.................... #endif 
....................  
....................  
....................  
.................... void qsort(char * qdata, unsigned int qitems, unsigned int qsize, _Cmpfun cmp) { 
....................    unsigned int m,j,i,l; 
....................    int1 done; 
....................    unsigned int8 t[16]; 
....................  
....................    m = qitems/2; 
....................    while( m > 0 ) { 
....................      for(j=0; j<(qitems-m); ++j) { 
....................         i = j; 
....................         do 
....................         { 
....................            done=1; 
....................            l = i+m; 
....................            if( (*cmp)(qdata+i*qsize, qdata+l*qsize) > 0 ) { 
....................               memcpy(t, qdata+i*qsize, qsize); 
....................               memcpy(qdata+i*qsize, qdata+l*qsize, qsize); 
....................               memcpy(qdata+l*qsize, t, qsize); 
....................               if(m <= i) 
....................                 i -= m; 
....................                 done = 0; 
....................            } 
....................         } while(!done); 
....................      } 
....................      m = m/2; 
....................    } 
.................... } 
....................  
....................  
.................... char *bsearch(char *key, char *base, size_t num, size_t width,_Cmpfun cmp) 
.................... { 
....................    char *p, *q; 
....................    size_t n; 
....................    size_t pivot; 
....................    signed int val; 
....................  
....................    p = base; 
....................    n = num; 
....................  
....................    while (n > 0) 
....................    { 
....................       pivot = n >> 1; 
....................       q = p + width * pivot; 
....................  
....................       val = (*cmp)(key, q); 
....................  
....................       if (val < 0) 
....................          n = pivot; 
....................       else if (val == 0) 
....................          return ((char *)q); 
....................       else { 
....................          p = q + width; 
....................          n -= pivot + 1; 
....................       } 
....................    } 
....................  
....................    return NULL;      // There's no match 
.................... } 
....................  
....................  
.................... #endif 
....................  
.................... #fuses INTRC_IO,WDT_SW,WDT64,MCLR,PROTECT,NOBROWNOUT	//WDTL	MCLRL 
.................... //#fuses INTRC_IO,WDT_SW,WDT64,NOMCLR,PROTECT,NOBROWNOUT	//WDTL	MCLR 
.................... //#fuses INTRC_IO,NOWDT,NOMCLR,PROTECT,NOBROWNOUT				//WDT	MCLR 
.................... //#fuses INTRC_IO,NOWDT,NOLVP,NOMCLR,PROTECT,NOBROWNOUT 
.................... #use delay(CLOCK=64MHz)//,RESTART_WDT 
*
03E26:  MOVLW  04
03E28:  MOVWF  FEA
03E2A:  MOVLW  46
03E2C:  MOVWF  FE9
03E2E:  MOVF   FEF,W
03E30:  BZ    3E4E
03E32:  MOVLW  14
03E34:  MOVWF  01
03E36:  CLRF   00
03E38:  DECFSZ 00,F
03E3A:  BRA    3E38
03E3C:  DECFSZ 01,F
03E3E:  BRA    3E36
03E40:  MOVLW  BF
03E42:  MOVWF  00
03E44:  DECFSZ 00,F
03E46:  BRA    3E44
03E48:  BRA    3E4A
03E4A:  DECFSZ FEF,F
03E4C:  BRA    3E32
03E4E:  RETURN 0
*
05DCA:  MOVLW  01
05DCC:  MOVLB  4
05DCE:  SUBWF  x46,F
05DD0:  BNC   5DEA
05DD2:  MOVLW  04
05DD4:  MOVWF  FEA
05DD6:  MOVLW  46
05DD8:  MOVWF  FE9
05DDA:  MOVF   FEF,W
05DDC:  BZ    5DEA
05DDE:  MOVLW  04
05DE0:  MOVWF  00
05DE2:  DECFSZ 00,F
05DE4:  BRA    5DE2
05DE6:  DECFSZ FEF,F
05DE8:  BRA    5DDE
05DEA:  MOVLB  0
05DEC:  GOTO   5E10 (RETURN)
.................... #use rs232(baud=19200,xmit=PIN_C6,rcv=PIN_C7,parity=N,bits=8,stream=c1,ERRORS)//main connect. 
*
03874:  BTFSS  F9E.5
03876:  BRA    3874
03878:  MOVFF  FAB,1F
0387C:  MOVFF  FAE,01
03880:  BTFSS  1F.1
03882:  BRA    3888
03884:  BCF    FAB.4
03886:  BSF    FAB.4
03888:  GOTO   38A8 (RETURN)
.................... //#use rs232(baud=19200,xmit=PIN_D6,rcv=PIN_D7,parity=N,bits=8,stream=c2,ERRORS)// 
.................... #use i2c(MASTER, SDA=PIN_C4, SCL=PIN_C3,SLOW,FORCE_HW)//FAST=400kbps SLOW=100kbps  
....................  
.................... // 
.................... //VXeW 
.................... char ver[]="202005240517"; 
.................... //char ver[]="201910311211"; 
.................... int cpu_startup_case = 0; 
.................... //tbJ[W 
.................... int flicker_10 = 0,		flicker_10_one = 0; 
.................... int flicker_100 = 0,	flicker_100_one = 0; 
.................... int flicker_500 = 0,	flicker_500_one = 0; 
.................... int flicker_1000 = 0,	flicker_1000_one = 0; 
.................... long counttimer1 = 0; 
.................... long counttimer2 = 0; 
.................... long counttimer3 = 0; 
.................... long counttimer4 = 0; 
.................... //int output_process_one = 0; 
.................... int lcd_process_one = 0; 
.................... int rtc_process_one = 0; 
.................... int input_process_one = 0; 
.................... int servo_process_one = 0; 
.................... int illumiled_process_one = 0; 
....................  
.................... //AiOvW 
.................... int analog_index = 0; 
.................... long analog_value[2] = {0,0}; 
....................  
.................... //fW^W 
.................... int ra0 = 0,ra1 = 0,ra2 = 0,ra3 = 0,ra4 = 0,ra5 = 0,ra6 = 0,ra7 = 0; 
.................... //int ra0_re = 0,ra1_re = 0,ra2_re = 0,ra3_re = 0,ra4_re = 0,ra5_re = 0,ra6_re = 0,ra7_re = 0; 
.................... int rb0 = 0,rb1 = 0,rb2 = 0,rb3 = 0,rb4 = 0,rb5 = 0;//,rb6 = 0,rb7 = 0; 
.................... //int rb0_re = 0,rb1_re = 0,rb2_re = 0,rb3_re = 0,rb4_re = 0,rb5_re = 0;//,rb6_re = 0,rb7_re = 0; 
.................... long re0 = 0,re1 = 0; 
.................... int sw1 = 0,sw1_re = 0,sw2 = 0,sw2_re = 0,sw3 = 0,sw3_re = 0,sw4 = 0,sw4_re = 0; 
.................... long sw1_count_longpress = 0;//XCb`JEg 
....................  
.................... //VAW 
.................... char punctuate[] = ",";//VA 
.................... int get_command_value_c1 = 0; 
.................... char get_command_c1[160] = { 
.................... 	0x0,0x0,0x0,0x0,0x0,0x0,0x0,0x0,0x0,0x0, 
.................... 	0x0,0x0,0x0,0x0,0x0,0x0,0x0,0x0,0x0,0x0, 
.................... 	0x0,0x0,0x0,0x0,0x0,0x0,0x0,0x0,0x0,0x0, 
.................... 	0x0,0x0,0x0,0x0,0x0,0x0,0x0,0x0,0x0,0x0, 
.................... 	0x0,0x0,0x0,0x0,0x0,0x0,0x0,0x0,0x0,0x0, 
.................... 	0x0,0x0,0x0,0x0,0x0,0x0,0x0,0x0,0x0,0x0, 
.................... 	0x0,0x0,0x0,0x0,0x0,0x0,0x0,0x0,0x0,0x0, 
.................... 	0x0,0x0,0x0,0x0,0x0,0x0,0x0,0x0,0x0,0x0, 
.................... 	0x0,0x0,0x0,0x0,0x0,0x0,0x0,0x0,0x0,0x0, 
.................... 	0x0,0x0,0x0,0x0,0x0,0x0,0x0,0x0,0x0,0x0, 
.................... 	0x0,0x0,0x0,0x0,0x0,0x0,0x0,0x0,0x0,0x0, 
.................... 	0x0,0x0,0x0,0x0,0x0,0x0,0x0,0x0,0x0,0x0, 
.................... 	0x0,0x0,0x0,0x0,0x0,0x0,0x0,0x0,0x0,0x0, 
.................... 	0x0,0x0,0x0,0x0,0x0,0x0,0x0,0x0,0x0,0x0, 
.................... 	0x0,0x0,0x0,0x0,0x0,0x0,0x0,0x0,0x0,0x0, 
.................... 	0x0,0x0,0x0,0x0,0x0,0x0,0x0,0x0,0x0,0x0};//MR}h 
.................... char compare_command_c1[10] = {0x0,0x0,0x0,0x0,0x0,0x0,0x0,0x0,0x0,0x0}; 
.................... //int get_command_value_c2 = 0; 
.................... //char get_command_c2[10] = {0x0,0x0,0x0,0x0,0x0,0x0,0x0,0x0,0x0,0x0}; 
.................... //char compare_command_c2[10] = {0x0,0x0,0x0,0x0,0x0,0x0,0x0,0x0,0x0,0x0}; 
....................  
.................... // 
.................... long mode = 10; 
.................... //long mode_test = 0; 
.................... //long lcd_mode = 10; 
.................... //int lcd_row = 0; 
.................... long cursor_index = 0; 
.................... //int step = 0; 
.................... int step_one = 0; 
.................... //long step_count = 0; 
.................... int servo_angle = 0; 
.................... int servo_target_angle = 0; 
.................... int servo_step_angle = 0; 
.................... int servo_turn = 0; 
.................... int servo_position = 0; 
.................... int servo_start = 0; 
.................... long servo_time = 0; 
.................... int servo_rotation = 0; 
.................... //int32 test_val = 0; 
.................... //long step = 0;//CXebv 
.................... //int led_index = 0; 
.................... long timer0_value = 0; 
.................... int life_index = 0; 
.................... char life_char[] = "/-_."; 
.................... //int mode = 10; 
.................... //int weight = 0; 
.................... //long return_count = 0; 
....................  
.................... // 
.................... void startup(); 
.................... void serial_process1(); 
.................... void serial_process2(); 
.................... void input_process(); 
.................... void output_process(); 
.................... void sw_process(); 
.................... void modeselect_process(); 
.................... void modeselect_lcd_process(); 
.................... void hardwareinfo_process(); 
.................... void hardwareinfo_lcd_process(); 
.................... void io_process(); 
.................... void io_lcd_process(); 
.................... void illumiled_process(); 
.................... void illumiled_lcd_process(); 
.................... void lcd_process(); 
.................... void servo_process(); 
.................... void uart_process(); 
.................... void graphic_process(); 
....................  
.................... void save_mode(long save_mode); 
....................  
.................... //`FbNOK 
.................... #include "process_rtc.c"//gpt@CgpW[CuLB 
.................... int sec     = 0x00;//0x00-0x59 
.................... int min     = 0x00;//0x00-0x59 
.................... int hour    = 0x00;//0x00-0x23 
.................... unsigned char week    = 0x01;//SUN=0x01,MON=0x02,TUE=0x04,WED=0x08,THU=0x10,FRI=0x20,SAT=0x40 
.................... unsigned char day     = 0x01;//0x00-0x28`0x31) 
.................... unsigned char month   = 0x01;//JUN=0x01,FEB=0x02,MAR=0x03,APR=0x04,MAY=0x05,JUN=0x06,JLY=0x07,AUG=0x08,SEP=0x09,OCT=0x10,NOV=0x11,DEC=0x12 
.................... unsigned char year    = 0x19;//0x00-0x99 
....................  
.................... //void rtc_date_set(); 
.................... //void rtc_date_read(); 
.................... int bcd2i(int bcd); 
.................... int i2bcd(int i); 
.................... char week2index(int i); 
.................... char index2week(int i); 
....................  
.................... #include "rx8900.c"//RTC(v) EPSON RX8900 
.................... #define RX8900A_ADRS 0x64//0x64(8bit address),0x32(7bit address) 
....................  
.................... void rtc_date_set() 
.................... { 
....................     i2c_start(); 
....................     i2c_write(RX8900A_ADRS); // [h 
....................     i2c_write(0x00); // bAhX 
....................     i2c_write(sec);  // bl 0-59 
....................     i2c_write(min);  // l 0-59 
....................     i2c_write(hour); // l 0-23 
....................     i2c_write(week); // jl y 0123456 5bitDon't Car 
....................     i2c_write(day);  // l 1-31 
....................     i2c_write(month);// l (C:MSB)1-12   C121I 
....................     i2c_write(year); // Nl 00-99 
....................     i2c_stop(); 
.................... } 
....................  
.................... void rtc_date_read(){ 
....................  
.................... 	//X^[gRfBVs 
.................... 	i2c_start(); 
.................... 	//LCDAhX 
.................... 	i2c_write(RX8900A_ADRS); 
.................... 	// data byte M 
.................... 	i2c_write(0x00);//bAhX 
.................... 	// 
.................... 	i2c_start(); 
.................... 	i2c_write(RX8900A_ADRS+1); 
.................... 	sec = i2c_read(1);					//0x00 
.................... 	min = i2c_read(1);					//0x01 
.................... 	hour = i2c_read(1);					//0x02 
.................... 	WEEK = i2c_read(1);					//0x03 
.................... 	day = i2c_read(1);					//0x04 
.................... 	month = i2c_read(1);				//0x05 
.................... 	year = i2c_read(0);					//0x06 
.................... 	// XgbvRfBVs 
.................... 	i2c_stop(); 
....................  
.................... } 
....................  
.................... //int bcd2dec(int bcd){ 
.................... //	return 0; 
.................... //} 
....................  
....................  
.................... void rtc_process(){ 
.................... 	int tmp1 = 0; 
.................... 	int tmp_sw1_true = 0,tmp_sw2_true = 0,tmp_sw3_true = 0,tmp_sw4_true = 0; 
....................  
.................... 	//[hZNg\ 
.................... 	//lcd_mode = 500; 
....................  
.................... 	//XCb` 
.................... 	if(sw1_re != sw1 && sw1 == 0){	tmp_sw1_true = 1;}	sw1_re = sw1; 
.................... 	if(sw2_re != sw2 && sw2 == 0){	tmp_sw2_true = 1;}	sw2_re = sw2; 
.................... 	if(sw3_re != sw3 && sw3 == 0){	tmp_sw3_true = 1;}	sw3_re = sw3; 
.................... 	if(sw4_re != sw4 && sw4 == 0){	tmp_sw4_true = 1;}	sw4_re = sw4; 
....................  
.................... 	if(mode == 500){ 
.................... 		//v 
.................... 		if(rtc_process_one != 0){rtc_process_one = 0; 
.................... 			rtc_date_read();// 
.................... 		} 
....................  
.................... 		//enter 
.................... 		if(tmp_sw1_true != 0){tmp_sw1_true = 0; 
.................... 			mode = 501;	//lcd_mode = mode; 
.................... 		} 
.................... 	}else if(mode == 501){ 
.................... 		//NC 
.................... 		if(tmp_sw3_true != 0){	tmp_sw3_true = 0; 
.................... 			//UP 
.................... 			tmp1 = bcd2i(year); 
.................... 			if(tmp1 == 99){	tmp1 = 0;	}else{	tmp1++;	} 
.................... 			year = i2bcd(tmp1); 
.................... 		} 
.................... 		if(tmp_sw4_true != 0){	tmp_sw4_true = 0; 
.................... 			//DOWN 
.................... 			year = i2bcd(bcd2i(year)-1); 
.................... 		} 
.................... 		 
.................... 		//enter 
.................... 		if(tmp_sw1_true != 0){tmp_sw1_true = 0; 
.................... 			mode = 502;	//lcd_mode = mode; 
.................... 		} 
.................... 	}else if(mode == 502){ 
.................... 		//C 
.................... 		if(tmp_sw3_true != 0){	tmp_sw3_true = 0; 
.................... 			//UP 
.................... 			tmp1 = bcd2i(month); 
.................... 			if(tmp1 >= 12){	tmp1 = 1;	}else{	tmp1++;	} 
.................... 			month = i2bcd(tmp1); 
.................... 		} 
.................... 		if(tmp_sw4_true != 0){	tmp_sw4_true = 0; 
.................... 			//DOWN 
.................... 			tmp1 = bcd2i(month); 
.................... 			if(tmp1 <= 1){	tmp1 = 12;	}else{	tmp1--;	} 
.................... 			month = i2bcd(tmp1); 
.................... 		} 
.................... 		 
.................... 		//enter 
.................... 		if(tmp_sw1_true != 0){tmp_sw1_true = 0; 
.................... 			mode = 503;	//lcd_mode = mode; 
.................... 		} 
.................... 	}else if(mode == 503){ 
.................... 		//C 
.................... 		if(tmp_sw3_true != 0){	tmp_sw3_true = 0; 
.................... 			//UP 
.................... 			tmp1 = bcd2i(day); 
.................... 			if(tmp1 >= 31){	tmp1 = 1;	}else{	tmp1++;	} 
.................... 			day = i2bcd(tmp1); 
.................... 		} 
.................... 		if(tmp_sw4_true != 0){	tmp_sw4_true = 0; 
.................... 			//DOWN 
.................... 			tmp1 = bcd2i(day); 
.................... 			if(tmp1 <= 1){	tmp1 = 31;	}else{	tmp1--;	} 
.................... 			day = i2bcd(tmp1); 
.................... 		} 
.................... 		 
.................... 		//enter 
.................... 		if(tmp_sw1_true != 0){tmp_sw1_true = 0; 
.................... 			mode = 504;	//lcd_mode = mode; 
.................... 		} 
.................... 	}else if(mode == 504){ 
.................... 		//j 
.................... 		if(tmp_sw3_true != 0){	tmp_sw3_true = 0; 
.................... 			//UP 
.................... 			tmp1 = week2index(week); 
.................... 			if(tmp1 >= 6){	tmp1 = 0;	}else{	tmp1++;	} 
.................... 			week = index2week(tmp1); 
.................... 		} 
.................... 		if(tmp_sw4_true != 0){	tmp_sw4_true = 0; 
.................... 			//DOWN 
.................... 			tmp1 = week2index(week); 
.................... 			if(tmp1 <= 0){	tmp1 = 6;	}else{	tmp1--;	} 
.................... 			week = index2week(tmp1); 
.................... 		} 
.................... 		//enter 
.................... 		if(tmp_sw1_true != 0){tmp_sw1_true = 0; 
.................... 			mode = 505;	//lcd_mode = mode; 
.................... 		} 
.................... 	}else if(mode == 505){ 
.................... 		//C 
.................... 		if(tmp_sw3_true != 0){	tmp_sw3_true = 0; 
.................... 			//UP 
.................... 			tmp1 = bcd2i(hour); 
.................... 			if(tmp1 >= 23){	tmp1 = 0;	}else{	tmp1++;	} 
.................... 			hour = i2bcd(tmp1); 
.................... 		} 
.................... 		if(tmp_sw4_true != 0){	tmp_sw4_true = 0; 
.................... 			//DOWN 
.................... 			tmp1 = bcd2i(hour); 
.................... 			if(tmp1 <= 0){	tmp1 = 23;	}else{	tmp1--;	} 
.................... 			hour = i2bcd(tmp1); 
.................... 		} 
.................... 		 
.................... 		//enter 
.................... 		if(tmp_sw1_true != 0){tmp_sw1_true = 0; 
.................... 			mode = 506;	//lcd_mode = mode; 
.................... 		} 
.................... 	}else if(mode == 506){ 
.................... 		//C 
.................... 		if(tmp_sw3_true != 0){	tmp_sw3_true = 0; 
.................... 			//UP 
.................... 			tmp1 = bcd2i(min); 
.................... 			if(tmp1 >= 59){	tmp1 = 0;	}else{	tmp1++;	} 
.................... 			min = i2bcd(tmp1); 
.................... 		} 
.................... 		if(tmp_sw4_true != 0){	tmp_sw4_true = 0; 
.................... 			//DOWN 
.................... 			tmp1 = bcd2i(min); 
.................... 			if(tmp1 <= 0){	tmp1 = 59;	}else{	tmp1--;	} 
.................... 			min = i2bcd(tmp1); 
.................... 		} 
.................... 		 
.................... 		//enter 
.................... 		if(tmp_sw1_true != 0){tmp_sw1_true = 0; 
.................... 			mode = 507;//	lcd_mode = mode; 
.................... 		} 
.................... 	}else if(mode == 507){ 
.................... 		//bC 
.................... 		if(tmp_sw3_true != 0){	tmp_sw3_true = 0; 
.................... 			//UP 
.................... 			tmp1 = bcd2i(sec); 
.................... 			if(tmp1 >= 59){	tmp1 = 0;	}else{	tmp1++;	} 
.................... 			sec = i2bcd(tmp1); 
.................... 		} 
.................... 		if(tmp_sw4_true != 0){	tmp_sw4_true = 0; 
.................... 			//DOWN 
.................... 			tmp1 = bcd2i(sec); 
.................... 			if(tmp1 <= 0){	tmp1 = 59;	}else{	tmp1--;	} 
.................... 			sec = i2bcd(tmp1); 
.................... 		} 
.................... 		 
.................... 		//enter 
.................... 		if(tmp_sw1_true != 0){tmp_sw1_true = 0; 
.................... 			mode = 510;	//lcd_mode = mode; 
.................... 		} 
.................... 	}else if(mode == 510){ 
.................... 		//XVmF 
....................  
.................... 		//enter 
.................... 		if(tmp_sw1_true != 0){tmp_sw1_true = 0; 
.................... 			rtc_date_set();// 
.................... 			mode = 500;	//lcd_mode = mode; 
.................... 		} 
.................... 		//cancel 
.................... 		if(tmp_sw2_true != 0){tmp_sw2_true = 0; 
.................... 			mode = 500;	//lcd_mode = mode; 
.................... 		} 
.................... 	} 
....................  
.................... 	//cansel 
.................... 	if(tmp_sw2_true != 0){tmp_sw2_true = 0; 
.................... 		mode = 10; 
.................... 		//lcd_mode = mode; 
.................... 		cursor_index = 5; 
.................... 	} 
.................... } 
....................  
.................... //10i16i\L10i :0x1919 
.................... int bcd2i(int bcd){	return (((bcd - (bcd % 16))/16)*10)+(bcd % 16);} 
....................  
.................... //10i16i\L10i :190x19 
.................... int i2bcd(int i){return (((i - (i % 10))/10)*16)+(i % 10);} 
.................... //jCfbNX 
.................... char week2index(int i){ 
.................... 	int tmp1 = 0; 
....................  
.................... 	if(i == 0x01){			tmp1 = 0; 
.................... 	}else if(i == 0x02){	tmp1 = 1; 
.................... 	}else if(i == 0x04){	tmp1 = 2; 
.................... 	}else if(i == 0x08){	tmp1 = 3; 
.................... 	}else if(i == 0x10){	tmp1 = 4; 
.................... 	}else if(i == 0x20){	tmp1 = 5; 
.................... 	}else if(i == 0x40){	tmp1 = 6; 
.................... 	}else{					tmp1 = 7; 
.................... 	} 
.................... 	return tmp1; 
.................... } 
.................... //jCfbNX 
.................... char index2week(int i){ 
.................... 	int tmp1 = 0; 
....................  
.................... 	if(i == 0){			tmp1 = 0x01; 
.................... 	}else if(i == 1){	tmp1 = 0x02; 
.................... 	}else if(i == 2){	tmp1 = 0x04; 
.................... 	}else if(i == 3){	tmp1 = 0x08; 
.................... 	}else if(i == 4){	tmp1 = 0x10; 
.................... 	}else if(i == 5){	tmp1 = 0x20; 
.................... 	}else if(i == 6){	tmp1 = 0x40; 
.................... 	}else{				tmp1 = 0x01; 
.................... 	} 
.................... 	return tmp1; 
.................... } 
....................  
.................... #include "process_illumiled.c"//gpt@CgpW[CuLB 
.................... int Illumi_color_set = 0; 
.................... int Illumi_mode_set = 0; 
.................... int Illumi_speed = 1; 
.................... int Illumi_signaltype = 0;//0=rgb,1=grb 
.................... int Illumi_timing = 0;//^C~Op^[ 
.................... int Illumi_brightness = 100;// 
....................  
.................... //#include "ws281x(64).c"//VAMLED ws281x 
.................... #include "ws281x(256).c"//VAMLED ws281x 
.................... #define LED_OUT    PIN_A6 
....................  
.................... #include "led_pattern(256).c"//p^[l 
.................... //\[XuJ[e[u_255LED_10p^[ .xlsxvgpB								 
.................... //RED								 
.................... const int ws281x_color_r[10][256] = {{								 
.................... 0x00,	0x00,	0x00,	0x00,	0x00,	0x00,	0x00,	0x00,	//0-1 
.................... 0x00,	0x00,	0x00,	0x00,	0x00,	0x00,	0x00,	0x00,	//0-2 
.................... 0x00,	0x00,	0x00,	0x00,	0x00,	0x00,	0x00,	0x00,	//0-3 
.................... 0x00,	0x00,	0x00,	0x00,	0x00,	0x00,	0x00,	0x00,	//0-4 
.................... 0x00,	0x00,	0x00,	0x00,	0x00,	0x00,	0x00,	0x00,	//0-5 
.................... 0x00,	0x00,	0x00,	0x00,	0x00,	0x00,	0x00,	0x00,	//0-6 
.................... 0x00,	0x00,	0x00,	0x00,	0x00,	0x00,	0x00,	0x00,	//0-7 
.................... 0x00,	0x00,	0x00,	0x00,	0x00,	0x00,	0x00,	0x00,	//0-8 
.................... 0x00,	0x00,	0x00,	0x00,	0x00,	0x00,	0x00,	0x00,	//0-9 
.................... 0x00,	0x00,	0x00,	0x00,	0x00,	0x00,	0x00,	0x00,	//0-10 
.................... 0x00,	0x00,	0x00,	0x00,	0x00,	0x00,	0x00,	0x00,	//0-11 
.................... 0x00,	0x00,	0x00,	0x00,	0x00,	0x00,	0x00,	0x00,	//0-12 
.................... 0x00,	0x00,	0x00,	0x00,	0x00,	0x00,	0x00,	0x00,	//0-13 
.................... 0x00,	0x00,	0x00,	0x00,	0x00,	0x00,	0x00,	0x00,	//0-14 
.................... 0x00,	0x00,	0x00,	0x00,	0x00,	0x00,	0x00,	0x00,	//0-15 
.................... 0x00,	0x00,	0x00,	0x00,	0x00,	0x00,	0x00,	0x00,	//0-16 
.................... 0x00,	0x00,	0x00,	0x00,	0x00,	0x00,	0x00,	0x00,	//0-17 
.................... 0x00,	0x00,	0x00,	0x00,	0x00,	0x00,	0x00,	0x00,	//0-18 
.................... 0x00,	0x00,	0x00,	0x00,	0x00,	0x00,	0x00,	0x00,	//0-19 
.................... 0x00,	0x00,	0x00,	0x00,	0x00,	0x00,	0x00,	0x00,	//0-20 
.................... 0x00,	0x00,	0x00,	0x00,	0x00,	0x00,	0x00,	0x00,	//0-21 
.................... 0x00,	0x00,	0x00,	0x00,	0x00,	0x00,	0x00,	0x00,	//0-22 
.................... 0x00,	0x00,	0x00,	0x00,	0x00,	0x00,	0x00,	0x00,	//0-23 
.................... 0x00,	0x00,	0x00,	0x00,	0x00,	0x00,	0x00,	0x00,	//0-24 
.................... 0x00,	0x00,	0x00,	0x00,	0x00,	0x00,	0x00,	0x00,	//0-25 
.................... 0x00,	0x00,	0x00,	0x00,	0x00,	0x00,	0x00,	0x00,	//0-26 
.................... 0x00,	0x00,	0x00,	0x00,	0x00,	0x00,	0x00,	0x00,	//0-27 
.................... 0x00,	0x00,	0x00,	0x00,	0x00,	0x00,	0x00,	0x00,	//0-28 
.................... 0x00,	0x00,	0x00,	0x00,	0x00,	0x00,	0x00,	0x00,	//0-29 
.................... 0x00,	0x00,	0x00,	0x00,	0x00,	0x00,	0x00,	0x00,	//0-30 
.................... 0x00,	0x00,	0x00,	0x00,	0x00,	0x00,	0x00,	0x00,	//0-31 
.................... 0x00,	0x00,	0x00,	0x00,	0x00,	0x00,	0x00,	0x00,	//0-32 
.................... },{								 
.................... 0x55,	0x50,	0x4C,	0x47,	0x42,	0x3E,	0x39,	0x34,	//1-1 
.................... 0x30,	0x2B,	0x26,	0x22,	0x1D,	0x18,	0x14,	0xF,	//1-2 
.................... 0xA,	0x06,	0x01,	0x00,	0x00,	0x00,	0x00,	0x00,	//1-3 
.................... 0x00,	0x00,	0x00,	0x00,	0x00,	0x00,	0x00,	0x00,	//1-4 
.................... 0x00,	0x00,	0x00,	0x00,	0x00,	0x00,	0x00,	0x00,	//1-5 
.................... 0x00,	0x05,	0x09,	0xE,	0x13,	0x17,	0x1C,	0x21,	//1-6 
.................... 0x25,	0x2A,	0x2F,	0x33,	0x38,	0x3D,	0x41,	0x46,	//1-7 
.................... 0x4B,	0x4F,	0x54,	0x54,	0x54,	0x54,	0x54,	0x55,	//1-8 
.................... 0x55,	0x50,	0x4C,	0x47,	0x42,	0x3E,	0x39,	0x34,	//1-9 
.................... 0x30,	0x2B,	0x26,	0x22,	0x1D,	0x18,	0x14,	0xF,	//1-10 
.................... 0xA,	0x06,	0x01,	0x00,	0x00,	0x00,	0x00,	0x00,	//1-11 
.................... 0x00,	0x00,	0x00,	0x00,	0x00,	0x00,	0x00,	0x00,	//1-12 
.................... 0x00,	0x00,	0x00,	0x00,	0x00,	0x00,	0x00,	0x00,	//1-13 
.................... 0x00,	0x05,	0x09,	0xE,	0x13,	0x17,	0x1C,	0x21,	//1-14 
.................... 0x25,	0x2A,	0x2F,	0x33,	0x38,	0x3D,	0x41,	0x46,	//1-15 
.................... 0x4B,	0x4F,	0x54,	0x54,	0x54,	0x54,	0x54,	0x55,	//1-16 
.................... 0x55,	0x50,	0x4C,	0x47,	0x42,	0x3E,	0x39,	0x34,	//1-17 
.................... 0x30,	0x2B,	0x26,	0x22,	0x1D,	0x18,	0x14,	0xF,	//1-18 
.................... 0xA,	0x06,	0x01,	0x00,	0x00,	0x00,	0x00,	0x00,	//1-19 
.................... 0x00,	0x00,	0x00,	0x00,	0x00,	0x00,	0x00,	0x00,	//1-20 
.................... 0x00,	0x00,	0x00,	0x00,	0x00,	0x00,	0x00,	0x00,	//1-21 
.................... 0x00,	0x05,	0x09,	0xE,	0x13,	0x17,	0x1C,	0x21,	//1-22 
.................... 0x25,	0x2A,	0x2F,	0x33,	0x38,	0x3D,	0x41,	0x46,	//1-23 
.................... 0x4B,	0x4F,	0x54,	0x54,	0x54,	0x54,	0x54,	0x55,	//1-24 
.................... 0x55,	0x50,	0x4C,	0x47,	0x42,	0x3E,	0x39,	0x34,	//1-25 
.................... 0x30,	0x2B,	0x26,	0x22,	0x1D,	0x18,	0x14,	0xF,	//1-26 
.................... 0xA,	0x06,	0x01,	0x00,	0x00,	0x00,	0x00,	0x00,	//1-27 
.................... 0x00,	0x00,	0x00,	0x00,	0x00,	0x00,	0x00,	0x00,	//1-28 
.................... 0x00,	0x00,	0x00,	0x00,	0x00,	0x00,	0x00,	0x00,	//1-29 
.................... 0x00,	0x05,	0x09,	0xE,	0x13,	0x17,	0x1C,	0x21,	//1-30 
.................... 0x25,	0x2A,	0x2F,	0x33,	0x38,	0x3D,	0x41,	0x46,	//1-31 
.................... 0x4B,	0x4F,	0x54,	0x54,	0x54,	0x54,	0x54,	0x54,	//1-32 
.................... },{								 
.................... 0xFF,	0xF9,	0xF3,	0xED,	0xE7,	0xE1,	0xDB,	0xD5,	//2-1 
.................... 0xCF,	0xC9,	0xC3,	0xBD,	0xB7,	0xB1,	0xAB,	0xA5,	//2-2 
.................... 0x9F,	0x99,	0x93,	0x8D,	0x87,	0x81,	0x7B,	0x75,	//2-3 
.................... 0x6F,	0x69,	0x63,	0x5D,	0x57,	0x51,	0x4B,	0x45,	//2-4 
.................... 0x3F,	0x39,	0x33,	0x2D,	0x27,	0x21,	0x1B,	0x15,	//2-5 
.................... 0xF,	0x09,	0x03,	0x00,	0x00,	0x00,	0x00,	0x00,	//2-6 
.................... 0x00,	0x00,	0x00,	0x00,	0x00,	0x00,	0x00,	0x00,	//2-7 
.................... 0x00,	0x00,	0x00,	0x00,	0x00,	0x00,	0x00,	0x00,	//2-8 
.................... 0x00,	0x00,	0x00,	0x00,	0x00,	0x00,	0x00,	0x00,	//2-9 
.................... 0x00,	0x00,	0x00,	0x00,	0x00,	0x00,	0x00,	0x00,	//2-10 
.................... 0x00,	0x00,	0x00,	0x00,	0x00,	0x00,	0x00,	0x00,	//2-11 
.................... 0x00,	0x00,	0x00,	0x00,	0x00,	0x00,	0x00,	0x00,	//2-12 
.................... 0x00,	0x00,	0x00,	0x00,	0x00,	0x00,	0x00,	0x00,	//2-13 
.................... 0x00,	0x00,	0x00,	0x00,	0x00,	0x00,	0x00,	0x00,	//2-14 
.................... 0x00,	0x00,	0x00,	0x00,	0x00,	0x00,	0x00,	0x00,	//2-15 
.................... 0x00,	0x00,	0x00,	0x00,	0x00,	0x00,	0x00,	0x00,	//2-16 
.................... 0x00,	0x00,	0x00,	0x00,	0x00,	0x00,	0x00,	0x00,	//2-17 
.................... 0x00,	0x00,	0x00,	0x00,	0x00,	0x00,	0x00,	0x00,	//2-18 
.................... 0x00,	0x00,	0x00,	0x00,	0x00,	0x00,	0x00,	0x00,	//2-19 
.................... 0x00,	0x00,	0x00,	0x00,	0x00,	0x00,	0x00,	0x00,	//2-20 
.................... 0x00,	0x00,	0x00,	0x00,	0x00,	0x00,	0x00,	0x00,	//2-21 
.................... 0x00,	0x00,	0x00,	0x00,	0x00,	0x00,	0x00,	0x00,	//2-22 
.................... 0x00,	0x00,	0x00,	0x00,	0x00,	0x00,	0x00,	0x00,	//2-23 
.................... 0x00,	0x00,	0x00,	0x00,	0x00,	0x00,	0x00,	0x00,	//2-24 
.................... 0x00,	0x00,	0x00,	0x00,	0x00,	0x00,	0x00,	0x00,	//2-25 
.................... 0x00,	0x00,	0x00,	0x00,	0x00,	0x00,	0x00,	0x00,	//2-26 
.................... 0x00,	0x00,	0x00,	0x00,	0x00,	0x03,	0x09,	0xF,	//2-27 
.................... 0x15,	0x1B,	0x21,	0x27,	0x2D,	0x33,	0x39,	0x3F,	//2-28 
.................... 0x45,	0x4B,	0x51,	0x57,	0x5D,	0x63,	0x69,	0x6F,	//2-29 
.................... 0x75,	0x7B,	0x81,	0x87,	0x8D,	0x93,	0x99,	0x9F,	//2-30 
.................... 0xA5,	0xAB,	0xB1,	0xB7,	0xBD,	0xC3,	0xC9,	0xCF,	//2-31 
.................... 0xD5,	0xDB,	0xE1,	0xE7,	0xED,	0xF3,	0xF9,	0xFF,	//2-32 
.................... },{								 
.................... 0xFF,	0xFC,	0xF9,	0xF6,	0xF3,	0xF0,	0xED,	0xEA,	//3-1 
.................... 0xE7,	0xE4,	0xE1,	0xDE,	0xDB,	0xD8,	0xD5,	0xD2,	//3-2 
.................... 0xCF,	0xCC,	0xC9,	0xC6,	0xC3,	0xC0,	0xBD,	0xBA,	//3-3 
.................... 0xB7,	0xB4,	0xB1,	0xAE,	0xAB,	0xA8,	0xA5,	0xA2,	//3-4 
.................... 0x9F,	0x9C,	0x99,	0x96,	0x93,	0x90,	0x8D,	0x8A,	//3-5 
.................... 0x87,	0x84,	0x81,	0x7E,	0x7B,	0x78,	0x75,	0x72,	//3-6 
.................... 0x6F,	0x6C,	0x69,	0x66,	0x63,	0x60,	0x5D,	0x5A,	//3-7 
.................... 0x57,	0x54,	0x51,	0x4E,	0x4B,	0x48,	0x45,	0x42,	//3-8 
.................... 0x3F,	0x3C,	0x39,	0x36,	0x33,	0x30,	0x2D,	0x2A,	//3-9 
.................... 0x27,	0x24,	0x21,	0x1E,	0x1B,	0x18,	0x15,	0x12,	//3-10 
.................... 0xF,	0xC,	0x09,	0x06,	0x03,	0x00,	0x00,	0x00,	//3-11 
.................... 0x00,	0x00,	0x00,	0x00,	0x00,	0x00,	0x00,	0x00,	//3-12 
.................... 0x00,	0x00,	0x00,	0x00,	0x00,	0x00,	0x00,	0x00,	//3-13 
.................... 0x00,	0x00,	0x00,	0x00,	0x00,	0x00,	0x00,	0x00,	//3-14 
.................... 0x00,	0x00,	0x00,	0x00,	0x00,	0x00,	0x00,	0x00,	//3-15 
.................... 0x00,	0x00,	0x00,	0x00,	0x00,	0x00,	0x00,	0x00,	//3-16 
.................... 0x00,	0x00,	0x00,	0x00,	0x00,	0x00,	0x00,	0x00,	//3-17 
.................... 0x00,	0x00,	0x00,	0x00,	0x00,	0x00,	0x00,	0x00,	//3-18 
.................... 0x00,	0x00,	0x00,	0x00,	0x00,	0x00,	0x00,	0x00,	//3-19 
.................... 0x00,	0x00,	0x00,	0x00,	0x00,	0x00,	0x00,	0x00,	//3-20 
.................... 0x00,	0x00,	0x00,	0x00,	0x00,	0x00,	0x00,	0x00,	//3-21 
.................... 0x00,	0x00,	0x00,	0x03,	0x06,	0x09,	0xC,	0xF,	//3-22 
.................... 0x12,	0x15,	0x18,	0x1B,	0x1E,	0x21,	0x24,	0x27,	//3-23 
.................... 0x2A,	0x2D,	0x30,	0x33,	0x36,	0x39,	0x3C,	0x3F,	//3-24 
.................... 0x42,	0x45,	0x48,	0x4B,	0x4E,	0x51,	0x54,	0x57,	//3-25 
.................... 0x5A,	0x5D,	0x60,	0x63,	0x66,	0x69,	0x6C,	0x6F,	//3-26 
.................... 0x72,	0x75,	0x78,	0x7B,	0x7E,	0x81,	0x84,	0x87,	//3-27 
.................... 0x8A,	0x8D,	0x90,	0x93,	0x96,	0x99,	0x9C,	0x9F,	//3-28 
.................... 0xA2,	0xA5,	0xA8,	0xAB,	0xAE,	0xB1,	0xB4,	0xB7,	//3-29 
.................... 0xBA,	0xBD,	0xC0,	0xC3,	0xC6,	0xC9,	0xCC,	0xCF,	//3-30 
.................... 0xD2,	0xD5,	0xD8,	0xDB,	0xDE,	0xE1,	0xE4,	0xE7,	//3-31 
.................... 0xEA,	0xED,	0xF0,	0xF3,	0xF6,	0xF9,	0xFC,	0xFC,	//3-32 
.................... },{								 
.................... 0xFF,	0xFF,	0xFF,	0xFF,	0xFF,	0xFF,	0xFF,	0xFF,	//4-1 
.................... 0xFF,	0xFF,	0xFF,	0xFF,	0xFF,	0xFF,	0xFF,	0xFF,	//4-2 
.................... 0xFF,	0xFF,	0xFF,	0xFF,	0xFF,	0xFF,	0xFF,	0xFF,	//4-3 
.................... 0xFF,	0xFF,	0xFF,	0xFF,	0xFF,	0xFF,	0xFF,	0xFF,	//4-4 
.................... 0xFF,	0xFF,	0xFF,	0xFF,	0xFF,	0xFF,	0xFF,	0xFF,	//4-5 
.................... 0xFF,	0xFF,	0xFF,	0xFF,	0xFF,	0xFF,	0xFF,	0xFF,	//4-6 
.................... 0xFF,	0xFF,	0xFF,	0xFF,	0xFF,	0xFF,	0xFF,	0xFF,	//4-7 
.................... 0xFF,	0xFF,	0xFF,	0xFF,	0xFF,	0xFF,	0xFF,	0xFF,	//4-8 
.................... 0xFF,	0xFF,	0xFF,	0xFF,	0xFF,	0xFF,	0xFF,	0xFF,	//4-9 
.................... 0xFF,	0xFF,	0xFF,	0xFF,	0xFF,	0xFF,	0xFF,	0xFF,	//4-10 
.................... 0xFF,	0xFF,	0xFF,	0xFF,	0xFF,	0xFF,	0xFF,	0xFF,	//4-11 
.................... 0xFF,	0xFF,	0xFF,	0xFF,	0xFF,	0xFF,	0xFF,	0xFF,	//4-12 
.................... 0xFF,	0xFF,	0xFF,	0xFF,	0xFF,	0xFF,	0xFF,	0xFF,	//4-13 
.................... 0xFF,	0xFF,	0xFF,	0xFF,	0xFF,	0xFF,	0xFF,	0xFF,	//4-14 
.................... 0xFF,	0xFF,	0xFF,	0xFF,	0xFF,	0xFF,	0xFF,	0xFF,	//4-15 
.................... 0xFF,	0xFF,	0xFF,	0xFF,	0xFF,	0xFF,	0xFF,	0xFF,	//4-16 
.................... 0xFF,	0xFF,	0xFF,	0xFF,	0xFF,	0xFF,	0xFF,	0xFF,	//4-17 
.................... 0xFF,	0xFF,	0xFF,	0xFF,	0xFF,	0xFF,	0xFF,	0xFF,	//4-18 
.................... 0xFF,	0xFF,	0xFF,	0xFF,	0xFF,	0xFF,	0xFF,	0xFF,	//4-19 
.................... 0xFF,	0xFF,	0xFF,	0xFF,	0xFF,	0xFF,	0xFF,	0xFF,	//4-20 
.................... 0xFF,	0xFF,	0xFF,	0xFF,	0xFF,	0xFF,	0xFF,	0xFF,	//4-21 
.................... 0xFF,	0xFF,	0xFF,	0xFF,	0xFF,	0xFF,	0xFF,	0xFF,	//4-22 
.................... 0xFF,	0xFF,	0xFF,	0xFF,	0xFF,	0xFF,	0xFF,	0xFF,	//4-23 
.................... 0xFF,	0xFF,	0xFF,	0xFF,	0xFF,	0xFF,	0xFF,	0xFF,	//4-24 
.................... 0xFF,	0xFF,	0xFF,	0xFF,	0xFF,	0xFF,	0xFF,	0xFF,	//4-25 
.................... 0xFF,	0xFF,	0xFF,	0xFF,	0xFF,	0xFF,	0xFF,	0xFF,	//4-26 
.................... 0xFF,	0xFF,	0xFF,	0xFF,	0xFF,	0xFF,	0xFF,	0xFF,	//4-27 
.................... 0xFF,	0xFF,	0xFF,	0xFF,	0xFF,	0xFF,	0xFF,	0xFF,	//4-28 
.................... 0xFF,	0xFF,	0xFF,	0xFF,	0xFF,	0xFF,	0xFF,	0xFF,	//4-29 
.................... 0xFF,	0xFF,	0xFF,	0xFF,	0xFF,	0xFF,	0xFF,	0xFF,	//4-30 
.................... 0xFF,	0xFF,	0xFF,	0xFF,	0xFF,	0xFF,	0xFF,	0xFF,	//4-31 
.................... 0xFF,	0xFF,	0xFF,	0xFF,	0xFF,	0xFF,	0xFF,	0xFF,	//4-32 
.................... },{								 
.................... 0x00,	0x00,	0x00,	0x00,	0x00,	0x00,	0x00,	0x00,	//5-1 
.................... 0x00,	0x00,	0x00,	0x00,	0x00,	0x00,	0x00,	0x00,	//5-2 
.................... 0x00,	0x00,	0x00,	0x00,	0x00,	0x00,	0x00,	0x00,	//5-3 
.................... 0x00,	0x00,	0x00,	0x00,	0x00,	0x00,	0x00,	0x00,	//5-4 
.................... 0x00,	0x00,	0x00,	0x00,	0x00,	0x00,	0x00,	0x00,	//5-5 
.................... 0x00,	0x00,	0x00,	0x00,	0x00,	0x00,	0x00,	0x00,	//5-6 
.................... 0x00,	0x00,	0x00,	0x00,	0x00,	0x00,	0x00,	0x00,	//5-7 
.................... 0x00,	0x00,	0x00,	0x00,	0x00,	0x00,	0x00,	0x00,	//5-8 
.................... 0x00,	0x00,	0x00,	0x00,	0x00,	0x00,	0x00,	0x00,	//5-9 
.................... 0x00,	0x00,	0x00,	0x00,	0x00,	0x00,	0x00,	0x00,	//5-10 
.................... 0x00,	0x00,	0x00,	0x00,	0x00,	0x00,	0x00,	0x00,	//5-11 
.................... 0x00,	0x00,	0x00,	0x00,	0x00,	0x00,	0x00,	0x00,	//5-12 
.................... 0x00,	0x00,	0x00,	0x00,	0x00,	0x00,	0x00,	0x00,	//5-13 
.................... 0x00,	0x00,	0x00,	0x00,	0x00,	0x00,	0x00,	0x00,	//5-14 
.................... 0x00,	0x00,	0x00,	0x00,	0x00,	0x00,	0x00,	0x00,	//5-15 
.................... 0x00,	0x00,	0x00,	0x00,	0x00,	0x00,	0x00,	0x00,	//5-16 
.................... 0x00,	0x00,	0x00,	0x00,	0x00,	0x00,	0x00,	0x00,	//5-17 
.................... 0x00,	0x00,	0x00,	0x00,	0x00,	0x00,	0x00,	0x00,	//5-18 
.................... 0x00,	0x00,	0x00,	0x00,	0x00,	0x00,	0x00,	0x00,	//5-19 
.................... 0x00,	0x00,	0x00,	0x00,	0x00,	0x00,	0x00,	0x00,	//5-20 
.................... 0x00,	0x00,	0x00,	0x00,	0x00,	0x00,	0x00,	0x00,	//5-21 
.................... 0x00,	0x00,	0x00,	0x00,	0x00,	0x00,	0x00,	0x00,	//5-22 
.................... 0x00,	0x00,	0x00,	0x00,	0x00,	0x00,	0x00,	0x00,	//5-23 
.................... 0x00,	0x00,	0x00,	0x00,	0x00,	0x00,	0x00,	0x00,	//5-24 
.................... 0x00,	0x00,	0x00,	0x00,	0x00,	0x00,	0x00,	0x00,	//5-25 
.................... 0x00,	0x00,	0x00,	0x00,	0x00,	0x00,	0x00,	0x00,	//5-26 
.................... 0x00,	0x00,	0x00,	0x00,	0x00,	0x00,	0x00,	0x00,	//5-27 
.................... 0x00,	0x00,	0x00,	0x00,	0x00,	0x00,	0x00,	0x00,	//5-28 
.................... 0x00,	0x00,	0x00,	0x00,	0x00,	0x00,	0x00,	0x00,	//5-29 
.................... 0x00,	0x00,	0x00,	0x00,	0x00,	0x00,	0x00,	0x00,	//5-30 
.................... 0x00,	0x00,	0x00,	0x00,	0x00,	0x00,	0x00,	0x00,	//5-31 
.................... 0x00,	0x00,	0x00,	0x00,	0x00,	0x00,	0x00,	0x00,	//5-32 
.................... },{								 
.................... 0x00,	0x00,	0x00,	0x00,	0x00,	0x00,	0x00,	0x00,	//6-1 
.................... 0x00,	0x00,	0x00,	0x00,	0x00,	0x00,	0x00,	0x00,	//6-2 
.................... 0x00,	0x00,	0x00,	0x00,	0x00,	0x00,	0x00,	0x00,	//6-3 
.................... 0x00,	0x00,	0x00,	0x00,	0x00,	0x00,	0x00,	0x00,	//6-4 
.................... 0x00,	0x00,	0x00,	0x00,	0x00,	0x00,	0x00,	0x00,	//6-5 
.................... 0x00,	0x00,	0x00,	0x00,	0x00,	0x00,	0x00,	0x00,	//6-6 
.................... 0x00,	0x00,	0x00,	0x00,	0x00,	0x00,	0x00,	0x00,	//6-7 
.................... 0x00,	0x00,	0x00,	0x00,	0x00,	0x00,	0x00,	0x00,	//6-8 
.................... 0x00,	0x00,	0x00,	0x00,	0x00,	0x00,	0x00,	0x00,	//6-9 
.................... 0x00,	0x00,	0x00,	0x00,	0x00,	0x00,	0x00,	0x00,	//6-10 
.................... 0x00,	0x00,	0x00,	0x00,	0x00,	0x00,	0x00,	0x00,	//6-11 
.................... 0x00,	0x00,	0x00,	0x00,	0x00,	0x00,	0x00,	0x00,	//6-12 
.................... 0x00,	0x00,	0x00,	0x00,	0x00,	0x00,	0x00,	0x00,	//6-13 
.................... 0x00,	0x00,	0x00,	0x00,	0x00,	0x00,	0x00,	0x00,	//6-14 
.................... 0x00,	0x00,	0x00,	0x00,	0x00,	0x00,	0x00,	0x00,	//6-15 
.................... 0x00,	0x00,	0x00,	0x00,	0x00,	0x00,	0x00,	0x00,	//6-16 
.................... 0x00,	0x00,	0x00,	0x00,	0x00,	0x00,	0x00,	0x00,	//6-17 
.................... 0x00,	0x00,	0x00,	0x00,	0x00,	0x00,	0x00,	0x00,	//6-18 
.................... 0x00,	0x00,	0x00,	0x00,	0x00,	0x00,	0x00,	0x00,	//6-19 
.................... 0x00,	0x00,	0x00,	0x00,	0x00,	0x00,	0x00,	0x00,	//6-20 
.................... 0x00,	0x00,	0x00,	0x00,	0x00,	0x00,	0x00,	0x00,	//6-21 
.................... 0x00,	0x00,	0x00,	0x00,	0x00,	0x00,	0x00,	0x00,	//6-22 
.................... 0x00,	0x00,	0x00,	0x00,	0x00,	0x00,	0x00,	0x00,	//6-23 
.................... 0x00,	0x00,	0x00,	0x00,	0x00,	0x00,	0x00,	0x00,	//6-24 
.................... 0x00,	0x00,	0x00,	0x00,	0x00,	0x00,	0x00,	0x00,	//6-25 
.................... 0x00,	0x00,	0x00,	0x00,	0x00,	0x00,	0x00,	0x00,	//6-26 
.................... 0x00,	0x00,	0x00,	0x00,	0x00,	0x00,	0x00,	0x00,	//6-27 
.................... 0x00,	0x00,	0x00,	0x00,	0x00,	0x00,	0x00,	0x00,	//6-28 
.................... 0x00,	0x00,	0x00,	0x00,	0x00,	0x00,	0x00,	0x00,	//6-29 
.................... 0x00,	0x00,	0x00,	0x00,	0x00,	0x00,	0x00,	0x00,	//6-30 
.................... 0x00,	0x00,	0x00,	0x00,	0x00,	0x00,	0x00,	0x00,	//6-31 
.................... 0x00,	0x00,	0x00,	0x00,	0x00,	0x00,	0x00,	0x00,	//6-32 
.................... },{								 
.................... 0xFF,	0xFF,	0xFF,	0xFF,	0xFF,	0xFF,	0xFF,	0xFF,	//7-1 
.................... 0xFF,	0xFF,	0xFF,	0xFF,	0xFF,	0xFF,	0xFF,	0xFF,	//7-2 
.................... 0xFF,	0xFF,	0xFF,	0xFF,	0xFF,	0xFF,	0xFF,	0xFF,	//7-3 
.................... 0xFF,	0xFF,	0xFF,	0xFF,	0xFF,	0xFF,	0xFF,	0xFF,	//7-4 
.................... 0xFF,	0xFF,	0xFF,	0xFF,	0xFF,	0xFF,	0xFF,	0xFF,	//7-5 
.................... 0xFF,	0xFF,	0xFF,	0xFF,	0xFF,	0xFF,	0xFF,	0xFF,	//7-6 
.................... 0xFF,	0xFF,	0xFF,	0xFF,	0xFF,	0xFF,	0xFF,	0xFF,	//7-7 
.................... 0xFF,	0xFF,	0xFF,	0xFF,	0xFF,	0xFF,	0xFF,	0xFF,	//7-8 
.................... 0xFF,	0xFF,	0xFF,	0xFF,	0xFF,	0xFF,	0xFF,	0xFF,	//7-9 
.................... 0xFF,	0xFF,	0xFF,	0xFF,	0xFF,	0xFF,	0xFF,	0xFF,	//7-10 
.................... 0xFF,	0xFF,	0xFF,	0xFF,	0xFF,	0xFF,	0xFF,	0xFF,	//7-11 
.................... 0xFF,	0xFF,	0xFF,	0xFF,	0xFF,	0xFF,	0xFF,	0xFF,	//7-12 
.................... 0xFF,	0xFF,	0xFF,	0xFF,	0xFF,	0xFF,	0xFF,	0xFF,	//7-13 
.................... 0xFF,	0xFF,	0xFF,	0xFF,	0xFF,	0xFF,	0xFF,	0xFF,	//7-14 
.................... 0xFF,	0xFF,	0xFF,	0xFF,	0xFF,	0xFF,	0xFF,	0xFF,	//7-15 
.................... 0xFF,	0xFF,	0xFF,	0xFF,	0xFF,	0xFF,	0xFF,	0xFF,	//7-16 
.................... 0xFF,	0xFF,	0xFF,	0xFF,	0xFF,	0xFF,	0xFF,	0xFF,	//7-17 
.................... 0xFF,	0xFF,	0xFF,	0xFF,	0xFF,	0xFF,	0xFF,	0xFF,	//7-18 
.................... 0xFF,	0xFF,	0xFF,	0xFF,	0xFF,	0xFF,	0xFF,	0xFF,	//7-19 
.................... 0xFF,	0xFF,	0xFF,	0xFF,	0xFF,	0xFF,	0xFF,	0xFF,	//7-20 
.................... 0xFF,	0xFF,	0xFF,	0xFF,	0xFF,	0xFF,	0xFF,	0xFF,	//7-21 
.................... 0xFF,	0xFF,	0xFF,	0xFF,	0xFF,	0xFF,	0xFF,	0xFF,	//7-22 
.................... 0xFF,	0xFF,	0xFF,	0xFF,	0xFF,	0xFF,	0xFF,	0xFF,	//7-23 
.................... 0xFF,	0xFF,	0xFF,	0xFF,	0xFF,	0xFF,	0xFF,	0xFF,	//7-24 
.................... 0xFF,	0xFF,	0xFF,	0xFF,	0xFF,	0xFF,	0xFF,	0xFF,	//7-25 
.................... 0xFF,	0xFF,	0xFF,	0xFF,	0xFF,	0xFF,	0xFF,	0xFF,	//7-26 
.................... 0xFF,	0xFF,	0xFF,	0xFF,	0xFF,	0xFF,	0xFF,	0xFF,	//7-27 
.................... 0xFF,	0xFF,	0xFF,	0xFF,	0xFF,	0xFF,	0xFF,	0xFF,	//7-28 
.................... 0xFF,	0xFF,	0xFF,	0xFF,	0xFF,	0xFF,	0xFF,	0xFF,	//7-29 
.................... 0xFF,	0xFF,	0xFF,	0xFF,	0xFF,	0xFF,	0xFF,	0xFF,	//7-30 
.................... 0xFF,	0xFF,	0xFF,	0xFF,	0xFF,	0xFF,	0xFF,	0xFF,	//7-31 
.................... 0xFF,	0xFF,	0xFF,	0xFF,	0xFF,	0xFF,	0xFF,	0xFF,	//7-32 
.................... },{								 
.................... 0x00,	0x08,	0x10,	0x18,	0x20,	0x28,	0x30,	0x38,	//8-1 
.................... 0x40,	0x48,	0x50,	0x58,	0x60,	0x68,	0x70,	0x78,	//8-2 
.................... 0x80,	0x88,	0x90,	0x98,	0xA0,	0xA8,	0xB0,	0xB8,	//8-3 
.................... 0xC0,	0xC8,	0xD0,	0xD8,	0xE0,	0xE8,	0xF0,	0xE8,	//8-4 
.................... 0xE0,	0xD8,	0xD0,	0xC8,	0xC0,	0xB8,	0xB0,	0xA8,	//8-5 
.................... 0xA0,	0x98,	0x90,	0x88,	0x80,	0x78,	0x70,	0x68,	//8-6 
.................... 0x60,	0x58,	0x50,	0x48,	0x40,	0x38,	0x30,	0x28,	//8-7 
.................... 0x20,	0x18,	0x10,	0x08,	0x00,	0x08,	0x10,	0x18,	//8-8 
.................... 0x20,	0x28,	0x30,	0x38,	0x40,	0x48,	0x50,	0x58,	//8-9 
.................... 0x60,	0x68,	0x70,	0x78,	0x80,	0x88,	0x90,	0x98,	//8-10 
.................... 0xA0,	0xA8,	0xB0,	0xB8,	0xC0,	0xC8,	0xD0,	0xD8,	//8-11 
.................... 0xE0,	0xE8,	0xF0,	0xE8,	0xE0,	0xD8,	0xD0,	0xC8,	//8-12 
.................... 0xC0,	0xB8,	0xB0,	0xA8,	0xA0,	0x98,	0x90,	0x88,	//8-13 
.................... 0x80,	0x78,	0x70,	0x68,	0x60,	0x58,	0x50,	0x48,	//8-14 
.................... 0x40,	0x38,	0x30,	0x28,	0x20,	0x18,	0x10,	0x08,	//8-15 
.................... 0x00,	0x08,	0x10,	0x18,	0x20,	0x28,	0x30,	0x38,	//8-16 
.................... 0x40,	0x48,	0x50,	0x58,	0x60,	0x68,	0x70,	0x78,	//8-17 
.................... 0x80,	0x88,	0x90,	0x98,	0xA0,	0xA8,	0xB0,	0xB8,	//8-18 
.................... 0xC0,	0xC8,	0xD0,	0xD8,	0xE0,	0xE8,	0xF0,	0xE8,	//8-19 
.................... 0xE0,	0xD8,	0xD0,	0xC8,	0xC0,	0xB8,	0xB0,	0xA8,	//8-20 
.................... 0xA0,	0x98,	0x90,	0x88,	0x80,	0x78,	0x70,	0x68,	//8-21 
.................... 0x60,	0x58,	0x50,	0x48,	0x40,	0x38,	0x30,	0x28,	//8-22 
.................... 0x20,	0x18,	0x10,	0x08,	0x00,	0x08,	0x10,	0x18,	//8-23 
.................... 0x20,	0x28,	0x30,	0x38,	0x40,	0x48,	0x50,	0x58,	//8-24 
.................... 0x60,	0x68,	0x70,	0x78,	0x80,	0x88,	0x90,	0x98,	//8-25 
.................... 0xA0,	0xA8,	0xB0,	0xB8,	0xC0,	0xC8,	0xD0,	0xD8,	//8-26 
.................... 0xE0,	0xE8,	0xF0,	0xE8,	0xE0,	0xD8,	0xD0,	0xC8,	//8-27 
.................... 0xC0,	0xB8,	0xB0,	0xA8,	0xA0,	0x98,	0x90,	0x88,	//8-28 
.................... 0x80,	0x78,	0x70,	0x68,	0x60,	0x58,	0x50,	0x48,	//8-29 
.................... 0x40,	0x38,	0x30,	0x28,	0x20,	0x18,	0x10,	0x08,	//8-30 
.................... 0x00,	0x20,	0x40,	0x60,	0x80,	0xA0,	0xC0,	0xE0,	//8-31 
.................... 0xFF,	0xDF,	0xBF,	0x9F,	0x7F,	0x5F,	0x3F,	0x1F,	//8-32 
.................... },{								 
.................... 0x80,	0x00,	0x80,	0x00,	0x80,	0x00,	0x80,	0x80,	//9-1 
.................... 0x00,	0x80,	0x00,	0x80,	0x00,	0x80,	0x80,	0x00,	//9-2 
.................... 0x80,	0x00,	0x80,	0x00,	0x80,	0xFF,	0x00,	0xFF,	//9-3 
.................... 0x00,	0xFF,	0x00,	0xFF,	0xFF,	0x00,	0xFF,	0x00,	//9-4 
.................... 0xFF,	0x00,	0xFF,	0xFF,	0x00,	0xFF,	0x00,	0xFF,	//9-5 
.................... 0x00,	0xFF,	0x80,	0x00,	0x80,	0x00,	0x80,	0x00,	//9-6 
.................... 0x80,	0xFF,	0x00,	0xFF,	0x00,	0xFF,	0x00,	0xFF,	//9-7 
.................... 0x80,	0x00,	0x80,	0x00,	0x80,	0x00,	0x80,	0x80,	//9-8 
.................... 0x00,	0x80,	0x00,	0x80,	0x00,	0x80,	0x80,	0x00,	//9-9 
.................... 0x80,	0x00,	0x80,	0x00,	0x80,	0xFF,	0x00,	0xFF,	//9-10 
.................... 0x00,	0xFF,	0x00,	0xFF,	0xFF,	0x00,	0xFF,	0x00,	//9-11 
.................... 0xFF,	0x00,	0xFF,	0xFF,	0x00,	0xFF,	0x00,	0xFF,	//9-12 
.................... 0x00,	0xFF,	0x80,	0x00,	0x80,	0x00,	0x80,	0x00,	//9-13 
.................... 0x80,	0xFF,	0x00,	0xFF,	0x00,	0xFF,	0x00,	0xFF,	//9-14 
.................... 0x80,	0x00,	0x80,	0x00,	0x80,	0x00,	0x80,	0x80,	//9-15 
.................... 0x00,	0x80,	0x00,	0x80,	0x00,	0x80,	0x80,	0x00,	//9-16 
.................... 0x80,	0x00,	0x80,	0x00,	0x80,	0xFF,	0x00,	0xFF,	//9-17 
.................... 0x00,	0xFF,	0x00,	0xFF,	0xFF,	0x00,	0xFF,	0x00,	//9-18 
.................... 0xFF,	0x00,	0xFF,	0xFF,	0x00,	0xFF,	0x00,	0xFF,	//9-19 
.................... 0x00,	0xFF,	0x80,	0x00,	0x80,	0x00,	0x80,	0x00,	//9-20 
.................... 0x80,	0xFF,	0x00,	0xFF,	0x00,	0xFF,	0x00,	0xFF,	//9-21 
.................... 0x80,	0x00,	0x80,	0x00,	0x80,	0x00,	0x80,	0x80,	//9-22 
.................... 0x00,	0x80,	0x00,	0x80,	0x00,	0x80,	0x80,	0x00,	//9-23 
.................... 0x80,	0x00,	0x80,	0x00,	0x80,	0xFF,	0x00,	0xFF,	//9-24 
.................... 0x00,	0xFF,	0x00,	0xFF,	0xFF,	0x00,	0xFF,	0x00,	//9-25 
.................... 0xFF,	0x00,	0xFF,	0xFF,	0x00,	0xFF,	0x00,	0xFF,	//9-26 
.................... 0x00,	0xFF,	0x80,	0x00,	0x80,	0x00,	0x80,	0x00,	//9-27 
.................... 0x80,	0xFF,	0x00,	0xFF,	0x00,	0xFF,	0x00,	0xFF,	//9-28 
.................... 0x40,	0x00,	0x40,	0x00,	0x40,	0x00,	0x40,	0x40,	//9-29 
.................... 0x00,	0x40,	0x00,	0x40,	0x00,	0x40,	0x40,	0x00,	//9-30 
.................... 0x40,	0x00,	0x40,	0x00,	0x40,	0xFF,	0x00,	0xFF,	//9-31 
.................... 0x00,	0xFF,	0x00,	0xFF,	0xFF,	0x00,	0x00,	0x00,	//9-32 
.................... }								 
.................... };								 
.................... 								 
.................... //GREEN								 
.................... const int ws281x_color_g[10][256] = {{								 
.................... 0x00,	0x00,	0x00,	0x00,	0x00,	0x00,	0x00,	0x00,	//0-1 
.................... 0x00,	0x00,	0x00,	0x00,	0x00,	0x00,	0x00,	0x00,	//0-2 
.................... 0x00,	0x00,	0x00,	0x00,	0x00,	0x00,	0x00,	0x00,	//0-3 
.................... 0x00,	0x00,	0x00,	0x00,	0x00,	0x00,	0x00,	0x00,	//0-4 
.................... 0x00,	0x00,	0x00,	0x00,	0x00,	0x00,	0x00,	0x00,	//0-5 
.................... 0x00,	0x00,	0x00,	0x00,	0x00,	0x00,	0x00,	0x00,	//0-6 
.................... 0x00,	0x00,	0x00,	0x00,	0x00,	0x00,	0x00,	0x00,	//0-7 
.................... 0x00,	0x00,	0x00,	0x00,	0x00,	0x00,	0x00,	0x00,	//0-8 
.................... 0x00,	0x00,	0x00,	0x00,	0x00,	0x00,	0x00,	0x00,	//0-9 
.................... 0x00,	0x00,	0x00,	0x00,	0x00,	0x00,	0x00,	0x00,	//0-10 
.................... 0x00,	0x00,	0x00,	0x00,	0x00,	0x00,	0x00,	0x00,	//0-11 
.................... 0x00,	0x00,	0x00,	0x00,	0x00,	0x00,	0x00,	0x00,	//0-12 
.................... 0x00,	0x00,	0x00,	0x00,	0x00,	0x00,	0x00,	0x00,	//0-13 
.................... 0x00,	0x00,	0x00,	0x00,	0x00,	0x00,	0x00,	0x00,	//0-14 
.................... 0x00,	0x00,	0x00,	0x00,	0x00,	0x00,	0x00,	0x00,	//0-15 
.................... 0x00,	0x00,	0x00,	0x00,	0x00,	0x00,	0x00,	0x00,	//0-16 
.................... 0x00,	0x00,	0x00,	0x00,	0x00,	0x00,	0x00,	0x00,	//0-17 
.................... 0x00,	0x00,	0x00,	0x00,	0x00,	0x00,	0x00,	0x00,	//0-18 
.................... 0x00,	0x00,	0x00,	0x00,	0x00,	0x00,	0x00,	0x00,	//0-19 
.................... 0x00,	0x00,	0x00,	0x00,	0x00,	0x00,	0x00,	0x00,	//0-20 
.................... 0x00,	0x00,	0x00,	0x00,	0x00,	0x00,	0x00,	0x00,	//0-21 
.................... 0x00,	0x00,	0x00,	0x00,	0x00,	0x00,	0x00,	0x00,	//0-22 
.................... 0x00,	0x00,	0x00,	0x00,	0x00,	0x00,	0x00,	0x00,	//0-23 
.................... 0x00,	0x00,	0x00,	0x00,	0x00,	0x00,	0x00,	0x00,	//0-24 
.................... 0x00,	0x00,	0x00,	0x00,	0x00,	0x00,	0x00,	0x00,	//0-25 
.................... 0x00,	0x00,	0x00,	0x00,	0x00,	0x00,	0x00,	0x00,	//0-26 
.................... 0x00,	0x00,	0x00,	0x00,	0x00,	0x00,	0x00,	0x00,	//0-27 
.................... 0x00,	0x00,	0x00,	0x00,	0x00,	0x00,	0x00,	0x00,	//0-28 
.................... 0x00,	0x00,	0x00,	0x00,	0x00,	0x00,	0x00,	0x00,	//0-29 
.................... 0x00,	0x00,	0x00,	0x00,	0x00,	0x00,	0x00,	0x00,	//0-30 
.................... 0x00,	0x00,	0x00,	0x00,	0x00,	0x00,	0x00,	0x00,	//0-31 
.................... 0x00,	0x00,	0x00,	0x00,	0x00,	0x00,	0x00,	0x00,	//0-32 
.................... },{								 
.................... 0x00,	0x05,	0x09,	0xE,	0x13,	0x17,	0x1C,	0x21,	//1-1 
.................... 0x25,	0x2A,	0x2F,	0x33,	0x38,	0x3D,	0x41,	0x46,	//1-2 
.................... 0x4B,	0x4F,	0x54,	0x55,	0x55,	0x50,	0x4C,	0x47,	//1-3 
.................... 0x42,	0x3E,	0x39,	0x34,	0x30,	0x2B,	0x26,	0x22,	//1-4 
.................... 0x1D,	0x18,	0x14,	0xF,	0xA,	0x06,	0x01,	0x00,	//1-5 
.................... 0x00,	0x00,	0x00,	0x00,	0x00,	0x00,	0x00,	0x00,	//1-6 
.................... 0x00,	0x00,	0x00,	0x00,	0x00,	0x00,	0x00,	0x00,	//1-7 
.................... 0x00,	0x00,	0x00,	0x00,	0x00,	0x00,	0x00,	0x00,	//1-8 
.................... 0x00,	0x05,	0x09,	0xE,	0x13,	0x17,	0x1C,	0x21,	//1-9 
.................... 0x25,	0x2A,	0x2F,	0x33,	0x38,	0x3D,	0x41,	0x46,	//1-10 
.................... 0x4B,	0x4F,	0x54,	0x55,	0x55,	0x50,	0x4C,	0x47,	//1-11 
.................... 0x42,	0x3E,	0x39,	0x34,	0x30,	0x2B,	0x26,	0x22,	//1-12 
.................... 0x1D,	0x18,	0x14,	0xF,	0xA,	0x06,	0x01,	0x00,	//1-13 
.................... 0x00,	0x00,	0x00,	0x00,	0x00,	0x00,	0x00,	0x00,	//1-14 
.................... 0x00,	0x00,	0x00,	0x00,	0x00,	0x00,	0x00,	0x00,	//1-15 
.................... 0x00,	0x00,	0x00,	0x00,	0x00,	0x00,	0x00,	0x00,	//1-16 
.................... 0x00,	0x05,	0x09,	0xE,	0x13,	0x17,	0x1C,	0x21,	//1-17 
.................... 0x25,	0x2A,	0x2F,	0x33,	0x38,	0x3D,	0x41,	0x46,	//1-18 
.................... 0x4B,	0x4F,	0x54,	0x55,	0x55,	0x50,	0x4C,	0x47,	//1-19 
.................... 0x42,	0x3E,	0x39,	0x34,	0x30,	0x2B,	0x26,	0x22,	//1-20 
.................... 0x1D,	0x18,	0x14,	0xF,	0xA,	0x06,	0x01,	0x00,	//1-21 
.................... 0x00,	0x00,	0x00,	0x00,	0x00,	0x00,	0x00,	0x00,	//1-22 
.................... 0x00,	0x00,	0x00,	0x00,	0x00,	0x00,	0x00,	0x00,	//1-23 
.................... 0x00,	0x00,	0x00,	0x00,	0x00,	0x00,	0x00,	0x00,	//1-24 
.................... 0x00,	0x05,	0x09,	0xE,	0x13,	0x17,	0x1C,	0x21,	//1-25 
.................... 0x25,	0x2A,	0x2F,	0x33,	0x38,	0x3D,	0x41,	0x46,	//1-26 
.................... 0x4B,	0x4F,	0x54,	0x55,	0x55,	0x50,	0x4C,	0x47,	//1-27 
.................... 0x42,	0x3E,	0x39,	0x34,	0x30,	0x2B,	0x26,	0x22,	//1-28 
.................... 0x1D,	0x18,	0x14,	0xF,	0xA,	0x06,	0x01,	0x00,	//1-29 
.................... 0x00,	0x00,	0x00,	0x00,	0x00,	0x00,	0x00,	0x00,	//1-30 
.................... 0x00,	0x00,	0x00,	0x00,	0x00,	0x00,	0x00,	0x00,	//1-31 
.................... 0x00,	0x00,	0x00,	0x00,	0x00,	0x00,	0x00,	0x00,	//1-32 
.................... },{								 
.................... 0x00,	0x00,	0x00,	0x00,	0x00,	0x00,	0x00,	0x00,	//2-1 
.................... 0x00,	0x00,	0x00,	0x00,	0x00,	0x00,	0x00,	0x00,	//2-2 
.................... 0x00,	0x00,	0x00,	0x00,	0x00,	0x00,	0x00,	0x00,	//2-3 
.................... 0x00,	0x00,	0x00,	0x00,	0x00,	0x00,	0x00,	0x00,	//2-4 
.................... 0x00,	0x00,	0x00,	0x00,	0x00,	0x00,	0x00,	0x00,	//2-5 
.................... 0x00,	0x00,	0x00,	0x03,	0x09,	0xF,	0x15,	0x1B,	//2-6 
.................... 0x21,	0x27,	0x2D,	0x33,	0x39,	0x3F,	0x45,	0x4B,	//2-7 
.................... 0x51,	0x57,	0x5D,	0x63,	0x69,	0x6F,	0x75,	0x7B,	//2-8 
.................... 0x81,	0x87,	0x8D,	0x93,	0x99,	0x9F,	0xA5,	0xAB,	//2-9 
.................... 0xB1,	0xB7,	0xBD,	0xC3,	0xC9,	0xCF,	0xD5,	0xDB,	//2-10 
.................... 0xE1,	0xE7,	0xED,	0xF3,	0xF9,	0xFF,	0xF9,	0xF3,	//2-11 
.................... 0xED,	0xE7,	0xE1,	0xDB,	0xD5,	0xCF,	0xC9,	0xC3,	//2-12 
.................... 0xBD,	0xB7,	0xB1,	0xAB,	0xA5,	0x9F,	0x99,	0x93,	//2-13 
.................... 0x8D,	0x87,	0x81,	0x7B,	0x75,	0x6F,	0x69,	0x63,	//2-14 
.................... 0x5D,	0x57,	0x51,	0x4B,	0x45,	0x3F,	0x39,	0x33,	//2-15 
.................... 0x2D,	0x27,	0x21,	0x1B,	0x15,	0xF,	0x09,	0x03,	//2-16 
.................... 0x00,	0x00,	0x00,	0x00,	0x00,	0x00,	0x00,	0x00,	//2-17 
.................... 0x00,	0x00,	0x00,	0x00,	0x00,	0x00,	0x00,	0x00,	//2-18 
.................... 0x00,	0x00,	0x00,	0x00,	0x00,	0x00,	0x00,	0x00,	//2-19 
.................... 0x00,	0x00,	0x00,	0x00,	0x00,	0x00,	0x00,	0x00,	//2-20 
.................... 0x00,	0x00,	0x00,	0x00,	0x00,	0x00,	0x00,	0x00,	//2-21 
.................... 0x00,	0x00,	0x00,	0x00,	0x00,	0x00,	0x00,	0x00,	//2-22 
.................... 0x00,	0x00,	0x00,	0x00,	0x00,	0x00,	0x00,	0x00,	//2-23 
.................... 0x00,	0x00,	0x00,	0x00,	0x00,	0x00,	0x00,	0x00,	//2-24 
.................... 0x00,	0x00,	0x00,	0x00,	0x00,	0x00,	0x00,	0x00,	//2-25 
.................... 0x00,	0x00,	0x00,	0x00,	0x00,	0x00,	0x00,	0x00,	//2-26 
.................... 0x00,	0x00,	0x00,	0x00,	0x00,	0x00,	0x00,	0x00,	//2-27 
.................... 0x00,	0x00,	0x00,	0x00,	0x00,	0x00,	0x00,	0x00,	//2-28 
.................... 0x00,	0x00,	0x00,	0x00,	0x00,	0x00,	0x00,	0x00,	//2-29 
.................... 0x00,	0x00,	0x00,	0x00,	0x00,	0x00,	0x00,	0x00,	//2-30 
.................... 0x00,	0x00,	0x00,	0x00,	0x00,	0x00,	0x00,	0x00,	//2-31 
.................... 0x00,	0x00,	0x00,	0x00,	0x00,	0x00,	0x00,	0x00,	//2-32 
.................... },{								 
.................... 0x03,	0x06,	0x09,	0xC,	0xF,	0x12,	0x15,	0x18,	//3-1 
.................... 0x1B,	0x1E,	0x21,	0x24,	0x27,	0x2A,	0x2D,	0x30,	//3-2 
.................... 0x33,	0x36,	0x39,	0x3C,	0x3F,	0x42,	0x45,	0x48,	//3-3 
.................... 0x4B,	0x4E,	0x51,	0x54,	0x57,	0x5A,	0x5D,	0x60,	//3-4 
.................... 0x63,	0x66,	0x69,	0x6C,	0x6F,	0x72,	0x75,	0x78,	//3-5 
.................... 0x7B,	0x7E,	0x81,	0x84,	0x87,	0x8A,	0x8D,	0x90,	//3-6 
.................... 0x93,	0x96,	0x99,	0x9C,	0x9F,	0xA2,	0xA5,	0xA8,	//3-7 
.................... 0xAB,	0xAE,	0xB1,	0xB4,	0xB7,	0xBA,	0xBD,	0xC0,	//3-8 
.................... 0xC3,	0xC6,	0xC9,	0xCC,	0xCF,	0xD2,	0xD5,	0xD8,	//3-9 
.................... 0xDB,	0xDE,	0xE1,	0xE4,	0xE7,	0xEA,	0xED,	0xF0,	//3-10 
.................... 0xF3,	0xF6,	0xF9,	0xFC,	0xFF,	0xFC,	0xF9,	0xF6,	//3-11 
.................... 0xF3,	0xF0,	0xED,	0xEA,	0xE7,	0xE4,	0xE1,	0xDE,	//3-12 
.................... 0xDB,	0xD8,	0xD5,	0xD2,	0xCF,	0xCC,	0xC9,	0xC6,	//3-13 
.................... 0xC3,	0xC0,	0xBD,	0xBA,	0xB7,	0xB4,	0xB1,	0xAE,	//3-14 
.................... 0xAB,	0xA8,	0xA5,	0xA2,	0x9F,	0x9C,	0x99,	0x96,	//3-15 
.................... 0x93,	0x90,	0x8D,	0x8A,	0x87,	0x84,	0x81,	0x7E,	//3-16 
.................... 0x7B,	0x78,	0x75,	0x72,	0x6F,	0x6C,	0x69,	0x66,	//3-17 
.................... 0x63,	0x60,	0x5D,	0x5A,	0x57,	0x54,	0x51,	0x4E,	//3-18 
.................... 0x4B,	0x48,	0x45,	0x42,	0x3F,	0x3C,	0x39,	0x36,	//3-19 
.................... 0x33,	0x30,	0x2D,	0x2A,	0x27,	0x24,	0x21,	0x1E,	//3-20 
.................... 0x1B,	0x18,	0x15,	0x12,	0xF,	0xC,	0x09,	0x06,	//3-21 
.................... 0x03,	0x00,	0x00,	0x00,	0x00,	0x00,	0x00,	0x00,	//3-22 
.................... 0x00,	0x00,	0x00,	0x00,	0x00,	0x00,	0x00,	0x00,	//3-23 
.................... 0x00,	0x00,	0x00,	0x00,	0x00,	0x00,	0x00,	0x00,	//3-24 
.................... 0x00,	0x00,	0x00,	0x00,	0x00,	0x00,	0x00,	0x00,	//3-25 
.................... 0x00,	0x00,	0x00,	0x00,	0x00,	0x00,	0x00,	0x00,	//3-26 
.................... 0x00,	0x00,	0x00,	0x00,	0x00,	0x00,	0x00,	0x00,	//3-27 
.................... 0x00,	0x00,	0x00,	0x00,	0x00,	0x00,	0x00,	0x00,	//3-28 
.................... 0x00,	0x00,	0x00,	0x00,	0x00,	0x00,	0x00,	0x00,	//3-29 
.................... 0x00,	0x00,	0x00,	0x00,	0x00,	0x00,	0x00,	0x00,	//3-30 
.................... 0x00,	0x00,	0x00,	0x00,	0x00,	0x00,	0x00,	0x00,	//3-31 
.................... 0x00,	0x00,	0x00,	0x00,	0x00,	0x00,	0x00,	0x00,	//3-32 
.................... },{								 
.................... 0x00,	0x00,	0x00,	0x00,	0x00,	0x00,	0x00,	0x00,	//4-1 
.................... 0x00,	0x00,	0x00,	0x00,	0x00,	0x00,	0x00,	0x00,	//4-2 
.................... 0x00,	0x00,	0x00,	0x00,	0x00,	0x00,	0x00,	0x00,	//4-3 
.................... 0x00,	0x00,	0x00,	0x00,	0x00,	0x00,	0x00,	0x00,	//4-4 
.................... 0x00,	0x00,	0x00,	0x00,	0x00,	0x00,	0x00,	0x00,	//4-5 
.................... 0x00,	0x00,	0x00,	0x00,	0x00,	0x00,	0x00,	0x00,	//4-6 
.................... 0x00,	0x00,	0x00,	0x00,	0x00,	0x00,	0x00,	0x00,	//4-7 
.................... 0x00,	0x00,	0x00,	0x00,	0x00,	0x00,	0x00,	0x00,	//4-8 
.................... 0x00,	0x00,	0x00,	0x00,	0x00,	0x00,	0x00,	0x00,	//4-9 
.................... 0x00,	0x00,	0x00,	0x00,	0x00,	0x00,	0x00,	0x00,	//4-10 
.................... 0x00,	0x00,	0x00,	0x00,	0x00,	0x00,	0x00,	0x00,	//4-11 
.................... 0x00,	0x00,	0x00,	0x00,	0x00,	0x00,	0x00,	0x00,	//4-12 
.................... 0x00,	0x00,	0x00,	0x00,	0x00,	0x00,	0x00,	0x00,	//4-13 
.................... 0x00,	0x00,	0x00,	0x00,	0x00,	0x00,	0x00,	0x00,	//4-14 
.................... 0x00,	0x00,	0x00,	0x00,	0x00,	0x00,	0x00,	0x00,	//4-15 
.................... 0x00,	0x00,	0x00,	0x00,	0x00,	0x00,	0x00,	0x00,	//4-16 
.................... 0x00,	0x00,	0x00,	0x00,	0x00,	0x00,	0x00,	0x00,	//4-17 
.................... 0x00,	0x00,	0x00,	0x00,	0x00,	0x00,	0x00,	0x00,	//4-18 
.................... 0x00,	0x00,	0x00,	0x00,	0x00,	0x00,	0x00,	0x00,	//4-19 
.................... 0x00,	0x00,	0x00,	0x00,	0x00,	0x00,	0x00,	0x00,	//4-20 
.................... 0x00,	0x00,	0x00,	0x00,	0x00,	0x00,	0x00,	0x00,	//4-21 
.................... 0x00,	0x00,	0x00,	0x00,	0x00,	0x00,	0x00,	0x00,	//4-22 
.................... 0x00,	0x00,	0x00,	0x00,	0x00,	0x00,	0x00,	0x00,	//4-23 
.................... 0x00,	0x00,	0x00,	0x00,	0x00,	0x00,	0x00,	0x00,	//4-24 
.................... 0x00,	0x00,	0x00,	0x00,	0x00,	0x00,	0x00,	0x00,	//4-25 
.................... 0x00,	0x00,	0x00,	0x00,	0x00,	0x00,	0x00,	0x00,	//4-26 
.................... 0x00,	0x00,	0x00,	0x00,	0x00,	0x00,	0x00,	0x00,	//4-27 
.................... 0x00,	0x00,	0x00,	0x00,	0x00,	0x00,	0x00,	0x00,	//4-28 
.................... 0x00,	0x00,	0x00,	0x00,	0x00,	0x00,	0x00,	0x00,	//4-29 
.................... 0x00,	0x00,	0x00,	0x00,	0x00,	0x00,	0x00,	0x00,	//4-30 
.................... 0x00,	0x00,	0x00,	0x00,	0x00,	0x00,	0x00,	0x00,	//4-31 
.................... 0x00,	0x00,	0x00,	0x00,	0x00,	0x00,	0x00,	0x00,	//4-32 
.................... },{								 
.................... 0xFF,	0xFF,	0xFF,	0xFF,	0xFF,	0xFF,	0xFF,	0xFF,	//5-1 
.................... 0xFF,	0xFF,	0xFF,	0xFF,	0xFF,	0xFF,	0xFF,	0xFF,	//5-2 
.................... 0xFF,	0xFF,	0xFF,	0xFF,	0xFF,	0xFF,	0xFF,	0xFF,	//5-3 
.................... 0xFF,	0xFF,	0xFF,	0xFF,	0xFF,	0xFF,	0xFF,	0xFF,	//5-4 
.................... 0xFF,	0xFF,	0xFF,	0xFF,	0xFF,	0xFF,	0xFF,	0xFF,	//5-5 
.................... 0xFF,	0xFF,	0xFF,	0xFF,	0xFF,	0xFF,	0xFF,	0xFF,	//5-6 
.................... 0xFF,	0xFF,	0xFF,	0xFF,	0xFF,	0xFF,	0xFF,	0xFF,	//5-7 
.................... 0xFF,	0xFF,	0xFF,	0xFF,	0xFF,	0xFF,	0xFF,	0xFF,	//5-8 
.................... 0xFF,	0xFF,	0xFF,	0xFF,	0xFF,	0xFF,	0xFF,	0xFF,	//5-9 
.................... 0xFF,	0xFF,	0xFF,	0xFF,	0xFF,	0xFF,	0xFF,	0xFF,	//5-10 
.................... 0xFF,	0xFF,	0xFF,	0xFF,	0xFF,	0xFF,	0xFF,	0xFF,	//5-11 
.................... 0xFF,	0xFF,	0xFF,	0xFF,	0xFF,	0xFF,	0xFF,	0xFF,	//5-12 
.................... 0xFF,	0xFF,	0xFF,	0xFF,	0xFF,	0xFF,	0xFF,	0xFF,	//5-13 
.................... 0xFF,	0xFF,	0xFF,	0xFF,	0xFF,	0xFF,	0xFF,	0xFF,	//5-14 
.................... 0xFF,	0xFF,	0xFF,	0xFF,	0xFF,	0xFF,	0xFF,	0xFF,	//5-15 
.................... 0xFF,	0xFF,	0xFF,	0xFF,	0xFF,	0xFF,	0xFF,	0xFF,	//5-16 
.................... 0xFF,	0xFF,	0xFF,	0xFF,	0xFF,	0xFF,	0xFF,	0xFF,	//5-17 
.................... 0xFF,	0xFF,	0xFF,	0xFF,	0xFF,	0xFF,	0xFF,	0xFF,	//5-18 
.................... 0xFF,	0xFF,	0xFF,	0xFF,	0xFF,	0xFF,	0xFF,	0xFF,	//5-19 
.................... 0xFF,	0xFF,	0xFF,	0xFF,	0xFF,	0xFF,	0xFF,	0xFF,	//5-20 
.................... 0xFF,	0xFF,	0xFF,	0xFF,	0xFF,	0xFF,	0xFF,	0xFF,	//5-21 
.................... 0xFF,	0xFF,	0xFF,	0xFF,	0xFF,	0xFF,	0xFF,	0xFF,	//5-22 
.................... 0xFF,	0xFF,	0xFF,	0xFF,	0xFF,	0xFF,	0xFF,	0xFF,	//5-23 
.................... 0xFF,	0xFF,	0xFF,	0xFF,	0xFF,	0xFF,	0xFF,	0xFF,	//5-24 
.................... 0xFF,	0xFF,	0xFF,	0xFF,	0xFF,	0xFF,	0xFF,	0xFF,	//5-25 
.................... 0xFF,	0xFF,	0xFF,	0xFF,	0xFF,	0xFF,	0xFF,	0xFF,	//5-26 
.................... 0xFF,	0xFF,	0xFF,	0xFF,	0xFF,	0xFF,	0xFF,	0xFF,	//5-27 
.................... 0xFF,	0xFF,	0xFF,	0xFF,	0xFF,	0xFF,	0xFF,	0xFF,	//5-28 
.................... 0xFF,	0xFF,	0xFF,	0xFF,	0xFF,	0xFF,	0xFF,	0xFF,	//5-29 
.................... 0xFF,	0xFF,	0xFF,	0xFF,	0xFF,	0xFF,	0xFF,	0xFF,	//5-30 
.................... 0xFF,	0xFF,	0xFF,	0xFF,	0xFF,	0xFF,	0xFF,	0xFF,	//5-31 
.................... 0xFF,	0xFF,	0xFF,	0xFF,	0xFF,	0xFF,	0xFF,	0xFF,	//5-32 
.................... },{								 
.................... 0x00,	0x00,	0x00,	0x00,	0x00,	0x00,	0x00,	0x00,	//6-1 
.................... 0x00,	0x00,	0x00,	0x00,	0x00,	0x00,	0x00,	0x00,	//6-2 
.................... 0x00,	0x00,	0x00,	0x00,	0x00,	0x00,	0x00,	0x00,	//6-3 
.................... 0x00,	0x00,	0x00,	0x00,	0x00,	0x00,	0x00,	0x00,	//6-4 
.................... 0x00,	0x00,	0x00,	0x00,	0x00,	0x00,	0x00,	0x00,	//6-5 
.................... 0x00,	0x00,	0x00,	0x00,	0x00,	0x00,	0x00,	0x00,	//6-6 
.................... 0x00,	0x00,	0x00,	0x00,	0x00,	0x00,	0x00,	0x00,	//6-7 
.................... 0x00,	0x00,	0x00,	0x00,	0x00,	0x00,	0x00,	0x00,	//6-8 
.................... 0x00,	0x00,	0x00,	0x00,	0x00,	0x00,	0x00,	0x00,	//6-9 
.................... 0x00,	0x00,	0x00,	0x00,	0x00,	0x00,	0x00,	0x00,	//6-10 
.................... 0x00,	0x00,	0x00,	0x00,	0x00,	0x00,	0x00,	0x00,	//6-11 
.................... 0x00,	0x00,	0x00,	0x00,	0x00,	0x00,	0x00,	0x00,	//6-12 
.................... 0x00,	0x00,	0x00,	0x00,	0x00,	0x00,	0x00,	0x00,	//6-13 
.................... 0x00,	0x00,	0x00,	0x00,	0x00,	0x00,	0x00,	0x00,	//6-14 
.................... 0x00,	0x00,	0x00,	0x00,	0x00,	0x00,	0x00,	0x00,	//6-15 
.................... 0x00,	0x00,	0x00,	0x00,	0x00,	0x00,	0x00,	0x00,	//6-16 
.................... 0x00,	0x00,	0x00,	0x00,	0x00,	0x00,	0x00,	0x00,	//6-17 
.................... 0x00,	0x00,	0x00,	0x00,	0x00,	0x00,	0x00,	0x00,	//6-18 
.................... 0x00,	0x00,	0x00,	0x00,	0x00,	0x00,	0x00,	0x00,	//6-19 
.................... 0x00,	0x00,	0x00,	0x00,	0x00,	0x00,	0x00,	0x00,	//6-20 
.................... 0x00,	0x00,	0x00,	0x00,	0x00,	0x00,	0x00,	0x00,	//6-21 
.................... 0x00,	0x00,	0x00,	0x00,	0x00,	0x00,	0x00,	0x00,	//6-22 
.................... 0x00,	0x00,	0x00,	0x00,	0x00,	0x00,	0x00,	0x00,	//6-23 
.................... 0x00,	0x00,	0x00,	0x00,	0x00,	0x00,	0x00,	0x00,	//6-24 
.................... 0x00,	0x00,	0x00,	0x00,	0x00,	0x00,	0x00,	0x00,	//6-25 
.................... 0x00,	0x00,	0x00,	0x00,	0x00,	0x00,	0x00,	0x00,	//6-26 
.................... 0x00,	0x00,	0x00,	0x00,	0x00,	0x00,	0x00,	0x00,	//6-27 
.................... 0x00,	0x00,	0x00,	0x00,	0x00,	0x00,	0x00,	0x00,	//6-28 
.................... 0x00,	0x00,	0x00,	0x00,	0x00,	0x00,	0x00,	0x00,	//6-29 
.................... 0x00,	0x00,	0x00,	0x00,	0x00,	0x00,	0x00,	0x00,	//6-30 
.................... 0x00,	0x00,	0x00,	0x00,	0x00,	0x00,	0x00,	0x00,	//6-31 
.................... 0x00,	0x00,	0x00,	0x00,	0x00,	0x00,	0x00,	0x00,	//6-32 
.................... },{								 
.................... 0xFF,	0xFF,	0xFF,	0xFF,	0xFF,	0xFF,	0xFF,	0xFF,	//7-1 
.................... 0xFF,	0xFF,	0xFF,	0xFF,	0xFF,	0xFF,	0xFF,	0xFF,	//7-2 
.................... 0xFF,	0xFF,	0xFF,	0xFF,	0xFF,	0xFF,	0xFF,	0xFF,	//7-3 
.................... 0xFF,	0xFF,	0xFF,	0xFF,	0xFF,	0xFF,	0xFF,	0xFF,	//7-4 
.................... 0xFF,	0xFF,	0xFF,	0xFF,	0xFF,	0xFF,	0xFF,	0xFF,	//7-5 
.................... 0xFF,	0xFF,	0xFF,	0xFF,	0xFF,	0xFF,	0xFF,	0xFF,	//7-6 
.................... 0xFF,	0xFF,	0xFF,	0xFF,	0xFF,	0xFF,	0xFF,	0xFF,	//7-7 
.................... 0xFF,	0xFF,	0xFF,	0xFF,	0xFF,	0xFF,	0xFF,	0xFF,	//7-8 
.................... 0xFF,	0xFF,	0xFF,	0xFF,	0xFF,	0xFF,	0xFF,	0xFF,	//7-9 
.................... 0xFF,	0xFF,	0xFF,	0xFF,	0xFF,	0xFF,	0xFF,	0xFF,	//7-10 
.................... 0xFF,	0xFF,	0xFF,	0xFF,	0xFF,	0xFF,	0xFF,	0xFF,	//7-11 
.................... 0xFF,	0xFF,	0xFF,	0xFF,	0xFF,	0xFF,	0xFF,	0xFF,	//7-12 
.................... 0xFF,	0xFF,	0xFF,	0xFF,	0xFF,	0xFF,	0xFF,	0xFF,	//7-13 
.................... 0xFF,	0xFF,	0xFF,	0xFF,	0xFF,	0xFF,	0xFF,	0xFF,	//7-14 
.................... 0xFF,	0xFF,	0xFF,	0xFF,	0xFF,	0xFF,	0xFF,	0xFF,	//7-15 
.................... 0xFF,	0xFF,	0xFF,	0xFF,	0xFF,	0xFF,	0xFF,	0xFF,	//7-16 
.................... 0xFF,	0xFF,	0xFF,	0xFF,	0xFF,	0xFF,	0xFF,	0xFF,	//7-17 
.................... 0xFF,	0xFF,	0xFF,	0xFF,	0xFF,	0xFF,	0xFF,	0xFF,	//7-18 
.................... 0xFF,	0xFF,	0xFF,	0xFF,	0xFF,	0xFF,	0xFF,	0xFF,	//7-19 
.................... 0xFF,	0xFF,	0xFF,	0xFF,	0xFF,	0xFF,	0xFF,	0xFF,	//7-20 
.................... 0xFF,	0xFF,	0xFF,	0xFF,	0xFF,	0xFF,	0xFF,	0xFF,	//7-21 
.................... 0xFF,	0xFF,	0xFF,	0xFF,	0xFF,	0xFF,	0xFF,	0xFF,	//7-22 
.................... 0xFF,	0xFF,	0xFF,	0xFF,	0xFF,	0xFF,	0xFF,	0xFF,	//7-23 
.................... 0xFF,	0xFF,	0xFF,	0xFF,	0xFF,	0xFF,	0xFF,	0xFF,	//7-24 
.................... 0xFF,	0xFF,	0xFF,	0xFF,	0xFF,	0xFF,	0xFF,	0xFF,	//7-25 
.................... 0xFF,	0xFF,	0xFF,	0xFF,	0xFF,	0xFF,	0xFF,	0xFF,	//7-26 
.................... 0xFF,	0xFF,	0xFF,	0xFF,	0xFF,	0xFF,	0xFF,	0xFF,	//7-27 
.................... 0xFF,	0xFF,	0xFF,	0xFF,	0xFF,	0xFF,	0xFF,	0xFF,	//7-28 
.................... 0xFF,	0xFF,	0xFF,	0xFF,	0xFF,	0xFF,	0xFF,	0xFF,	//7-29 
.................... 0xFF,	0xFF,	0xFF,	0xFF,	0xFF,	0xFF,	0xFF,	0xFF,	//7-30 
.................... 0xFF,	0xFF,	0xFF,	0xFF,	0xFF,	0xFF,	0xFF,	0xFF,	//7-31 
.................... 0xFF,	0xFF,	0xFF,	0xFF,	0xFF,	0xFF,	0xFF,	0xFF,	//7-32 
.................... },{								 
.................... 0x00,	0x08,	0x10,	0x18,	0x20,	0x28,	0x30,	0x38,	//8-1 
.................... 0x40,	0x48,	0x50,	0x58,	0x60,	0x68,	0x70,	0x78,	//8-2 
.................... 0x80,	0x88,	0x90,	0x98,	0xA0,	0xA8,	0xB0,	0xB8,	//8-3 
.................... 0xC0,	0xC8,	0xD0,	0xD8,	0xE0,	0xE8,	0xF0,	0xE8,	//8-4 
.................... 0xE0,	0xD8,	0xD0,	0xC8,	0xC0,	0xB8,	0xB0,	0xA8,	//8-5 
.................... 0xA0,	0x98,	0x90,	0x88,	0x80,	0x78,	0x70,	0x68,	//8-6 
.................... 0x60,	0x58,	0x50,	0x48,	0x40,	0x38,	0x30,	0x28,	//8-7 
.................... 0x20,	0x18,	0x10,	0x08,	0x00,	0x08,	0x10,	0x18,	//8-8 
.................... 0x20,	0x28,	0x30,	0x38,	0x40,	0x48,	0x50,	0x58,	//8-9 
.................... 0x60,	0x68,	0x70,	0x78,	0x80,	0x88,	0x90,	0x98,	//8-10 
.................... 0xA0,	0xA8,	0xB0,	0xB8,	0xC0,	0xC8,	0xD0,	0xD8,	//8-11 
.................... 0xE0,	0xE8,	0xF0,	0xE8,	0xE0,	0xD8,	0xD0,	0xC8,	//8-12 
.................... 0xC0,	0xB8,	0xB0,	0xA8,	0xA0,	0x98,	0x90,	0x88,	//8-13 
.................... 0x80,	0x78,	0x70,	0x68,	0x60,	0x58,	0x50,	0x48,	//8-14 
.................... 0x40,	0x38,	0x30,	0x28,	0x20,	0x18,	0x10,	0x08,	//8-15 
.................... 0x00,	0x08,	0x10,	0x18,	0x20,	0x28,	0x30,	0x38,	//8-16 
.................... 0x40,	0x48,	0x50,	0x58,	0x60,	0x68,	0x70,	0x78,	//8-17 
.................... 0x80,	0x88,	0x90,	0x98,	0xA0,	0xA8,	0xB0,	0xB8,	//8-18 
.................... 0xC0,	0xC8,	0xD0,	0xD8,	0xE0,	0xE8,	0xF0,	0xE8,	//8-19 
.................... 0xE0,	0xD8,	0xD0,	0xC8,	0xC0,	0xB8,	0xB0,	0xA8,	//8-20 
.................... 0xA0,	0x98,	0x90,	0x88,	0x80,	0x78,	0x70,	0x68,	//8-21 
.................... 0x60,	0x58,	0x50,	0x48,	0x40,	0x38,	0x30,	0x28,	//8-22 
.................... 0x20,	0x18,	0x10,	0x08,	0x00,	0x08,	0x10,	0x18,	//8-23 
.................... 0x20,	0x28,	0x30,	0x38,	0x40,	0x48,	0x50,	0x58,	//8-24 
.................... 0x60,	0x68,	0x70,	0x78,	0x80,	0x88,	0x90,	0x98,	//8-25 
.................... 0xA0,	0xA8,	0xB0,	0xB8,	0xC0,	0xC8,	0xD0,	0xD8,	//8-26 
.................... 0xE0,	0xE8,	0xF0,	0xE8,	0xE0,	0xD8,	0xD0,	0xC8,	//8-27 
.................... 0xC0,	0xB8,	0xB0,	0xA8,	0xA0,	0x98,	0x90,	0x88,	//8-28 
.................... 0x80,	0x78,	0x70,	0x68,	0x60,	0x58,	0x50,	0x48,	//8-29 
.................... 0x40,	0x38,	0x30,	0x28,	0x20,	0x18,	0x10,	0x08,	//8-30 
.................... 0x00,	0x20,	0x40,	0x60,	0x80,	0xA0,	0xC0,	0xE0,	//8-31 
.................... 0xFF,	0xDF,	0xBF,	0x9F,	0x7F,	0x5F,	0x3F,	0x3F,	//8-32 
.................... },{								 
.................... 0x00,	0x80,	0x80,	0x00,	0x00,	0x80,	0x80,	0x00,	//9-1 
.................... 0x80,	0x80,	0x00,	0x00,	0x80,	0x80,	0x00,	0xFF,	//9-2 
.................... 0xFF,	0x00,	0x00,	0xFF,	0xFF,	0x00,	0x80,	0x80,	//9-3 
.................... 0x00,	0x00,	0x80,	0x80,	0x00,	0x80,	0x80,	0x00,	//9-4 
.................... 0x00,	0x80,	0x80,	0x00,	0xFF,	0xFF,	0x00,	0x00,	//9-5 
.................... 0xFF,	0xFF,	0x00,	0xFF,	0xFF,	0x00,	0x00,	0xFF,	//9-6 
.................... 0xFF,	0x00,	0xFF,	0xFF,	0x00,	0x00,	0xFF,	0xFF,	//9-7 
.................... 0x00,	0x80,	0x80,	0x00,	0x00,	0x80,	0x80,	0x00,	//9-8 
.................... 0x80,	0x80,	0x00,	0x00,	0x80,	0x80,	0x00,	0xFF,	//9-9 
.................... 0xFF,	0x00,	0x00,	0xFF,	0xFF,	0x00,	0x80,	0x80,	//9-10 
.................... 0x00,	0x00,	0x80,	0x80,	0x00,	0x80,	0x80,	0x00,	//9-11 
.................... 0x00,	0x80,	0x80,	0x00,	0xFF,	0xFF,	0x00,	0x00,	//9-12 
.................... 0xFF,	0xFF,	0x00,	0xFF,	0xFF,	0x00,	0x00,	0xFF,	//9-13 
.................... 0xFF,	0x00,	0xFF,	0xFF,	0x00,	0x00,	0xFF,	0xFF,	//9-14 
.................... 0x00,	0x80,	0x80,	0x00,	0x00,	0x80,	0x80,	0x00,	//9-15 
.................... 0x80,	0x80,	0x00,	0x00,	0x80,	0x80,	0x00,	0xFF,	//9-16 
.................... 0xFF,	0x00,	0x00,	0xFF,	0xFF,	0x00,	0x80,	0x80,	//9-17 
.................... 0x00,	0x00,	0x80,	0x80,	0x00,	0x80,	0x80,	0x00,	//9-18 
.................... 0x00,	0x80,	0x80,	0x00,	0xFF,	0xFF,	0x00,	0x00,	//9-19 
.................... 0xFF,	0xFF,	0x00,	0xFF,	0xFF,	0x00,	0x00,	0xFF,	//9-20 
.................... 0xFF,	0x00,	0xFF,	0xFF,	0x00,	0x00,	0xFF,	0xFF,	//9-21 
.................... 0x00,	0x80,	0x80,	0x00,	0x00,	0x80,	0x80,	0x00,	//9-22 
.................... 0x80,	0x80,	0x00,	0x00,	0x80,	0x80,	0x00,	0xFF,	//9-23 
.................... 0xFF,	0x00,	0x00,	0xFF,	0xFF,	0x00,	0x80,	0x80,	//9-24 
.................... 0x00,	0x00,	0x80,	0x80,	0x00,	0x80,	0x80,	0x00,	//9-25 
.................... 0x00,	0x80,	0x80,	0x00,	0xFF,	0xFF,	0x00,	0x00,	//9-26 
.................... 0xFF,	0xFF,	0x00,	0xFF,	0xFF,	0x00,	0x00,	0xFF,	//9-27 
.................... 0xFF,	0x00,	0xFF,	0xFF,	0x00,	0x00,	0xFF,	0xFF,	//9-28 
.................... 0x00,	0x40,	0x40,	0x00,	0x00,	0x40,	0x40,	0x00,	//9-29 
.................... 0x40,	0x40,	0x00,	0x00,	0x40,	0x40,	0x00,	0xFF,	//9-30 
.................... 0xFF,	0x00,	0x00,	0xFF,	0xFF,	0x00,	0x40,	0x40,	//9-31 
.................... 0x00,	0x00,	0x40,	0x40,	0x00,	0xFF,	0x00,	0x00,	//9-32 
.................... }								 
.................... };								 
.................... 								 
.................... //BLUE								 
.................... const int ws281x_color_b[10][256] = {{								 
.................... 0x00,	0x00,	0x00,	0x00,	0x00,	0x00,	0x00,	0x00,	//0-1 
.................... 0x00,	0x00,	0x00,	0x00,	0x00,	0x00,	0x00,	0x00,	//0-2 
.................... 0x00,	0x00,	0x00,	0x00,	0x00,	0x00,	0x00,	0x00,	//0-3 
.................... 0x00,	0x00,	0x00,	0x00,	0x00,	0x00,	0x00,	0x00,	//0-4 
.................... 0x00,	0x00,	0x00,	0x00,	0x00,	0x00,	0x00,	0x00,	//0-5 
.................... 0x00,	0x00,	0x00,	0x00,	0x00,	0x00,	0x00,	0x00,	//0-6 
.................... 0x00,	0x00,	0x00,	0x00,	0x00,	0x00,	0x00,	0x00,	//0-7 
.................... 0x00,	0x00,	0x00,	0x00,	0x00,	0x00,	0x00,	0x00,	//0-8 
.................... 0x00,	0x00,	0x00,	0x00,	0x00,	0x00,	0x00,	0x00,	//0-9 
.................... 0x00,	0x00,	0x00,	0x00,	0x00,	0x00,	0x00,	0x00,	//0-10 
.................... 0x00,	0x00,	0x00,	0x00,	0x00,	0x00,	0x00,	0x00,	//0-11 
.................... 0x00,	0x00,	0x00,	0x00,	0x00,	0x00,	0x00,	0x00,	//0-12 
.................... 0x00,	0x00,	0x00,	0x00,	0x00,	0x00,	0x00,	0x00,	//0-13 
.................... 0x00,	0x00,	0x00,	0x00,	0x00,	0x00,	0x00,	0x00,	//0-14 
.................... 0x00,	0x00,	0x00,	0x00,	0x00,	0x00,	0x00,	0x00,	//0-15 
.................... 0x00,	0x00,	0x00,	0x00,	0x00,	0x00,	0x00,	0x00,	//0-16 
.................... 0x00,	0x00,	0x00,	0x00,	0x00,	0x00,	0x00,	0x00,	//0-17 
.................... 0x00,	0x00,	0x00,	0x00,	0x00,	0x00,	0x00,	0x00,	//0-18 
.................... 0x00,	0x00,	0x00,	0x00,	0x00,	0x00,	0x00,	0x00,	//0-19 
.................... 0x00,	0x00,	0x00,	0x00,	0x00,	0x00,	0x00,	0x00,	//0-20 
.................... 0x00,	0x00,	0x00,	0x00,	0x00,	0x00,	0x00,	0x00,	//0-21 
.................... 0x00,	0x00,	0x00,	0x00,	0x00,	0x00,	0x00,	0x00,	//0-22 
.................... 0x00,	0x00,	0x00,	0x00,	0x00,	0x00,	0x00,	0x00,	//0-23 
.................... 0x00,	0x00,	0x00,	0x00,	0x00,	0x00,	0x00,	0x00,	//0-24 
.................... 0x00,	0x00,	0x00,	0x00,	0x00,	0x00,	0x00,	0x00,	//0-25 
.................... 0x00,	0x00,	0x00,	0x00,	0x00,	0x00,	0x00,	0x00,	//0-26 
.................... 0x00,	0x00,	0x00,	0x00,	0x00,	0x00,	0x00,	0x00,	//0-27 
.................... 0x00,	0x00,	0x00,	0x00,	0x00,	0x00,	0x00,	0x00,	//0-28 
.................... 0x00,	0x00,	0x00,	0x00,	0x00,	0x00,	0x00,	0x00,	//0-29 
.................... 0x00,	0x00,	0x00,	0x00,	0x00,	0x00,	0x00,	0x00,	//0-30 
.................... 0x00,	0x00,	0x00,	0x00,	0x00,	0x00,	0x00,	0x00,	//0-31 
.................... 0x00,	0x00,	0x00,	0x00,	0x00,	0x00,	0x00,	0x00,	//0-32 
.................... },{								 
.................... 0x00,	0x00,	0x00,	0x00,	0x00,	0x00,	0x00,	0x00,	//1-1 
.................... 0x00,	0x00,	0x00,	0x00,	0x00,	0x00,	0x00,	0x00,	//1-2 
.................... 0x00,	0x00,	0x00,	0x00,	0x00,	0x05,	0x09,	0xE,	//1-3 
.................... 0x13,	0x17,	0x1C,	0x21,	0x25,	0x2A,	0x2F,	0x33,	//1-4 
.................... 0x38,	0x3D,	0x41,	0x46,	0x4B,	0x4F,	0x54,	0x55,	//1-5 
.................... 0x55,	0x50,	0x4C,	0x47,	0x42,	0x3E,	0x39,	0x34,	//1-6 
.................... 0x30,	0x2B,	0x26,	0x22,	0x1D,	0x18,	0x14,	0xF,	//1-7 
.................... 0xA,	0x06,	0x01,	0x00,	0x00,	0x00,	0x00,	0x00,	//1-8 
.................... 0x00,	0x00,	0x00,	0x00,	0x00,	0x00,	0x00,	0x00,	//1-9 
.................... 0x00,	0x00,	0x00,	0x00,	0x00,	0x00,	0x00,	0x00,	//1-10 
.................... 0x00,	0x00,	0x00,	0x00,	0x00,	0x05,	0x09,	0xE,	//1-11 
.................... 0x13,	0x17,	0x1C,	0x21,	0x25,	0x2A,	0x2F,	0x33,	//1-12 
.................... 0x38,	0x3D,	0x41,	0x46,	0x4B,	0x4F,	0x54,	0x55,	//1-13 
.................... 0x55,	0x50,	0x4C,	0x47,	0x42,	0x3E,	0x39,	0x34,	//1-14 
.................... 0x30,	0x2B,	0x26,	0x22,	0x1D,	0x18,	0x14,	0xF,	//1-15 
.................... 0xA,	0x06,	0x01,	0x00,	0x00,	0x00,	0x00,	0x00,	//1-16 
.................... 0x00,	0x00,	0x00,	0x00,	0x00,	0x00,	0x00,	0x00,	//1-17 
.................... 0x00,	0x00,	0x00,	0x00,	0x00,	0x00,	0x00,	0x00,	//1-18 
.................... 0x00,	0x00,	0x00,	0x00,	0x00,	0x05,	0x09,	0xE,	//1-19 
.................... 0x13,	0x17,	0x1C,	0x21,	0x25,	0x2A,	0x2F,	0x33,	//1-20 
.................... 0x38,	0x3D,	0x41,	0x46,	0x4B,	0x4F,	0x54,	0x55,	//1-21 
.................... 0x55,	0x50,	0x4C,	0x47,	0x42,	0x3E,	0x39,	0x34,	//1-22 
.................... 0x30,	0x2B,	0x26,	0x22,	0x1D,	0x18,	0x14,	0xF,	//1-23 
.................... 0xA,	0x06,	0x01,	0x00,	0x00,	0x00,	0x00,	0x00,	//1-24 
.................... 0x00,	0x00,	0x00,	0x00,	0x00,	0x00,	0x00,	0x00,	//1-25 
.................... 0x00,	0x00,	0x00,	0x00,	0x00,	0x00,	0x00,	0x00,	//1-26 
.................... 0x00,	0x00,	0x00,	0x00,	0x00,	0x05,	0x09,	0xE,	//1-27 
.................... 0x13,	0x17,	0x1C,	0x21,	0x25,	0x2A,	0x2F,	0x33,	//1-28 
.................... 0x38,	0x3D,	0x41,	0x46,	0x4B,	0x4F,	0x54,	0x55,	//1-29 
.................... 0x55,	0x50,	0x4C,	0x47,	0x42,	0x3E,	0x39,	0x34,	//1-30 
.................... 0x30,	0x2B,	0x26,	0x22,	0x1D,	0x18,	0x14,	0xF,	//1-31 
.................... 0xA,	0x06,	0x01,	0x00,	0x00,	0x00,	0x00,	0x00,	//1-32 
.................... },{								 
.................... 0x00,	0x00,	0x00,	0x00,	0x00,	0x00,	0x00,	0x00,	//2-1 
.................... 0x00,	0x00,	0x00,	0x00,	0x00,	0x00,	0x00,	0x00,	//2-2 
.................... 0x00,	0x00,	0x00,	0x00,	0x00,	0x00,	0x00,	0x00,	//2-3 
.................... 0x00,	0x00,	0x00,	0x00,	0x00,	0x00,	0x00,	0x00,	//2-4 
.................... 0x00,	0x00,	0x00,	0x00,	0x00,	0x00,	0x00,	0x00,	//2-5 
.................... 0x00,	0x00,	0x00,	0x00,	0x00,	0x00,	0x00,	0x00,	//2-6 
.................... 0x00,	0x00,	0x00,	0x00,	0x00,	0x00,	0x00,	0x00,	//2-7 
.................... 0x00,	0x00,	0x00,	0x00,	0x00,	0x00,	0x00,	0x00,	//2-8 
.................... 0x00,	0x00,	0x00,	0x00,	0x00,	0x00,	0x00,	0x00,	//2-9 
.................... 0x00,	0x00,	0x00,	0x00,	0x00,	0x00,	0x00,	0x00,	//2-10 
.................... 0x00,	0x00,	0x00,	0x00,	0x00,	0x00,	0x00,	0x00,	//2-11 
.................... 0x00,	0x00,	0x00,	0x00,	0x00,	0x00,	0x00,	0x00,	//2-12 
.................... 0x00,	0x00,	0x00,	0x00,	0x00,	0x00,	0x00,	0x00,	//2-13 
.................... 0x00,	0x00,	0x00,	0x00,	0x00,	0x00,	0x00,	0x00,	//2-14 
.................... 0x00,	0x00,	0x00,	0x00,	0x00,	0x00,	0x00,	0x00,	//2-15 
.................... 0x00,	0x00,	0x00,	0x00,	0x00,	0x00,	0x00,	0x00,	//2-16 
.................... 0x03,	0x09,	0xF,	0x15,	0x1B,	0x21,	0x27,	0x2D,	//2-17 
.................... 0x33,	0x39,	0x3F,	0x45,	0x4B,	0x51,	0x57,	0x5D,	//2-18 
.................... 0x63,	0x69,	0x6F,	0x75,	0x7B,	0x81,	0x87,	0x8D,	//2-19 
.................... 0x93,	0x99,	0x9F,	0xA5,	0xAB,	0xB1,	0xB7,	0xBD,	//2-20 
.................... 0xC3,	0xC9,	0xCF,	0xD5,	0xDB,	0xE1,	0xE7,	0xED,	//2-21 
.................... 0xF3,	0xF9,	0xFF,	0xF9,	0xF3,	0xED,	0xE7,	0xE1,	//2-22 
.................... 0xDB,	0xD5,	0xCF,	0xC9,	0xC3,	0xBD,	0xB7,	0xB1,	//2-23 
.................... 0xAB,	0xA5,	0x9F,	0x99,	0x93,	0x8D,	0x87,	0x81,	//2-24 
.................... 0x7B,	0x75,	0x6F,	0x69,	0x63,	0x5D,	0x57,	0x51,	//2-25 
.................... 0x4B,	0x45,	0x3F,	0x39,	0x33,	0x2D,	0x27,	0x21,	//2-26 
.................... 0x1B,	0x15,	0xF,	0x09,	0x03,	0x00,	0x00,	0x00,	//2-27 
.................... 0x00,	0x00,	0x00,	0x00,	0x00,	0x00,	0x00,	0x00,	//2-28 
.................... 0x00,	0x00,	0x00,	0x00,	0x00,	0x00,	0x00,	0x00,	//2-29 
.................... 0x00,	0x00,	0x00,	0x00,	0x00,	0x00,	0x00,	0x00,	//2-30 
.................... 0x00,	0x00,	0x00,	0x00,	0x00,	0x00,	0x00,	0x00,	//2-31 
.................... 0x00,	0x00,	0x00,	0x00,	0x00,	0x00,	0x00,	0x00,	//2-32 
.................... },{								 
.................... 0x00,	0x00,	0x00,	0x00,	0x00,	0x00,	0x00,	0x00,	//3-1 
.................... 0x00,	0x00,	0x00,	0x00,	0x00,	0x00,	0x00,	0x00,	//3-2 
.................... 0x00,	0x00,	0x00,	0x00,	0x00,	0x00,	0x00,	0x00,	//3-3 
.................... 0x00,	0x00,	0x00,	0x00,	0x00,	0x00,	0x00,	0x00,	//3-4 
.................... 0x00,	0x00,	0x00,	0x00,	0x00,	0x00,	0x00,	0x00,	//3-5 
.................... 0x00,	0x00,	0x00,	0x00,	0x00,	0x00,	0x00,	0x00,	//3-6 
.................... 0x00,	0x00,	0x00,	0x00,	0x00,	0x00,	0x00,	0x00,	//3-7 
.................... 0x00,	0x00,	0x00,	0x00,	0x00,	0x00,	0x00,	0x00,	//3-8 
.................... 0x00,	0x00,	0x00,	0x00,	0x00,	0x00,	0x00,	0x00,	//3-9 
.................... 0x00,	0x00,	0x00,	0x00,	0x00,	0x00,	0x00,	0x00,	//3-10 
.................... 0x00,	0x00,	0x00,	0x00,	0x03,	0x06,	0x09,	0xC,	//3-11 
.................... 0xF,	0x12,	0x15,	0x18,	0x1B,	0x1E,	0x21,	0x24,	//3-12 
.................... 0x27,	0x2A,	0x2D,	0x30,	0x33,	0x36,	0x39,	0x3C,	//3-13 
.................... 0x3F,	0x42,	0x45,	0x48,	0x4B,	0x4E,	0x51,	0x54,	//3-14 
.................... 0x57,	0x5A,	0x5D,	0x60,	0x63,	0x66,	0x69,	0x6C,	//3-15 
.................... 0x6F,	0x72,	0x75,	0x78,	0x7B,	0x7E,	0x81,	0x84,	//3-16 
.................... 0x87,	0x8A,	0x8D,	0x90,	0x93,	0x96,	0x99,	0x9C,	//3-17 
.................... 0x9F,	0xA2,	0xA5,	0xA8,	0xAB,	0xAE,	0xB1,	0xB4,	//3-18 
.................... 0xB7,	0xBA,	0xBD,	0xC0,	0xC3,	0xC6,	0xC9,	0xCC,	//3-19 
.................... 0xCF,	0xD2,	0xD5,	0xD8,	0xDB,	0xDE,	0xE1,	0xE4,	//3-20 
.................... 0xE7,	0xEA,	0xED,	0xF0,	0xF3,	0xF6,	0xF9,	0xFC,	//3-21 
.................... 0xFF,	0xFC,	0xF9,	0xF6,	0xF3,	0xF0,	0xED,	0xEA,	//3-22 
.................... 0xE7,	0xE4,	0xE1,	0xDE,	0xDB,	0xD8,	0xD5,	0xD2,	//3-23 
.................... 0xCF,	0xCC,	0xC9,	0xC6,	0xC3,	0xC0,	0xBD,	0xBA,	//3-24 
.................... 0xB7,	0xB4,	0xB1,	0xAE,	0xAB,	0xA8,	0xA5,	0xA2,	//3-25 
.................... 0x9F,	0x9C,	0x99,	0x96,	0x93,	0x90,	0x8D,	0x8A,	//3-26 
.................... 0x87,	0x84,	0x81,	0x7E,	0x7B,	0x78,	0x75,	0x72,	//3-27 
.................... 0x6F,	0x6C,	0x69,	0x66,	0x63,	0x60,	0x5D,	0x5A,	//3-28 
.................... 0x57,	0x54,	0x51,	0x4E,	0x4B,	0x48,	0x45,	0x42,	//3-29 
.................... 0x3F,	0x3C,	0x39,	0x36,	0x33,	0x30,	0x2D,	0x2A,	//3-30 
.................... 0x27,	0x24,	0x21,	0x1E,	0x1B,	0x18,	0x15,	0x12,	//3-31 
.................... 0xF,	0xC,	0x09,	0x06,	0x03,	0x00,	0x00,	0x00,	//3-32 
.................... },{								 
.................... 0x00,	0x00,	0x00,	0x00,	0x00,	0x00,	0x00,	0x00,	//4-1 
.................... 0x00,	0x00,	0x00,	0x00,	0x00,	0x00,	0x00,	0x00,	//4-2 
.................... 0x00,	0x00,	0x00,	0x00,	0x00,	0x00,	0x00,	0x00,	//4-3 
.................... 0x00,	0x00,	0x00,	0x00,	0x00,	0x00,	0x00,	0x00,	//4-4 
.................... 0x00,	0x00,	0x00,	0x00,	0x00,	0x00,	0x00,	0x00,	//4-5 
.................... 0x00,	0x00,	0x00,	0x00,	0x00,	0x00,	0x00,	0x00,	//4-6 
.................... 0x00,	0x00,	0x00,	0x00,	0x00,	0x00,	0x00,	0x00,	//4-7 
.................... 0x00,	0x00,	0x00,	0x00,	0x00,	0x00,	0x00,	0x00,	//4-8 
.................... 0x00,	0x00,	0x00,	0x00,	0x00,	0x00,	0x00,	0x00,	//4-9 
.................... 0x00,	0x00,	0x00,	0x00,	0x00,	0x00,	0x00,	0x00,	//4-10 
.................... 0x00,	0x00,	0x00,	0x00,	0x00,	0x00,	0x00,	0x00,	//4-11 
.................... 0x00,	0x00,	0x00,	0x00,	0x00,	0x00,	0x00,	0x00,	//4-12 
.................... 0x00,	0x00,	0x00,	0x00,	0x00,	0x00,	0x00,	0x00,	//4-13 
.................... 0x00,	0x00,	0x00,	0x00,	0x00,	0x00,	0x00,	0x00,	//4-14 
.................... 0x00,	0x00,	0x00,	0x00,	0x00,	0x00,	0x00,	0x00,	//4-15 
.................... 0x00,	0x00,	0x00,	0x00,	0x00,	0x00,	0x00,	0x00,	//4-16 
.................... 0x00,	0x00,	0x00,	0x00,	0x00,	0x00,	0x00,	0x00,	//4-17 
.................... 0x00,	0x00,	0x00,	0x00,	0x00,	0x00,	0x00,	0x00,	//4-18 
.................... 0x00,	0x00,	0x00,	0x00,	0x00,	0x00,	0x00,	0x00,	//4-19 
.................... 0x00,	0x00,	0x00,	0x00,	0x00,	0x00,	0x00,	0x00,	//4-20 
.................... 0x00,	0x00,	0x00,	0x00,	0x00,	0x00,	0x00,	0x00,	//4-21 
.................... 0x00,	0x00,	0x00,	0x00,	0x00,	0x00,	0x00,	0x00,	//4-22 
.................... 0x00,	0x00,	0x00,	0x00,	0x00,	0x00,	0x00,	0x00,	//4-23 
.................... 0x00,	0x00,	0x00,	0x00,	0x00,	0x00,	0x00,	0x00,	//4-24 
.................... 0x00,	0x00,	0x00,	0x00,	0x00,	0x00,	0x00,	0x00,	//4-25 
.................... 0x00,	0x00,	0x00,	0x00,	0x00,	0x00,	0x00,	0x00,	//4-26 
.................... 0x00,	0x00,	0x00,	0x00,	0x00,	0x00,	0x00,	0x00,	//4-27 
.................... 0x00,	0x00,	0x00,	0x00,	0x00,	0x00,	0x00,	0x00,	//4-28 
.................... 0x00,	0x00,	0x00,	0x00,	0x00,	0x00,	0x00,	0x00,	//4-29 
.................... 0x00,	0x00,	0x00,	0x00,	0x00,	0x00,	0x00,	0x00,	//4-30 
.................... 0x00,	0x00,	0x00,	0x00,	0x00,	0x00,	0x00,	0x00,	//4-31 
.................... 0x00,	0x00,	0x00,	0x00,	0x00,	0x00,	0x00,	0x00,	//4-32 
.................... },{								 
.................... 0x00,	0x00,	0x00,	0x00,	0x00,	0x00,	0x00,	0x00,	//5-1 
.................... 0x00,	0x00,	0x00,	0x00,	0x00,	0x00,	0x00,	0x00,	//5-2 
.................... 0x00,	0x00,	0x00,	0x00,	0x00,	0x00,	0x00,	0x00,	//5-3 
.................... 0x00,	0x00,	0x00,	0x00,	0x00,	0x00,	0x00,	0x00,	//5-4 
.................... 0x00,	0x00,	0x00,	0x00,	0x00,	0x00,	0x00,	0x00,	//5-5 
.................... 0x00,	0x00,	0x00,	0x00,	0x00,	0x00,	0x00,	0x00,	//5-6 
.................... 0x00,	0x00,	0x00,	0x00,	0x00,	0x00,	0x00,	0x00,	//5-7 
.................... 0x00,	0x00,	0x00,	0x00,	0x00,	0x00,	0x00,	0x00,	//5-8 
.................... 0x00,	0x00,	0x00,	0x00,	0x00,	0x00,	0x00,	0x00,	//5-9 
.................... 0x00,	0x00,	0x00,	0x00,	0x00,	0x00,	0x00,	0x00,	//5-10 
.................... 0x00,	0x00,	0x00,	0x00,	0x00,	0x00,	0x00,	0x00,	//5-11 
.................... 0x00,	0x00,	0x00,	0x00,	0x00,	0x00,	0x00,	0x00,	//5-12 
.................... 0x00,	0x00,	0x00,	0x00,	0x00,	0x00,	0x00,	0x00,	//5-13 
.................... 0x00,	0x00,	0x00,	0x00,	0x00,	0x00,	0x00,	0x00,	//5-14 
.................... 0x00,	0x00,	0x00,	0x00,	0x00,	0x00,	0x00,	0x00,	//5-15 
.................... 0x00,	0x00,	0x00,	0x00,	0x00,	0x00,	0x00,	0x00,	//5-16 
.................... 0x00,	0x00,	0x00,	0x00,	0x00,	0x00,	0x00,	0x00,	//5-17 
.................... 0x00,	0x00,	0x00,	0x00,	0x00,	0x00,	0x00,	0x00,	//5-18 
.................... 0x00,	0x00,	0x00,	0x00,	0x00,	0x00,	0x00,	0x00,	//5-19 
.................... 0x00,	0x00,	0x00,	0x00,	0x00,	0x00,	0x00,	0x00,	//5-20 
.................... 0x00,	0x00,	0x00,	0x00,	0x00,	0x00,	0x00,	0x00,	//5-21 
.................... 0x00,	0x00,	0x00,	0x00,	0x00,	0x00,	0x00,	0x00,	//5-22 
.................... 0x00,	0x00,	0x00,	0x00,	0x00,	0x00,	0x00,	0x00,	//5-23 
.................... 0x00,	0x00,	0x00,	0x00,	0x00,	0x00,	0x00,	0x00,	//5-24 
.................... 0x00,	0x00,	0x00,	0x00,	0x00,	0x00,	0x00,	0x00,	//5-25 
.................... 0x00,	0x00,	0x00,	0x00,	0x00,	0x00,	0x00,	0x00,	//5-26 
.................... 0x00,	0x00,	0x00,	0x00,	0x00,	0x00,	0x00,	0x00,	//5-27 
.................... 0x00,	0x00,	0x00,	0x00,	0x00,	0x00,	0x00,	0x00,	//5-28 
.................... 0x00,	0x00,	0x00,	0x00,	0x00,	0x00,	0x00,	0x00,	//5-29 
.................... 0x00,	0x00,	0x00,	0x00,	0x00,	0x00,	0x00,	0x00,	//5-30 
.................... 0x00,	0x00,	0x00,	0x00,	0x00,	0x00,	0x00,	0x00,	//5-31 
.................... 0x00,	0x00,	0x00,	0x00,	0x00,	0x00,	0x00,	0x00,	//5-32 
.................... },{								 
.................... 0xFF,	0xFF,	0xFF,	0xFF,	0xFF,	0xFF,	0xFF,	0xFF,	//6-1 
.................... 0xFF,	0xFF,	0xFF,	0xFF,	0xFF,	0xFF,	0xFF,	0xFF,	//6-2 
.................... 0xFF,	0xFF,	0xFF,	0xFF,	0xFF,	0xFF,	0xFF,	0xFF,	//6-3 
.................... 0xFF,	0xFF,	0xFF,	0xFF,	0xFF,	0xFF,	0xFF,	0xFF,	//6-4 
.................... 0xFF,	0xFF,	0xFF,	0xFF,	0xFF,	0xFF,	0xFF,	0xFF,	//6-5 
.................... 0xFF,	0xFF,	0xFF,	0xFF,	0xFF,	0xFF,	0xFF,	0xFF,	//6-6 
.................... 0xFF,	0xFF,	0xFF,	0xFF,	0xFF,	0xFF,	0xFF,	0xFF,	//6-7 
.................... 0xFF,	0xFF,	0xFF,	0xFF,	0xFF,	0xFF,	0xFF,	0xFF,	//6-8 
.................... 0xFF,	0xFF,	0xFF,	0xFF,	0xFF,	0xFF,	0xFF,	0xFF,	//6-9 
.................... 0xFF,	0xFF,	0xFF,	0xFF,	0xFF,	0xFF,	0xFF,	0xFF,	//6-10 
.................... 0xFF,	0xFF,	0xFF,	0xFF,	0xFF,	0xFF,	0xFF,	0xFF,	//6-11 
.................... 0xFF,	0xFF,	0xFF,	0xFF,	0xFF,	0xFF,	0xFF,	0xFF,	//6-12 
.................... 0xFF,	0xFF,	0xFF,	0xFF,	0xFF,	0xFF,	0xFF,	0xFF,	//6-13 
.................... 0xFF,	0xFF,	0xFF,	0xFF,	0xFF,	0xFF,	0xFF,	0xFF,	//6-14 
.................... 0xFF,	0xFF,	0xFF,	0xFF,	0xFF,	0xFF,	0xFF,	0xFF,	//6-15 
.................... 0xFF,	0xFF,	0xFF,	0xFF,	0xFF,	0xFF,	0xFF,	0xFF,	//6-16 
.................... 0xFF,	0xFF,	0xFF,	0xFF,	0xFF,	0xFF,	0xFF,	0xFF,	//6-17 
.................... 0xFF,	0xFF,	0xFF,	0xFF,	0xFF,	0xFF,	0xFF,	0xFF,	//6-18 
.................... 0xFF,	0xFF,	0xFF,	0xFF,	0xFF,	0xFF,	0xFF,	0xFF,	//6-19 
.................... 0xFF,	0xFF,	0xFF,	0xFF,	0xFF,	0xFF,	0xFF,	0xFF,	//6-20 
.................... 0xFF,	0xFF,	0xFF,	0xFF,	0xFF,	0xFF,	0xFF,	0xFF,	//6-21 
.................... 0xFF,	0xFF,	0xFF,	0xFF,	0xFF,	0xFF,	0xFF,	0xFF,	//6-22 
.................... 0xFF,	0xFF,	0xFF,	0xFF,	0xFF,	0xFF,	0xFF,	0xFF,	//6-23 
.................... 0xFF,	0xFF,	0xFF,	0xFF,	0xFF,	0xFF,	0xFF,	0xFF,	//6-24 
.................... 0xFF,	0xFF,	0xFF,	0xFF,	0xFF,	0xFF,	0xFF,	0xFF,	//6-25 
.................... 0xFF,	0xFF,	0xFF,	0xFF,	0xFF,	0xFF,	0xFF,	0xFF,	//6-26 
.................... 0xFF,	0xFF,	0xFF,	0xFF,	0xFF,	0xFF,	0xFF,	0xFF,	//6-27 
.................... 0xFF,	0xFF,	0xFF,	0xFF,	0xFF,	0xFF,	0xFF,	0xFF,	//6-28 
.................... 0xFF,	0xFF,	0xFF,	0xFF,	0xFF,	0xFF,	0xFF,	0xFF,	//6-29 
.................... 0xFF,	0xFF,	0xFF,	0xFF,	0xFF,	0xFF,	0xFF,	0xFF,	//6-30 
.................... 0xFF,	0xFF,	0xFF,	0xFF,	0xFF,	0xFF,	0xFF,	0xFF,	//6-31 
.................... 0xFF,	0xFF,	0xFF,	0xFF,	0xFF,	0xFF,	0xFF,	0xFF,	//6-32 
.................... },{								 
.................... 0xFF,	0xFF,	0xFF,	0xFF,	0xFF,	0xFF,	0xFF,	0xFF,	//7-1 
.................... 0xFF,	0xFF,	0xFF,	0xFF,	0xFF,	0xFF,	0xFF,	0xFF,	//7-2 
.................... 0xFF,	0xFF,	0xFF,	0xFF,	0xFF,	0xFF,	0xFF,	0xFF,	//7-3 
.................... 0xFF,	0xFF,	0xFF,	0xFF,	0xFF,	0xFF,	0xFF,	0xFF,	//7-4 
.................... 0xFF,	0xFF,	0xFF,	0xFF,	0xFF,	0xFF,	0xFF,	0xFF,	//7-5 
.................... 0xFF,	0xFF,	0xFF,	0xFF,	0xFF,	0xFF,	0xFF,	0xFF,	//7-6 
.................... 0xFF,	0xFF,	0xFF,	0xFF,	0xFF,	0xFF,	0xFF,	0xFF,	//7-7 
.................... 0xFF,	0xFF,	0xFF,	0xFF,	0xFF,	0xFF,	0xFF,	0xFF,	//7-8 
.................... 0xFF,	0xFF,	0xFF,	0xFF,	0xFF,	0xFF,	0xFF,	0xFF,	//7-9 
.................... 0xFF,	0xFF,	0xFF,	0xFF,	0xFF,	0xFF,	0xFF,	0xFF,	//7-10 
.................... 0xFF,	0xFF,	0xFF,	0xFF,	0xFF,	0xFF,	0xFF,	0xFF,	//7-11 
.................... 0xFF,	0xFF,	0xFF,	0xFF,	0xFF,	0xFF,	0xFF,	0xFF,	//7-12 
.................... 0xFF,	0xFF,	0xFF,	0xFF,	0xFF,	0xFF,	0xFF,	0xFF,	//7-13 
.................... 0xFF,	0xFF,	0xFF,	0xFF,	0xFF,	0xFF,	0xFF,	0xFF,	//7-14 
.................... 0xFF,	0xFF,	0xFF,	0xFF,	0xFF,	0xFF,	0xFF,	0xFF,	//7-15 
.................... 0xFF,	0xFF,	0xFF,	0xFF,	0xFF,	0xFF,	0xFF,	0xFF,	//7-16 
.................... 0xFF,	0xFF,	0xFF,	0xFF,	0xFF,	0xFF,	0xFF,	0xFF,	//7-17 
.................... 0xFF,	0xFF,	0xFF,	0xFF,	0xFF,	0xFF,	0xFF,	0xFF,	//7-18 
.................... 0xFF,	0xFF,	0xFF,	0xFF,	0xFF,	0xFF,	0xFF,	0xFF,	//7-19 
.................... 0xFF,	0xFF,	0xFF,	0xFF,	0xFF,	0xFF,	0xFF,	0xFF,	//7-20 
.................... 0xFF,	0xFF,	0xFF,	0xFF,	0xFF,	0xFF,	0xFF,	0xFF,	//7-21 
.................... 0xFF,	0xFF,	0xFF,	0xFF,	0xFF,	0xFF,	0xFF,	0xFF,	//7-22 
.................... 0xFF,	0xFF,	0xFF,	0xFF,	0xFF,	0xFF,	0xFF,	0xFF,	//7-23 
.................... 0xFF,	0xFF,	0xFF,	0xFF,	0xFF,	0xFF,	0xFF,	0xFF,	//7-24 
.................... 0xFF,	0xFF,	0xFF,	0xFF,	0xFF,	0xFF,	0xFF,	0xFF,	//7-25 
.................... 0xFF,	0xFF,	0xFF,	0xFF,	0xFF,	0xFF,	0xFF,	0xFF,	//7-26 
.................... 0xFF,	0xFF,	0xFF,	0xFF,	0xFF,	0xFF,	0xFF,	0xFF,	//7-27 
.................... 0xFF,	0xFF,	0xFF,	0xFF,	0xFF,	0xFF,	0xFF,	0xFF,	//7-28 
.................... 0xFF,	0xFF,	0xFF,	0xFF,	0xFF,	0xFF,	0xFF,	0xFF,	//7-29 
.................... 0xFF,	0xFF,	0xFF,	0xFF,	0xFF,	0xFF,	0xFF,	0xFF,	//7-30 
.................... 0xFF,	0xFF,	0xFF,	0xFF,	0xFF,	0xFF,	0xFF,	0xFF,	//7-31 
.................... 0xFF,	0xFF,	0xFF,	0xFF,	0xFF,	0xFF,	0xFF,	0xFF,	//7-32 
.................... },{								 
.................... 0x00,	0x08,	0x10,	0x18,	0x20,	0x28,	0x30,	0x38,	//8-1 
.................... 0x40,	0x48,	0x50,	0x58,	0x60,	0x68,	0x70,	0x78,	//8-2 
.................... 0x80,	0x88,	0x90,	0x98,	0xA0,	0xA8,	0xB0,	0xB8,	//8-3 
.................... 0xC0,	0xC8,	0xD0,	0xD8,	0xE0,	0xE8,	0xF0,	0xE8,	//8-4 
.................... 0xE0,	0xD8,	0xD0,	0xC8,	0xC0,	0xB8,	0xB0,	0xA8,	//8-5 
.................... 0xA0,	0x98,	0x90,	0x88,	0x80,	0x78,	0x70,	0x68,	//8-6 
.................... 0x60,	0x58,	0x50,	0x48,	0x40,	0x38,	0x30,	0x28,	//8-7 
.................... 0x20,	0x18,	0x10,	0x08,	0x00,	0x08,	0x10,	0x18,	//8-8 
.................... 0x20,	0x28,	0x30,	0x38,	0x40,	0x48,	0x50,	0x58,	//8-9 
.................... 0x60,	0x68,	0x70,	0x78,	0x80,	0x88,	0x90,	0x98,	//8-10 
.................... 0xA0,	0xA8,	0xB0,	0xB8,	0xC0,	0xC8,	0xD0,	0xD8,	//8-11 
.................... 0xE0,	0xE8,	0xF0,	0xE8,	0xE0,	0xD8,	0xD0,	0xC8,	//8-12 
.................... 0xC0,	0xB8,	0xB0,	0xA8,	0xA0,	0x98,	0x90,	0x88,	//8-13 
.................... 0x80,	0x78,	0x70,	0x68,	0x60,	0x58,	0x50,	0x48,	//8-14 
.................... 0x40,	0x38,	0x30,	0x28,	0x20,	0x18,	0x10,	0x08,	//8-15 
.................... 0x00,	0x08,	0x10,	0x18,	0x20,	0x28,	0x30,	0x38,	//8-16 
.................... 0x40,	0x48,	0x50,	0x58,	0x60,	0x68,	0x70,	0x78,	//8-17 
.................... 0x80,	0x88,	0x90,	0x98,	0xA0,	0xA8,	0xB0,	0xB8,	//8-18 
.................... 0xC0,	0xC8,	0xD0,	0xD8,	0xE0,	0xE8,	0xF0,	0xE8,	//8-19 
.................... 0xE0,	0xD8,	0xD0,	0xC8,	0xC0,	0xB8,	0xB0,	0xA8,	//8-20 
.................... 0xA0,	0x98,	0x90,	0x88,	0x80,	0x78,	0x70,	0x68,	//8-21 
.................... 0x60,	0x58,	0x50,	0x48,	0x40,	0x38,	0x30,	0x28,	//8-22 
.................... 0x20,	0x18,	0x10,	0x08,	0x00,	0x08,	0x10,	0x18,	//8-23 
.................... 0x20,	0x28,	0x30,	0x38,	0x40,	0x48,	0x50,	0x58,	//8-24 
.................... 0x60,	0x68,	0x70,	0x78,	0x80,	0x88,	0x90,	0x98,	//8-25 
.................... 0xA0,	0xA8,	0xB0,	0xB8,	0xC0,	0xC8,	0xD0,	0xD8,	//8-26 
.................... 0xE0,	0xE8,	0xF0,	0xE8,	0xE0,	0xD8,	0xD0,	0xC8,	//8-27 
.................... 0xC0,	0xB8,	0xB0,	0xA8,	0xA0,	0x98,	0x90,	0x88,	//8-28 
.................... 0x80,	0x78,	0x70,	0x68,	0x60,	0x58,	0x50,	0x48,	//8-29 
.................... 0x40,	0x38,	0x30,	0x28,	0x20,	0x18,	0x10,	0x08,	//8-30 
.................... 0x00,	0x20,	0x40,	0x60,	0x80,	0xA0,	0xC0,	0xE0,	//8-31 
.................... 0xFF,	0xDF,	0xBF,	0x9F,	0x7F,	0x5F,	0x3F,	0x3F,	//8-32 
.................... },{								 
.................... 0x00,	0x00,	0x00,	0x80,	0x80,	0x80,	0x80,	0x00,	//9-1 
.................... 0x00,	0x00,	0xFF,	0xFF,	0xFF,	0xFF,	0x00,	0x00,	//9-2 
.................... 0x00,	0x80,	0x80,	0x80,	0x80,	0x00,	0x00,	0x00,	//9-3 
.................... 0x80,	0x80,	0x80,	0x80,	0x00,	0x00,	0x00,	0xFF,	//9-4 
.................... 0xFF,	0xFF,	0xFF,	0x00,	0x00,	0x00,	0x80,	0x80,	//9-5 
.................... 0x80,	0x80,	0x00,	0x00,	0x00,	0xFF,	0xFF,	0xFF,	//9-6 
.................... 0xFF,	0x00,	0x00,	0x00,	0xFF,	0xFF,	0xFF,	0xFF,	//9-7 
.................... 0x00,	0x00,	0x00,	0x80,	0x80,	0x80,	0x80,	0x00,	//9-8 
.................... 0x00,	0x00,	0xFF,	0xFF,	0xFF,	0xFF,	0x00,	0x00,	//9-9 
.................... 0x00,	0x80,	0x80,	0x80,	0x80,	0x00,	0x00,	0x00,	//9-10 
.................... 0x80,	0x80,	0x80,	0x80,	0x00,	0x00,	0x00,	0xFF,	//9-11 
.................... 0xFF,	0xFF,	0xFF,	0x00,	0x00,	0x00,	0x80,	0x80,	//9-12 
.................... 0x80,	0x80,	0x00,	0x00,	0x00,	0xFF,	0xFF,	0xFF,	//9-13 
.................... 0xFF,	0x00,	0x00,	0x00,	0xFF,	0xFF,	0xFF,	0xFF,	//9-14 
.................... 0x00,	0x00,	0x00,	0x80,	0x80,	0x80,	0x80,	0x00,	//9-15 
.................... 0x00,	0x00,	0xFF,	0xFF,	0xFF,	0xFF,	0x00,	0x00,	//9-16 
.................... 0x00,	0x80,	0x80,	0x80,	0x80,	0x00,	0x00,	0x00,	//9-17 
.................... 0x80,	0x80,	0x80,	0x80,	0x00,	0x00,	0x00,	0xFF,	//9-18 
.................... 0xFF,	0xFF,	0xFF,	0x00,	0x00,	0x00,	0x80,	0x80,	//9-19 
.................... 0x80,	0x80,	0x00,	0x00,	0x00,	0xFF,	0xFF,	0xFF,	//9-20 
.................... 0xFF,	0x00,	0x00,	0x00,	0xFF,	0xFF,	0xFF,	0xFF,	//9-21 
.................... 0x00,	0x00,	0x00,	0x80,	0x80,	0x80,	0x80,	0x00,	//9-22 
.................... 0x00,	0x00,	0xFF,	0xFF,	0xFF,	0xFF,	0x00,	0x00,	//9-23 
.................... 0x00,	0x80,	0x80,	0x80,	0x80,	0x00,	0x00,	0x00,	//9-24 
.................... 0x80,	0x80,	0x80,	0x80,	0x00,	0x00,	0x00,	0xFF,	//9-25 
.................... 0xFF,	0xFF,	0xFF,	0x00,	0x00,	0x00,	0x80,	0x80,	//9-26 
.................... 0x80,	0x80,	0x00,	0x00,	0x00,	0xFF,	0xFF,	0xFF,	//9-27 
.................... 0xFF,	0x00,	0x00,	0x00,	0xFF,	0xFF,	0xFF,	0xFF,	//9-28 
.................... 0x00,	0x00,	0x00,	0x40,	0x40,	0x40,	0x40,	0x00,	//9-29 
.................... 0x00,	0x00,	0xFF,	0xFF,	0xFF,	0xFF,	0x00,	0x00,	//9-30 
.................... 0x00,	0x40,	0x40,	0x40,	0x40,	0x00,	0x00,	0x00,	//9-31 
.................... 0x40,	0x40,	0x40,	0x40,	0x00,	0x00,	0xFF,	0xFF,	//9-32 
.................... }								 
.................... };								 
....................  
.................... //		ff 00 00 
.................... //IW	ff b7 4c 
.................... //		ff ff 00 
.................... //		ff ff ff 
.................... //		00 ff 00 
.................... //		00 00 ff 
.................... //		c4 00 cc 
.................... //sN	ef 8f 9c 
....................  
.................... //`FbNp 
.................... int ws281x_buffer_r[257]; 
.................... int ws281x_buffer_g[257]; 
.................... int ws281x_buffer_b[257]; 
....................  
.................... // 
.................... long ws281x_led_value = 256; 
.................... int ws281x_pattern_value = 10;// 
.................... //int ws281x_process_one = 0; 
.................... //long ws281x_step = 0; 
.................... //int ws281x_pattern_index = 0;// 
.................... //int ws281x_mode = 0;// 
.................... //int ws281x_mode_weight = 0;//100~ 
.................... //int ws281x_mode_weight_count = 0;// 
.................... //int ws281x_powereffect = 100;//ol floatH 
.................... int ws281x_status = 0;//mode=30gp 
.................... int ws281x_checkcount = 0;//mode=30gp 
....................  
.................... //J[p^[obt@ 
.................... void ws281x_color_set(int set_index){ 
*
03BA6:  MOVLB  4
03BA8:  CLRF   x43
03BAA:  CLRF   x42
.................... 	 
.................... 	long tmp1 = 0; 
....................  
.................... 	for(tmp1=0;tmp1<ws281x_led_value;tmp1++){ 
03BAC:  CLRF   x43
03BAE:  CLRF   x42
03BB0:  MOVF   x43,W
03BB2:  SUBWF  x38,W
03BB4:  BTFSS  FD8.0
03BB6:  BRA    3E22
03BB8:  BNZ   3BC2
03BBA:  MOVF   x37,W
03BBC:  SUBWF  x42,W
03BBE:  BTFSC  FD8.0
03BC0:  BRA    3E22
.................... 		ws281x_buffer_r[tmp1] = ws281x_color_r[set_index][tmp1]*(Illumi_brightness*0.01); 
03BC2:  MOVLW  34
03BC4:  ADDWF  x42,W
03BC6:  MOVWF  FE9
03BC8:  MOVLW  01
03BCA:  ADDWFC x43,W
03BCC:  MOVWF  FEA
03BCE:  CLRF   x55
03BD0:  MOVFF  441,454
03BD4:  MOVLW  01
03BD6:  MOVWF  x57
03BD8:  CLRF   x56
03BDA:  MOVLB  0
03BDC:  RCALL  3A1C
03BDE:  MOVFF  02,447
03BE2:  MOVFF  01,446
03BE6:  MOVLB  4
03BE8:  MOVF   x42,W
03BEA:  ADDWF  01,W
03BEC:  MOVWF  01
03BEE:  MOVF   x43,W
03BF0:  ADDWFC 02,W
03BF2:  MOVWF  03
03BF4:  MOVF   01,W
03BF6:  MOVFF  03,FF7
03BFA:  MOVLB  0
03BFC:  CALL   00BA
03C00:  MOVLB  4
03C02:  MOVWF  x46
03C04:  CLRF   x4C
03C06:  MOVFF  133,44B
03C0A:  MOVLB  0
03C0C:  RCALL  3A3E
03C0E:  MOVFF  03,44E
03C12:  MOVFF  02,44D
03C16:  MOVFF  01,44C
03C1A:  MOVFF  00,44B
03C1E:  MOVLW  0A
03C20:  MOVLB  4
03C22:  MOVWF  x52
03C24:  MOVLW  D7
03C26:  MOVWF  x51
03C28:  MOVLW  23
03C2A:  MOVWF  x50
03C2C:  MOVLW  78
03C2E:  MOVWF  x4F
03C30:  MOVLB  0
03C32:  RCALL  3A74
03C34:  MOVFF  00,447
03C38:  MOVFF  01,448
03C3C:  MOVFF  02,449
03C40:  MOVFF  03,44A
03C44:  MOVLB  4
03C46:  CLRF   x4C
03C48:  MOVFF  446,44B
03C4C:  MOVLB  0
03C4E:  RCALL  3A3E
03C50:  MOVFF  03,44E
03C54:  MOVFF  02,44D
03C58:  MOVFF  01,44C
03C5C:  MOVFF  00,44B
03C60:  MOVFF  44A,452
03C64:  MOVFF  449,451
03C68:  MOVFF  448,450
03C6C:  MOVFF  447,44F
03C70:  RCALL  3A74
03C72:  MOVFF  03,44E
03C76:  MOVFF  02,44D
03C7A:  MOVFF  01,44C
03C7E:  MOVFF  00,44B
03C82:  RCALL  3B6A
03C84:  MOVFF  01,FEF
.................... 		ws281x_buffer_g[tmp1] = ws281x_color_g[set_index][tmp1]*(Illumi_brightness*0.01); 
03C88:  MOVLW  35
03C8A:  MOVLB  4
03C8C:  ADDWF  x42,W
03C8E:  MOVWF  FE9
03C90:  MOVLW  02
03C92:  ADDWFC x43,W
03C94:  MOVWF  FEA
03C96:  CLRF   x55
03C98:  MOVFF  441,454
03C9C:  MOVLW  01
03C9E:  MOVWF  x57
03CA0:  CLRF   x56
03CA2:  MOVLB  0
03CA4:  RCALL  3A1C
03CA6:  MOVFF  02,447
03CAA:  MOVFF  01,446
03CAE:  MOVLB  4
03CB0:  MOVF   x42,W
03CB2:  ADDWF  01,W
03CB4:  MOVWF  01
03CB6:  MOVF   x43,W
03CB8:  ADDWFC 02,W
03CBA:  MOVWF  03
03CBC:  MOVF   01,W
03CBE:  MOVFF  03,FF7
03CC2:  MOVLB  0
03CC4:  CALL   0AC8
03CC8:  MOVLB  4
03CCA:  MOVWF  x46
03CCC:  CLRF   x4C
03CCE:  MOVFF  133,44B
03CD2:  MOVLB  0
03CD4:  RCALL  3A3E
03CD6:  MOVFF  03,44E
03CDA:  MOVFF  02,44D
03CDE:  MOVFF  01,44C
03CE2:  MOVFF  00,44B
03CE6:  MOVLW  0A
03CE8:  MOVLB  4
03CEA:  MOVWF  x52
03CEC:  MOVLW  D7
03CEE:  MOVWF  x51
03CF0:  MOVLW  23
03CF2:  MOVWF  x50
03CF4:  MOVLW  78
03CF6:  MOVWF  x4F
03CF8:  MOVLB  0
03CFA:  RCALL  3A74
03CFC:  MOVFF  00,447
03D00:  MOVFF  01,448
03D04:  MOVFF  02,449
03D08:  MOVFF  03,44A
03D0C:  MOVLB  4
03D0E:  CLRF   x4C
03D10:  MOVFF  446,44B
03D14:  MOVLB  0
03D16:  RCALL  3A3E
03D18:  MOVFF  03,44E
03D1C:  MOVFF  02,44D
03D20:  MOVFF  01,44C
03D24:  MOVFF  00,44B
03D28:  MOVFF  44A,452
03D2C:  MOVFF  449,451
03D30:  MOVFF  448,450
03D34:  MOVFF  447,44F
03D38:  RCALL  3A74
03D3A:  MOVFF  03,44E
03D3E:  MOVFF  02,44D
03D42:  MOVFF  01,44C
03D46:  MOVFF  00,44B
03D4A:  RCALL  3B6A
03D4C:  MOVFF  01,FEF
.................... 		ws281x_buffer_b[tmp1] = ws281x_color_b[set_index][tmp1]*(Illumi_brightness*0.01); 
03D50:  MOVLW  36
03D52:  MOVLB  4
03D54:  ADDWF  x42,W
03D56:  MOVWF  FE9
03D58:  MOVLW  03
03D5A:  ADDWFC x43,W
03D5C:  MOVWF  FEA
03D5E:  CLRF   x55
03D60:  MOVFF  441,454
03D64:  MOVLW  01
03D66:  MOVWF  x57
03D68:  CLRF   x56
03D6A:  MOVLB  0
03D6C:  RCALL  3A1C
03D6E:  MOVFF  02,447
03D72:  MOVFF  01,446
03D76:  MOVLB  4
03D78:  MOVF   x42,W
03D7A:  ADDWF  01,W
03D7C:  MOVWF  01
03D7E:  MOVF   x43,W
03D80:  ADDWFC 02,W
03D82:  MOVWF  03
03D84:  MOVF   01,W
03D86:  MOVFF  03,FF7
03D8A:  MOVLB  0
03D8C:  CALL   14D6
03D90:  MOVLB  4
03D92:  MOVWF  x46
03D94:  CLRF   x4C
03D96:  MOVFF  133,44B
03D9A:  MOVLB  0
03D9C:  RCALL  3A3E
03D9E:  MOVFF  03,44E
03DA2:  MOVFF  02,44D
03DA6:  MOVFF  01,44C
03DAA:  MOVFF  00,44B
03DAE:  MOVLW  0A
03DB0:  MOVLB  4
03DB2:  MOVWF  x52
03DB4:  MOVLW  D7
03DB6:  MOVWF  x51
03DB8:  MOVLW  23
03DBA:  MOVWF  x50
03DBC:  MOVLW  78
03DBE:  MOVWF  x4F
03DC0:  MOVLB  0
03DC2:  RCALL  3A74
03DC4:  MOVFF  00,447
03DC8:  MOVFF  01,448
03DCC:  MOVFF  02,449
03DD0:  MOVFF  03,44A
03DD4:  MOVLB  4
03DD6:  CLRF   x4C
03DD8:  MOVFF  446,44B
03DDC:  MOVLB  0
03DDE:  RCALL  3A3E
03DE0:  MOVFF  03,44E
03DE4:  MOVFF  02,44D
03DE8:  MOVFF  01,44C
03DEC:  MOVFF  00,44B
03DF0:  MOVFF  44A,452
03DF4:  MOVFF  449,451
03DF8:  MOVFF  448,450
03DFC:  MOVFF  447,44F
03E00:  RCALL  3A74
03E02:  MOVFF  03,44E
03E06:  MOVFF  02,44D
03E0A:  MOVFF  01,44C
03E0E:  MOVFF  00,44B
03E12:  RCALL  3B6A
03E14:  MOVFF  01,FEF
.................... 	} 
03E18:  MOVLB  4
03E1A:  INCF   x42,F
03E1C:  BTFSC  FD8.2
03E1E:  INCF   x43,F
03E20:  BRA    3BB0
.................... } 
03E22:  MOVLB  0
03E24:  RETURN 0
....................  
.................... //J[ 
.................... void ws281x_mode_set(int mode){ 
*
04226:  MOVLB  4
04228:  CLRF   x43
0422A:  CLRF   x42
0422C:  CLRF   x45
0422E:  CLRF   x44
04230:  CLRF   x46
04232:  CLRF   x47
04234:  CLRF   x48
.................... 	long tmp1 = 0; 
.................... 	long tmp2 = 0; 
.................... 	int tmp_r = 0; 
.................... 	int tmp_g = 0; 
.................... 	int tmp_b = 0; 
....................  
.................... 	//if(ws281x_mode_weight == ws281x_mode_weight_count){ 
.................... 	//	ws281x_mode_weight_count = 0; 
....................  
.................... 		if(mode == 0){ 
04236:  MOVF   x41,F
04238:  BNZ   423E
.................... 			// 
....................  
.................... 		}else if(mode == 1){ 
0423A:  GOTO   5DC4
0423E:  DECFSZ x41,W
04240:  BRA    436C
.................... 			//down() 
.................... 			tmp_r = ws281x_buffer_r[0]; 
04242:  MOVFF  134,446
.................... 			tmp_g = ws281x_buffer_g[0]; 
04246:  MOVFF  235,447
.................... 			tmp_b = ws281x_buffer_b[0]; 
0424A:  MOVFF  336,448
.................... 			for(tmp1=0;tmp1<ws281x_led_value-1;tmp1++){ 
0424E:  CLRF   x43
04250:  CLRF   x42
04252:  MOVLW  01
04254:  SUBWF  x37,W
04256:  MOVWF  00
04258:  MOVLW  00
0425A:  SUBWFB x38,W
0425C:  MOVWF  03
0425E:  MOVFF  00,01
04262:  MOVF   x43,W
04264:  SUBWF  03,W
04266:  BNC   4314
04268:  BNZ   4270
0426A:  MOVF   01,W
0426C:  SUBWF  x42,W
0426E:  BC    4314
.................... 				ws281x_buffer_r[tmp1] = ws281x_buffer_r[tmp1+1]; 
04270:  MOVLW  34
04272:  ADDWF  x42,W
04274:  MOVWF  01
04276:  MOVLW  01
04278:  ADDWFC x43,W
0427A:  MOVWF  03
0427C:  MOVLW  01
0427E:  ADDWF  x42,W
04280:  MOVWF  x4B
04282:  MOVLW  00
04284:  ADDWFC x43,W
04286:  MOVWF  x4C
04288:  MOVLW  34
0428A:  ADDWF  x4B,W
0428C:  MOVWF  FE9
0428E:  MOVLW  01
04290:  ADDWFC x4C,W
04292:  MOVWF  FEA
04294:  MOVFF  FEF,44D
04298:  MOVFF  03,FEA
0429C:  MOVFF  01,FE9
042A0:  MOVFF  44D,FEF
.................... 				ws281x_buffer_g[tmp1] = ws281x_buffer_g[tmp1+1]; 
042A4:  MOVLW  35
042A6:  ADDWF  x42,W
042A8:  MOVWF  01
042AA:  MOVLW  02
042AC:  ADDWFC x43,W
042AE:  MOVWF  03
042B0:  MOVLW  01
042B2:  ADDWF  x42,W
042B4:  MOVWF  x4B
042B6:  MOVLW  00
042B8:  ADDWFC x43,W
042BA:  MOVWF  x4C
042BC:  MOVLW  35
042BE:  ADDWF  x4B,W
042C0:  MOVWF  FE9
042C2:  MOVLW  02
042C4:  ADDWFC x4C,W
042C6:  MOVWF  FEA
042C8:  MOVFF  FEF,44D
042CC:  MOVFF  03,FEA
042D0:  MOVFF  01,FE9
042D4:  MOVFF  44D,FEF
.................... 				ws281x_buffer_b[tmp1] = ws281x_buffer_b[tmp1+1]; 
042D8:  MOVLW  36
042DA:  ADDWF  x42,W
042DC:  MOVWF  01
042DE:  MOVLW  03
042E0:  ADDWFC x43,W
042E2:  MOVWF  03
042E4:  MOVLW  01
042E6:  ADDWF  x42,W
042E8:  MOVWF  x4B
042EA:  MOVLW  00
042EC:  ADDWFC x43,W
042EE:  MOVWF  x4C
042F0:  MOVLW  36
042F2:  ADDWF  x4B,W
042F4:  MOVWF  FE9
042F6:  MOVLW  03
042F8:  ADDWFC x4C,W
042FA:  MOVWF  FEA
042FC:  MOVFF  FEF,44D
04300:  MOVFF  03,FEA
04304:  MOVFF  01,FE9
04308:  MOVFF  44D,FEF
.................... 			} 
0430C:  INCF   x42,F
0430E:  BTFSC  FD8.2
04310:  INCF   x43,F
04312:  BRA    4252
.................... 			ws281x_buffer_r[ws281x_led_value-1] = tmp_r; 
04314:  MOVLW  01
04316:  SUBWF  x37,W
04318:  MOVWF  x49
0431A:  MOVLW  00
0431C:  SUBWFB x38,W
0431E:  MOVWF  x4A
04320:  MOVLW  34
04322:  ADDWF  x49,W
04324:  MOVWF  FE9
04326:  MOVLW  01
04328:  ADDWFC x4A,W
0432A:  MOVWF  FEA
0432C:  MOVFF  446,FEF
.................... 			ws281x_buffer_g[ws281x_led_value-1] = tmp_g; 
04330:  MOVLW  01
04332:  SUBWF  x37,W
04334:  MOVWF  x49
04336:  MOVLW  00
04338:  SUBWFB x38,W
0433A:  MOVWF  x4A
0433C:  MOVLW  35
0433E:  ADDWF  x49,W
04340:  MOVWF  FE9
04342:  MOVLW  02
04344:  ADDWFC x4A,W
04346:  MOVWF  FEA
04348:  MOVFF  447,FEF
.................... 			ws281x_buffer_b[ws281x_led_value-1] = tmp_b; 
0434C:  MOVLW  01
0434E:  SUBWF  x37,W
04350:  MOVWF  x49
04352:  MOVLW  00
04354:  SUBWFB x38,W
04356:  MOVWF  x4A
04358:  MOVLW  36
0435A:  ADDWF  x49,W
0435C:  MOVWF  FE9
0435E:  MOVLW  03
04360:  ADDWFC x4A,W
04362:  MOVWF  FEA
04364:  MOVFF  448,FEF
.................... 		}else if(mode == 2){ 
04368:  GOTO   5DC4
0436C:  MOVF   x41,W
0436E:  SUBLW  02
04370:  BNZ   4450
.................... 			//up() 
....................  
.................... 			for(tmp1=ws281x_led_value;tmp1>0;tmp1--){ 
04372:  MOVFF  438,443
04376:  MOVFF  437,442
0437A:  MOVF   x42,F
0437C:  BNZ   4382
0437E:  MOVF   x43,F
04380:  BZ    4410
.................... 				tmp2 = tmp1-1; 
04382:  MOVLW  01
04384:  SUBWF  x42,W
04386:  MOVWF  x44
04388:  MOVLW  00
0438A:  SUBWFB x43,W
0438C:  MOVWF  x45
.................... 				ws281x_buffer_r[tmp1] = ws281x_buffer_r[tmp2]; 
0438E:  MOVLW  34
04390:  ADDWF  x42,W
04392:  MOVWF  01
04394:  MOVLW  01
04396:  ADDWFC x43,W
04398:  MOVWF  03
0439A:  MOVLW  34
0439C:  ADDWF  x44,W
0439E:  MOVWF  FE9
043A0:  MOVLW  01
043A2:  ADDWFC x45,W
043A4:  MOVWF  FEA
043A6:  MOVFF  FEF,44B
043AA:  MOVFF  03,FEA
043AE:  MOVFF  01,FE9
043B2:  MOVFF  44B,FEF
.................... 				ws281x_buffer_g[tmp1] = ws281x_buffer_g[tmp2]; 
043B6:  MOVLW  35
043B8:  ADDWF  x42,W
043BA:  MOVWF  01
043BC:  MOVLW  02
043BE:  ADDWFC x43,W
043C0:  MOVWF  03
043C2:  MOVLW  35
043C4:  ADDWF  x44,W
043C6:  MOVWF  FE9
043C8:  MOVLW  02
043CA:  ADDWFC x45,W
043CC:  MOVWF  FEA
043CE:  MOVFF  FEF,44B
043D2:  MOVFF  03,FEA
043D6:  MOVFF  01,FE9
043DA:  MOVFF  44B,FEF
.................... 				ws281x_buffer_b[tmp1] = ws281x_buffer_b[tmp2]; 
043DE:  MOVLW  36
043E0:  ADDWF  x42,W
043E2:  MOVWF  01
043E4:  MOVLW  03
043E6:  ADDWFC x43,W
043E8:  MOVWF  03
043EA:  MOVLW  36
043EC:  ADDWF  x44,W
043EE:  MOVWF  FE9
043F0:  MOVLW  03
043F2:  ADDWFC x45,W
043F4:  MOVWF  FEA
043F6:  MOVFF  FEF,44B
043FA:  MOVFF  03,FEA
043FE:  MOVFF  01,FE9
04402:  MOVFF  44B,FEF
.................... 			} 
04406:  MOVF   x42,W
04408:  BTFSC  FD8.2
0440A:  DECF   x43,F
0440C:  DECF   x42,F
0440E:  BRA    437A
.................... 			ws281x_buffer_r[0] = ws281x_buffer_r[ws281x_led_value]; 
04410:  MOVLW  34
04412:  ADDWF  x37,W
04414:  MOVWF  FE9
04416:  MOVLW  01
04418:  ADDWFC x38,W
0441A:  MOVWF  FEA
0441C:  MOVFF  FEF,134
04420:  MOVLB  1
.................... 			ws281x_buffer_g[0] = ws281x_buffer_g[ws281x_led_value]; 
04422:  MOVLW  35
04424:  MOVLB  4
04426:  ADDWF  x37,W
04428:  MOVWF  FE9
0442A:  MOVLW  02
0442C:  ADDWFC x38,W
0442E:  MOVWF  FEA
04430:  MOVFF  FEF,235
04434:  MOVLB  2
.................... 			ws281x_buffer_b[0] = ws281x_buffer_b[ws281x_led_value]; 
04436:  MOVLW  36
04438:  MOVLB  4
0443A:  ADDWF  x37,W
0443C:  MOVWF  FE9
0443E:  MOVLW  03
04440:  ADDWFC x38,W
04442:  MOVWF  FEA
04444:  MOVFF  FEF,336
04448:  MOVLB  3
....................  
.................... 			//tmp_r = ws281x_buffer_r[ws281x_led_value-1]; 
.................... 			//tmp_g = ws281x_buffer_g[ws281x_led_value-1]; 
.................... 			//tmp_b = ws281x_buffer_b[ws281x_led_value-1]; 
.................... 			//for(tmp1=0;tmp1<ws281x_led_value-1;tmp1++){ 
.................... 			//	ws281x_buffer_r[ws281x_led_value-tmp1-1] = ws281x_buffer_r[ws281x_led_value-tmp1-2]; 
.................... 			//	ws281x_buffer_g[ws281x_led_value-tmp1-1] = ws281x_buffer_g[ws281x_led_value-tmp1-2]; 
.................... 			//	ws281x_buffer_b[ws281x_led_value-tmp1-1] = ws281x_buffer_b[ws281x_led_value-tmp1-2]; 
.................... 			//} 
.................... 			//ws281x_buffer_r[0] = tmp_r; 
.................... 			//ws281x_buffer_g[0] = tmp_g; 
.................... 			//ws281x_buffer_b[0] = tmp_b; 
.................... 		}else if(mode == 3){ 
0444A:  GOTO   5DC6
0444E:  MOVLB  4
04450:  MOVF   x41,W
04452:  SUBLW  03
04454:  BNZ   4520
.................... 			//ARs[c 
.................... 			for(tmp1=0;tmp1<ws281x_led_value-1;tmp1++){ 
04456:  CLRF   x43
04458:  CLRF   x42
0445A:  MOVLW  01
0445C:  SUBWF  x37,W
0445E:  MOVWF  00
04460:  MOVLW  00
04462:  SUBWFB x38,W
04464:  MOVWF  03
04466:  MOVFF  00,01
0446A:  MOVF   x43,W
0446C:  SUBWF  03,W
0446E:  BNC   451C
04470:  BNZ   4478
04472:  MOVF   01,W
04474:  SUBWF  x42,W
04476:  BC    451C
.................... 				ws281x_buffer_r[tmp1] = ws281x_buffer_r[tmp1+1]; 
04478:  MOVLW  34
0447A:  ADDWF  x42,W
0447C:  MOVWF  01
0447E:  MOVLW  01
04480:  ADDWFC x43,W
04482:  MOVWF  03
04484:  MOVLW  01
04486:  ADDWF  x42,W
04488:  MOVWF  x4B
0448A:  MOVLW  00
0448C:  ADDWFC x43,W
0448E:  MOVWF  x4C
04490:  MOVLW  34
04492:  ADDWF  x4B,W
04494:  MOVWF  FE9
04496:  MOVLW  01
04498:  ADDWFC x4C,W
0449A:  MOVWF  FEA
0449C:  MOVFF  FEF,44D
044A0:  MOVFF  03,FEA
044A4:  MOVFF  01,FE9
044A8:  MOVFF  44D,FEF
.................... 				ws281x_buffer_g[tmp1] = ws281x_buffer_g[tmp1+1]; 
044AC:  MOVLW  35
044AE:  ADDWF  x42,W
044B0:  MOVWF  01
044B2:  MOVLW  02
044B4:  ADDWFC x43,W
044B6:  MOVWF  03
044B8:  MOVLW  01
044BA:  ADDWF  x42,W
044BC:  MOVWF  x4B
044BE:  MOVLW  00
044C0:  ADDWFC x43,W
044C2:  MOVWF  x4C
044C4:  MOVLW  35
044C6:  ADDWF  x4B,W
044C8:  MOVWF  FE9
044CA:  MOVLW  02
044CC:  ADDWFC x4C,W
044CE:  MOVWF  FEA
044D0:  MOVFF  FEF,44D
044D4:  MOVFF  03,FEA
044D8:  MOVFF  01,FE9
044DC:  MOVFF  44D,FEF
.................... 				ws281x_buffer_b[tmp1] = ws281x_buffer_b[tmp1+1]; 
044E0:  MOVLW  36
044E2:  ADDWF  x42,W
044E4:  MOVWF  01
044E6:  MOVLW  03
044E8:  ADDWFC x43,W
044EA:  MOVWF  03
044EC:  MOVLW  01
044EE:  ADDWF  x42,W
044F0:  MOVWF  x4B
044F2:  MOVLW  00
044F4:  ADDWFC x43,W
044F6:  MOVWF  x4C
044F8:  MOVLW  36
044FA:  ADDWF  x4B,W
044FC:  MOVWF  FE9
044FE:  MOVLW  03
04500:  ADDWFC x4C,W
04502:  MOVWF  FEA
04504:  MOVFF  FEF,44D
04508:  MOVFF  03,FEA
0450C:  MOVFF  01,FE9
04510:  MOVFF  44D,FEF
.................... 			} 
04514:  INCF   x42,F
04516:  BTFSC  FD8.2
04518:  INCF   x43,F
0451A:  BRA    445A
.................... 		}else if(mode == 4){ 
0451C:  GOTO   5DC4
04520:  MOVF   x41,W
04522:  SUBLW  04
04524:  BTFSS  FD8.2
04526:  BRA    4648
.................... 			//ARs[c 
.................... 			for(tmp1=0;tmp1<ws281x_led_value-1;tmp1++){ 
04528:  CLRF   x43
0452A:  CLRF   x42
0452C:  MOVLW  01
0452E:  SUBWF  x37,W
04530:  MOVWF  00
04532:  MOVLW  00
04534:  SUBWFB x38,W
04536:  MOVWF  03
04538:  MOVFF  00,01
0453C:  MOVF   x43,W
0453E:  SUBWF  03,W
04540:  BTFSS  FD8.0
04542:  BRA    4644
04544:  BNZ   454C
04546:  MOVF   01,W
04548:  SUBWF  x42,W
0454A:  BC    4644
.................... 				ws281x_buffer_r[ws281x_led_value-tmp1-1] = ws281x_buffer_r[ws281x_led_value-tmp1-2]; 
0454C:  MOVF   x42,W
0454E:  SUBWF  x37,W
04550:  MOVWF  x49
04552:  MOVF   x43,W
04554:  SUBWFB x38,W
04556:  MOVWF  x4A
04558:  MOVLW  01
0455A:  SUBWF  x49,F
0455C:  MOVLW  00
0455E:  SUBWFB x4A,F
04560:  MOVLW  34
04562:  ADDWF  x49,W
04564:  MOVWF  01
04566:  MOVLW  01
04568:  ADDWFC x4A,W
0456A:  MOVWF  03
0456C:  MOVF   x42,W
0456E:  SUBWF  x37,W
04570:  MOVWF  x4D
04572:  MOVF   x43,W
04574:  SUBWFB x38,W
04576:  MOVWF  x4E
04578:  MOVLW  02
0457A:  SUBWF  x4D,F
0457C:  MOVLW  00
0457E:  SUBWFB x4E,F
04580:  MOVLW  34
04582:  ADDWF  x4D,W
04584:  MOVWF  FE9
04586:  MOVLW  01
04588:  ADDWFC x4E,W
0458A:  MOVWF  FEA
0458C:  MOVFF  FEF,44F
04590:  MOVFF  03,FEA
04594:  MOVFF  01,FE9
04598:  MOVFF  44F,FEF
.................... 				ws281x_buffer_g[ws281x_led_value-tmp1-1] = ws281x_buffer_g[ws281x_led_value-tmp1-2]; 
0459C:  MOVF   x42,W
0459E:  SUBWF  x37,W
045A0:  MOVWF  x49
045A2:  MOVF   x43,W
045A4:  SUBWFB x38,W
045A6:  MOVWF  x4A
045A8:  MOVLW  01
045AA:  SUBWF  x49,F
045AC:  MOVLW  00
045AE:  SUBWFB x4A,F
045B0:  MOVLW  35
045B2:  ADDWF  x49,W
045B4:  MOVWF  01
045B6:  MOVLW  02
045B8:  ADDWFC x4A,W
045BA:  MOVWF  03
045BC:  MOVF   x42,W
045BE:  SUBWF  x37,W
045C0:  MOVWF  x4D
045C2:  MOVF   x43,W
045C4:  SUBWFB x38,W
045C6:  MOVWF  x4E
045C8:  MOVLW  02
045CA:  SUBWF  x4D,F
045CC:  MOVLW  00
045CE:  SUBWFB x4E,F
045D0:  MOVLW  35
045D2:  ADDWF  x4D,W
045D4:  MOVWF  FE9
045D6:  MOVLW  02
045D8:  ADDWFC x4E,W
045DA:  MOVWF  FEA
045DC:  MOVFF  FEF,44F
045E0:  MOVFF  03,FEA
045E4:  MOVFF  01,FE9
045E8:  MOVFF  44F,FEF
.................... 				ws281x_buffer_b[ws281x_led_value-tmp1-1] = ws281x_buffer_b[ws281x_led_value-tmp1-2]; 
045EC:  MOVF   x42,W
045EE:  SUBWF  x37,W
045F0:  MOVWF  x49
045F2:  MOVF   x43,W
045F4:  SUBWFB x38,W
045F6:  MOVWF  x4A
045F8:  MOVLW  01
045FA:  SUBWF  x49,F
045FC:  MOVLW  00
045FE:  SUBWFB x4A,F
04600:  MOVLW  36
04602:  ADDWF  x49,W
04604:  MOVWF  01
04606:  MOVLW  03
04608:  ADDWFC x4A,W
0460A:  MOVWF  03
0460C:  MOVF   x42,W
0460E:  SUBWF  x37,W
04610:  MOVWF  x4D
04612:  MOVF   x43,W
04614:  SUBWFB x38,W
04616:  MOVWF  x4E
04618:  MOVLW  02
0461A:  SUBWF  x4D,F
0461C:  MOVLW  00
0461E:  SUBWFB x4E,F
04620:  MOVLW  36
04622:  ADDWF  x4D,W
04624:  MOVWF  FE9
04626:  MOVLW  03
04628:  ADDWFC x4E,W
0462A:  MOVWF  FEA
0462C:  MOVFF  FEF,44F
04630:  MOVFF  03,FEA
04634:  MOVFF  01,FE9
04638:  MOVFF  44F,FEF
.................... 			} 
0463C:  INCF   x42,F
0463E:  BTFSC  FD8.2
04640:  INCF   x43,F
04642:  BRA    452C
.................... 		}else if(mode == 5){ 
04644:  GOTO   5DC4
04648:  MOVF   x41,W
0464A:  SUBLW  05
0464C:  BTFSS  FD8.2
0464E:  BRA    495E
.................... 			//^O 
....................  
.................... 			//^ 
.................... 			tmp_r = ws281x_buffer_r[0]; 
04650:  MOVFF  134,446
.................... 			tmp_g = ws281x_buffer_g[0]; 
04654:  MOVFF  235,447
.................... 			tmp_b = ws281x_buffer_b[0]; 
04658:  MOVFF  336,448
.................... 			for(tmp1=0;tmp1<(ws281x_led_value/2)-1;tmp1++){ 
0465C:  CLRF   x43
0465E:  CLRF   x42
04660:  BCF    FD8.0
04662:  RRCF   x38,W
04664:  MOVWF  x4A
04666:  RRCF   x37,W
04668:  MOVWF  x49
0466A:  MOVLW  01
0466C:  SUBWF  x49,W
0466E:  MOVWF  00
04670:  MOVLW  00
04672:  SUBWFB x4A,W
04674:  MOVWF  03
04676:  MOVFF  00,01
0467A:  MOVF   x43,W
0467C:  SUBWF  03,W
0467E:  BNC   472C
04680:  BNZ   4688
04682:  MOVF   01,W
04684:  SUBWF  x42,W
04686:  BC    472C
.................... 				ws281x_buffer_r[tmp1] = ws281x_buffer_r[tmp1+1]; 
04688:  MOVLW  34
0468A:  ADDWF  x42,W
0468C:  MOVWF  01
0468E:  MOVLW  01
04690:  ADDWFC x43,W
04692:  MOVWF  03
04694:  MOVLW  01
04696:  ADDWF  x42,W
04698:  MOVWF  x4B
0469A:  MOVLW  00
0469C:  ADDWFC x43,W
0469E:  MOVWF  x4C
046A0:  MOVLW  34
046A2:  ADDWF  x4B,W
046A4:  MOVWF  FE9
046A6:  MOVLW  01
046A8:  ADDWFC x4C,W
046AA:  MOVWF  FEA
046AC:  MOVFF  FEF,44D
046B0:  MOVFF  03,FEA
046B4:  MOVFF  01,FE9
046B8:  MOVFF  44D,FEF
.................... 				ws281x_buffer_g[tmp1] = ws281x_buffer_g[tmp1+1]; 
046BC:  MOVLW  35
046BE:  ADDWF  x42,W
046C0:  MOVWF  01
046C2:  MOVLW  02
046C4:  ADDWFC x43,W
046C6:  MOVWF  03
046C8:  MOVLW  01
046CA:  ADDWF  x42,W
046CC:  MOVWF  x4B
046CE:  MOVLW  00
046D0:  ADDWFC x43,W
046D2:  MOVWF  x4C
046D4:  MOVLW  35
046D6:  ADDWF  x4B,W
046D8:  MOVWF  FE9
046DA:  MOVLW  02
046DC:  ADDWFC x4C,W
046DE:  MOVWF  FEA
046E0:  MOVFF  FEF,44D
046E4:  MOVFF  03,FEA
046E8:  MOVFF  01,FE9
046EC:  MOVFF  44D,FEF
.................... 				ws281x_buffer_b[tmp1] = ws281x_buffer_b[tmp1+1]; 
046F0:  MOVLW  36
046F2:  ADDWF  x42,W
046F4:  MOVWF  01
046F6:  MOVLW  03
046F8:  ADDWFC x43,W
046FA:  MOVWF  03
046FC:  MOVLW  01
046FE:  ADDWF  x42,W
04700:  MOVWF  x4B
04702:  MOVLW  00
04704:  ADDWFC x43,W
04706:  MOVWF  x4C
04708:  MOVLW  36
0470A:  ADDWF  x4B,W
0470C:  MOVWF  FE9
0470E:  MOVLW  03
04710:  ADDWFC x4C,W
04712:  MOVWF  FEA
04714:  MOVFF  FEF,44D
04718:  MOVFF  03,FEA
0471C:  MOVFF  01,FE9
04720:  MOVFF  44D,FEF
.................... 			} 
04724:  INCF   x42,F
04726:  BTFSC  FD8.2
04728:  INCF   x43,F
0472A:  BRA    4660
.................... 			ws281x_buffer_r[(ws281x_led_value/2)-1] = tmp_r; 
0472C:  BCF    FD8.0
0472E:  RRCF   x38,W
04730:  MOVWF  x4A
04732:  RRCF   x37,W
04734:  MOVWF  x49
04736:  MOVLW  01
04738:  SUBWF  x49,F
0473A:  MOVLW  00
0473C:  SUBWFB x4A,F
0473E:  MOVLW  34
04740:  ADDWF  x49,W
04742:  MOVWF  FE9
04744:  MOVLW  01
04746:  ADDWFC x4A,W
04748:  MOVWF  FEA
0474A:  MOVFF  446,FEF
.................... 			ws281x_buffer_g[(ws281x_led_value/2)-1] = tmp_g; 
0474E:  BCF    FD8.0
04750:  RRCF   x38,W
04752:  MOVWF  x4A
04754:  RRCF   x37,W
04756:  MOVWF  x49
04758:  MOVLW  01
0475A:  SUBWF  x49,F
0475C:  MOVLW  00
0475E:  SUBWFB x4A,F
04760:  MOVLW  35
04762:  ADDWF  x49,W
04764:  MOVWF  FE9
04766:  MOVLW  02
04768:  ADDWFC x4A,W
0476A:  MOVWF  FEA
0476C:  MOVFF  447,FEF
.................... 			ws281x_buffer_b[(ws281x_led_value/2)-1] = tmp_b; 
04770:  BCF    FD8.0
04772:  RRCF   x38,W
04774:  MOVWF  x4A
04776:  RRCF   x37,W
04778:  MOVWF  x49
0477A:  MOVLW  01
0477C:  SUBWF  x49,F
0477E:  MOVLW  00
04780:  SUBWFB x4A,F
04782:  MOVLW  36
04784:  ADDWF  x49,W
04786:  MOVWF  FE9
04788:  MOVLW  03
0478A:  ADDWFC x4A,W
0478C:  MOVWF  FEA
0478E:  MOVFF  448,FEF
....................  
.................... 			//^ 
.................... 			tmp_r = ws281x_buffer_r[ws281x_led_value-1]; 
04792:  MOVLW  01
04794:  SUBWF  x37,W
04796:  MOVWF  x49
04798:  MOVLW  00
0479A:  SUBWFB x38,W
0479C:  MOVWF  x4A
0479E:  MOVLW  34
047A0:  ADDWF  x49,W
047A2:  MOVWF  FE9
047A4:  MOVLW  01
047A6:  ADDWFC x4A,W
047A8:  MOVWF  FEA
047AA:  MOVFF  FEF,446
.................... 			tmp_g = ws281x_buffer_g[ws281x_led_value-1]; 
047AE:  MOVLW  01
047B0:  SUBWF  x37,W
047B2:  MOVWF  x49
047B4:  MOVLW  00
047B6:  SUBWFB x38,W
047B8:  MOVWF  x4A
047BA:  MOVLW  35
047BC:  ADDWF  x49,W
047BE:  MOVWF  FE9
047C0:  MOVLW  02
047C2:  ADDWFC x4A,W
047C4:  MOVWF  FEA
047C6:  MOVFF  FEF,447
.................... 			tmp_b = ws281x_buffer_b[ws281x_led_value-1]; 
047CA:  MOVLW  01
047CC:  SUBWF  x37,W
047CE:  MOVWF  x49
047D0:  MOVLW  00
047D2:  SUBWFB x38,W
047D4:  MOVWF  x4A
047D6:  MOVLW  36
047D8:  ADDWF  x49,W
047DA:  MOVWF  FE9
047DC:  MOVLW  03
047DE:  ADDWFC x4A,W
047E0:  MOVWF  FEA
047E2:  MOVFF  FEF,448
.................... 			for(tmp1=0;tmp1<(ws281x_led_value/2)-1;tmp1++){ 
047E6:  CLRF   x43
047E8:  CLRF   x42
047EA:  BCF    FD8.0
047EC:  RRCF   x38,W
047EE:  MOVWF  x4A
047F0:  RRCF   x37,W
047F2:  MOVWF  x49
047F4:  MOVLW  01
047F6:  SUBWF  x49,W
047F8:  MOVWF  00
047FA:  MOVLW  00
047FC:  SUBWFB x4A,W
047FE:  MOVWF  03
04800:  MOVFF  00,01
04804:  MOVF   x43,W
04806:  SUBWF  03,W
04808:  BTFSS  FD8.0
0480A:  BRA    490C
0480C:  BNZ   4814
0480E:  MOVF   01,W
04810:  SUBWF  x42,W
04812:  BC    490C
.................... 				ws281x_buffer_r[ws281x_led_value-tmp1-1] = ws281x_buffer_r[ws281x_led_value-tmp1-2]; 
04814:  MOVF   x42,W
04816:  SUBWF  x37,W
04818:  MOVWF  x49
0481A:  MOVF   x43,W
0481C:  SUBWFB x38,W
0481E:  MOVWF  x4A
04820:  MOVLW  01
04822:  SUBWF  x49,F
04824:  MOVLW  00
04826:  SUBWFB x4A,F
04828:  MOVLW  34
0482A:  ADDWF  x49,W
0482C:  MOVWF  01
0482E:  MOVLW  01
04830:  ADDWFC x4A,W
04832:  MOVWF  03
04834:  MOVF   x42,W
04836:  SUBWF  x37,W
04838:  MOVWF  x4D
0483A:  MOVF   x43,W
0483C:  SUBWFB x38,W
0483E:  MOVWF  x4E
04840:  MOVLW  02
04842:  SUBWF  x4D,F
04844:  MOVLW  00
04846:  SUBWFB x4E,F
04848:  MOVLW  34
0484A:  ADDWF  x4D,W
0484C:  MOVWF  FE9
0484E:  MOVLW  01
04850:  ADDWFC x4E,W
04852:  MOVWF  FEA
04854:  MOVFF  FEF,44F
04858:  MOVFF  03,FEA
0485C:  MOVFF  01,FE9
04860:  MOVFF  44F,FEF
.................... 				ws281x_buffer_g[ws281x_led_value-tmp1-1] = ws281x_buffer_g[ws281x_led_value-tmp1-2]; 
04864:  MOVF   x42,W
04866:  SUBWF  x37,W
04868:  MOVWF  x49
0486A:  MOVF   x43,W
0486C:  SUBWFB x38,W
0486E:  MOVWF  x4A
04870:  MOVLW  01
04872:  SUBWF  x49,F
04874:  MOVLW  00
04876:  SUBWFB x4A,F
04878:  MOVLW  35
0487A:  ADDWF  x49,W
0487C:  MOVWF  01
0487E:  MOVLW  02
04880:  ADDWFC x4A,W
04882:  MOVWF  03
04884:  MOVF   x42,W
04886:  SUBWF  x37,W
04888:  MOVWF  x4D
0488A:  MOVF   x43,W
0488C:  SUBWFB x38,W
0488E:  MOVWF  x4E
04890:  MOVLW  02
04892:  SUBWF  x4D,F
04894:  MOVLW  00
04896:  SUBWFB x4E,F
04898:  MOVLW  35
0489A:  ADDWF  x4D,W
0489C:  MOVWF  FE9
0489E:  MOVLW  02
048A0:  ADDWFC x4E,W
048A2:  MOVWF  FEA
048A4:  MOVFF  FEF,44F
048A8:  MOVFF  03,FEA
048AC:  MOVFF  01,FE9
048B0:  MOVFF  44F,FEF
.................... 				ws281x_buffer_b[ws281x_led_value-tmp1-1] = ws281x_buffer_b[ws281x_led_value-tmp1-2]; 
048B4:  MOVF   x42,W
048B6:  SUBWF  x37,W
048B8:  MOVWF  x49
048BA:  MOVF   x43,W
048BC:  SUBWFB x38,W
048BE:  MOVWF  x4A
048C0:  MOVLW  01
048C2:  SUBWF  x49,F
048C4:  MOVLW  00
048C6:  SUBWFB x4A,F
048C8:  MOVLW  36
048CA:  ADDWF  x49,W
048CC:  MOVWF  01
048CE:  MOVLW  03
048D0:  ADDWFC x4A,W
048D2:  MOVWF  03
048D4:  MOVF   x42,W
048D6:  SUBWF  x37,W
048D8:  MOVWF  x4D
048DA:  MOVF   x43,W
048DC:  SUBWFB x38,W
048DE:  MOVWF  x4E
048E0:  MOVLW  02
048E2:  SUBWF  x4D,F
048E4:  MOVLW  00
048E6:  SUBWFB x4E,F
048E8:  MOVLW  36
048EA:  ADDWF  x4D,W
048EC:  MOVWF  FE9
048EE:  MOVLW  03
048F0:  ADDWFC x4E,W
048F2:  MOVWF  FEA
048F4:  MOVFF  FEF,44F
048F8:  MOVFF  03,FEA
048FC:  MOVFF  01,FE9
04900:  MOVFF  44F,FEF
.................... 			} 
04904:  INCF   x42,F
04906:  BTFSC  FD8.2
04908:  INCF   x43,F
0490A:  BRA    47EA
.................... 			ws281x_buffer_r[(ws281x_led_value/2)] = tmp_r; 
0490C:  BCF    FD8.0
0490E:  RRCF   x38,W
04910:  MOVWF  x4A
04912:  RRCF   x37,W
04914:  MOVWF  x49
04916:  MOVLW  34
04918:  ADDWF  x49,W
0491A:  MOVWF  FE9
0491C:  MOVLW  01
0491E:  ADDWFC x4A,W
04920:  MOVWF  FEA
04922:  MOVFF  446,FEF
.................... 			ws281x_buffer_g[(ws281x_led_value/2)] = tmp_g; 
04926:  BCF    FD8.0
04928:  RRCF   x38,W
0492A:  MOVWF  x4A
0492C:  RRCF   x37,W
0492E:  MOVWF  x49
04930:  MOVLW  35
04932:  ADDWF  x49,W
04934:  MOVWF  FE9
04936:  MOVLW  02
04938:  ADDWFC x4A,W
0493A:  MOVWF  FEA
0493C:  MOVFF  447,FEF
.................... 			ws281x_buffer_b[(ws281x_led_value/2)] = tmp_b; 
04940:  BCF    FD8.0
04942:  RRCF   x38,W
04944:  MOVWF  x4A
04946:  RRCF   x37,W
04948:  MOVWF  x49
0494A:  MOVLW  36
0494C:  ADDWF  x49,W
0494E:  MOVWF  FE9
04950:  MOVLW  03
04952:  ADDWFC x4A,W
04954:  MOVWF  FEA
04956:  MOVFF  448,FEF
.................... 		}else if(mode == 6){ 
0495A:  GOTO   5DC4
0495E:  MOVF   x41,W
04960:  SUBLW  06
04962:  BTFSS  FD8.2
04964:  BRA    4C8E
.................... 			//O^r 
....................  
.................... 			// 
.................... 			tmp_r = ws281x_buffer_r[(ws281x_led_value/2)-1]; 
04966:  BCF    FD8.0
04968:  RRCF   x38,W
0496A:  MOVWF  x4A
0496C:  RRCF   x37,W
0496E:  MOVWF  x49
04970:  MOVLW  01
04972:  SUBWF  x49,F
04974:  MOVLW  00
04976:  SUBWFB x4A,F
04978:  MOVLW  34
0497A:  ADDWF  x49,W
0497C:  MOVWF  FE9
0497E:  MOVLW  01
04980:  ADDWFC x4A,W
04982:  MOVWF  FEA
04984:  MOVFF  FEF,446
.................... 			tmp_g = ws281x_buffer_g[(ws281x_led_value/2)-1]; 
04988:  BCF    FD8.0
0498A:  RRCF   x38,W
0498C:  MOVWF  x4A
0498E:  RRCF   x37,W
04990:  MOVWF  x49
04992:  MOVLW  01
04994:  SUBWF  x49,F
04996:  MOVLW  00
04998:  SUBWFB x4A,F
0499A:  MOVLW  35
0499C:  ADDWF  x49,W
0499E:  MOVWF  FE9
049A0:  MOVLW  02
049A2:  ADDWFC x4A,W
049A4:  MOVWF  FEA
049A6:  MOVFF  FEF,447
.................... 			tmp_b = ws281x_buffer_b[(ws281x_led_value/2)-1]; 
049AA:  BCF    FD8.0
049AC:  RRCF   x38,W
049AE:  MOVWF  x4A
049B0:  RRCF   x37,W
049B2:  MOVWF  x49
049B4:  MOVLW  01
049B6:  SUBWF  x49,F
049B8:  MOVLW  00
049BA:  SUBWFB x4A,F
049BC:  MOVLW  36
049BE:  ADDWF  x49,W
049C0:  MOVWF  FE9
049C2:  MOVLW  03
049C4:  ADDWFC x4A,W
049C6:  MOVWF  FEA
049C8:  MOVFF  FEF,448
.................... 			for(tmp1=0;tmp1<(ws281x_led_value/2)-1;tmp1++){ 
049CC:  CLRF   x43
049CE:  CLRF   x42
049D0:  BCF    FD8.0
049D2:  RRCF   x38,W
049D4:  MOVWF  x4A
049D6:  RRCF   x37,W
049D8:  MOVWF  x49
049DA:  MOVLW  01
049DC:  SUBWF  x49,W
049DE:  MOVWF  00
049E0:  MOVLW  00
049E2:  SUBWFB x4A,W
049E4:  MOVWF  03
049E6:  MOVFF  00,01
049EA:  MOVF   x43,W
049EC:  SUBWF  03,W
049EE:  BTFSS  FD8.0
049F0:  BRA    4AFA
049F2:  BNZ   49FC
049F4:  MOVF   01,W
049F6:  SUBWF  x42,W
049F8:  BTFSC  FD8.0
049FA:  BRA    4AFA
.................... 				ws281x_buffer_r[(ws281x_led_value/2)-tmp1-1] = ws281x_buffer_r[ws281x_led_value-tmp1-2]; 
049FC:  BCF    FD8.0
049FE:  RRCF   x38,W
04A00:  MOVWF  x4A
04A02:  RRCF   x37,W
04A04:  MOVWF  x49
04A06:  MOVF   x42,W
04A08:  SUBWF  x49,F
04A0A:  MOVF   x43,W
04A0C:  SUBWFB x4A,F
04A0E:  MOVLW  01
04A10:  SUBWF  x49,F
04A12:  MOVLW  00
04A14:  SUBWFB x4A,F
04A16:  MOVLW  34
04A18:  ADDWF  x49,W
04A1A:  MOVWF  01
04A1C:  MOVLW  01
04A1E:  ADDWFC x4A,W
04A20:  MOVWF  03
04A22:  MOVF   x42,W
04A24:  SUBWF  x37,W
04A26:  MOVWF  x4D
04A28:  MOVF   x43,W
04A2A:  SUBWFB x38,W
04A2C:  MOVWF  x4E
04A2E:  MOVLW  02
04A30:  SUBWF  x4D,F
04A32:  MOVLW  00
04A34:  SUBWFB x4E,F
04A36:  MOVLW  34
04A38:  ADDWF  x4D,W
04A3A:  MOVWF  FE9
04A3C:  MOVLW  01
04A3E:  ADDWFC x4E,W
04A40:  MOVWF  FEA
04A42:  MOVFF  FEF,44F
04A46:  MOVFF  03,FEA
04A4A:  MOVFF  01,FE9
04A4E:  MOVFF  44F,FEF
.................... 				ws281x_buffer_g[ws281x_led_value-tmp1-1] = ws281x_buffer_g[ws281x_led_value-tmp1-2]; 
04A52:  MOVF   x42,W
04A54:  SUBWF  x37,W
04A56:  MOVWF  x49
04A58:  MOVF   x43,W
04A5A:  SUBWFB x38,W
04A5C:  MOVWF  x4A
04A5E:  MOVLW  01
04A60:  SUBWF  x49,F
04A62:  MOVLW  00
04A64:  SUBWFB x4A,F
04A66:  MOVLW  35
04A68:  ADDWF  x49,W
04A6A:  MOVWF  01
04A6C:  MOVLW  02
04A6E:  ADDWFC x4A,W
04A70:  MOVWF  03
04A72:  MOVF   x42,W
04A74:  SUBWF  x37,W
04A76:  MOVWF  x4D
04A78:  MOVF   x43,W
04A7A:  SUBWFB x38,W
04A7C:  MOVWF  x4E
04A7E:  MOVLW  02
04A80:  SUBWF  x4D,F
04A82:  MOVLW  00
04A84:  SUBWFB x4E,F
04A86:  MOVLW  35
04A88:  ADDWF  x4D,W
04A8A:  MOVWF  FE9
04A8C:  MOVLW  02
04A8E:  ADDWFC x4E,W
04A90:  MOVWF  FEA
04A92:  MOVFF  FEF,44F
04A96:  MOVFF  03,FEA
04A9A:  MOVFF  01,FE9
04A9E:  MOVFF  44F,FEF
.................... 				ws281x_buffer_b[ws281x_led_value-tmp1-1] = ws281x_buffer_b[ws281x_led_value-tmp1-2]; 
04AA2:  MOVF   x42,W
04AA4:  SUBWF  x37,W
04AA6:  MOVWF  x49
04AA8:  MOVF   x43,W
04AAA:  SUBWFB x38,W
04AAC:  MOVWF  x4A
04AAE:  MOVLW  01
04AB0:  SUBWF  x49,F
04AB2:  MOVLW  00
04AB4:  SUBWFB x4A,F
04AB6:  MOVLW  36
04AB8:  ADDWF  x49,W
04ABA:  MOVWF  01
04ABC:  MOVLW  03
04ABE:  ADDWFC x4A,W
04AC0:  MOVWF  03
04AC2:  MOVF   x42,W
04AC4:  SUBWF  x37,W
04AC6:  MOVWF  x4D
04AC8:  MOVF   x43,W
04ACA:  SUBWFB x38,W
04ACC:  MOVWF  x4E
04ACE:  MOVLW  02
04AD0:  SUBWF  x4D,F
04AD2:  MOVLW  00
04AD4:  SUBWFB x4E,F
04AD6:  MOVLW  36
04AD8:  ADDWF  x4D,W
04ADA:  MOVWF  FE9
04ADC:  MOVLW  03
04ADE:  ADDWFC x4E,W
04AE0:  MOVWF  FEA
04AE2:  MOVFF  FEF,44F
04AE6:  MOVFF  03,FEA
04AEA:  MOVFF  01,FE9
04AEE:  MOVFF  44F,FEF
.................... 			} 
04AF2:  INCF   x42,F
04AF4:  BTFSC  FD8.2
04AF6:  INCF   x43,F
04AF8:  BRA    49D0
.................... 			ws281x_buffer_r[(ws281x_led_value/2)] = tmp_r; 
04AFA:  BCF    FD8.0
04AFC:  RRCF   x38,W
04AFE:  MOVWF  x4A
04B00:  RRCF   x37,W
04B02:  MOVWF  x49
04B04:  MOVLW  34
04B06:  ADDWF  x49,W
04B08:  MOVWF  FE9
04B0A:  MOVLW  01
04B0C:  ADDWFC x4A,W
04B0E:  MOVWF  FEA
04B10:  MOVFF  446,FEF
.................... 			ws281x_buffer_g[(ws281x_led_value/2)] = tmp_g; 
04B14:  BCF    FD8.0
04B16:  RRCF   x38,W
04B18:  MOVWF  x4A
04B1A:  RRCF   x37,W
04B1C:  MOVWF  x49
04B1E:  MOVLW  35
04B20:  ADDWF  x49,W
04B22:  MOVWF  FE9
04B24:  MOVLW  02
04B26:  ADDWFC x4A,W
04B28:  MOVWF  FEA
04B2A:  MOVFF  447,FEF
.................... 			ws281x_buffer_b[(ws281x_led_value/2)] = tmp_b; 
04B2E:  BCF    FD8.0
04B30:  RRCF   x38,W
04B32:  MOVWF  x4A
04B34:  RRCF   x37,W
04B36:  MOVWF  x49
04B38:  MOVLW  36
04B3A:  ADDWF  x49,W
04B3C:  MOVWF  FE9
04B3E:  MOVLW  03
04B40:  ADDWFC x4A,W
04B42:  MOVWF  FEA
04B44:  MOVFF  448,FEF
....................  
.................... 			// 
.................... 			tmp_r = ws281x_buffer_r[0]; 
04B48:  MOVFF  134,446
.................... 			tmp_g = ws281x_buffer_g[0]; 
04B4C:  MOVFF  235,447
.................... 			tmp_b = ws281x_buffer_b[0]; 
04B50:  MOVFF  336,448
.................... 			for(tmp1=0;tmp1<(ws281x_led_value/2)-1;tmp1++){ 
04B54:  CLRF   x43
04B56:  CLRF   x42
04B58:  BCF    FD8.0
04B5A:  RRCF   x38,W
04B5C:  MOVWF  x4A
04B5E:  RRCF   x37,W
04B60:  MOVWF  x49
04B62:  MOVLW  01
04B64:  SUBWF  x49,W
04B66:  MOVWF  00
04B68:  MOVLW  00
04B6A:  SUBWFB x4A,W
04B6C:  MOVWF  03
04B6E:  MOVFF  00,01
04B72:  MOVF   x43,W
04B74:  SUBWF  03,W
04B76:  BNC   4C24
04B78:  BNZ   4B80
04B7A:  MOVF   01,W
04B7C:  SUBWF  x42,W
04B7E:  BC    4C24
.................... 				ws281x_buffer_r[tmp1] = ws281x_buffer_r[tmp1+1]; 
04B80:  MOVLW  34
04B82:  ADDWF  x42,W
04B84:  MOVWF  01
04B86:  MOVLW  01
04B88:  ADDWFC x43,W
04B8A:  MOVWF  03
04B8C:  MOVLW  01
04B8E:  ADDWF  x42,W
04B90:  MOVWF  x4B
04B92:  MOVLW  00
04B94:  ADDWFC x43,W
04B96:  MOVWF  x4C
04B98:  MOVLW  34
04B9A:  ADDWF  x4B,W
04B9C:  MOVWF  FE9
04B9E:  MOVLW  01
04BA0:  ADDWFC x4C,W
04BA2:  MOVWF  FEA
04BA4:  MOVFF  FEF,44D
04BA8:  MOVFF  03,FEA
04BAC:  MOVFF  01,FE9
04BB0:  MOVFF  44D,FEF
.................... 				ws281x_buffer_g[tmp1] = ws281x_buffer_g[tmp1+1]; 
04BB4:  MOVLW  35
04BB6:  ADDWF  x42,W
04BB8:  MOVWF  01
04BBA:  MOVLW  02
04BBC:  ADDWFC x43,W
04BBE:  MOVWF  03
04BC0:  MOVLW  01
04BC2:  ADDWF  x42,W
04BC4:  MOVWF  x4B
04BC6:  MOVLW  00
04BC8:  ADDWFC x43,W
04BCA:  MOVWF  x4C
04BCC:  MOVLW  35
04BCE:  ADDWF  x4B,W
04BD0:  MOVWF  FE9
04BD2:  MOVLW  02
04BD4:  ADDWFC x4C,W
04BD6:  MOVWF  FEA
04BD8:  MOVFF  FEF,44D
04BDC:  MOVFF  03,FEA
04BE0:  MOVFF  01,FE9
04BE4:  MOVFF  44D,FEF
.................... 				ws281x_buffer_b[tmp1] = ws281x_buffer_b[tmp1+1]; 
04BE8:  MOVLW  36
04BEA:  ADDWF  x42,W
04BEC:  MOVWF  01
04BEE:  MOVLW  03
04BF0:  ADDWFC x43,W
04BF2:  MOVWF  03
04BF4:  MOVLW  01
04BF6:  ADDWF  x42,W
04BF8:  MOVWF  x4B
04BFA:  MOVLW  00
04BFC:  ADDWFC x43,W
04BFE:  MOVWF  x4C
04C00:  MOVLW  36
04C02:  ADDWF  x4B,W
04C04:  MOVWF  FE9
04C06:  MOVLW  03
04C08:  ADDWFC x4C,W
04C0A:  MOVWF  FEA
04C0C:  MOVFF  FEF,44D
04C10:  MOVFF  03,FEA
04C14:  MOVFF  01,FE9
04C18:  MOVFF  44D,FEF
.................... 			} 
04C1C:  INCF   x42,F
04C1E:  BTFSC  FD8.2
04C20:  INCF   x43,F
04C22:  BRA    4B58
.................... 			ws281x_buffer_r[(ws281x_led_value/2)-1] = tmp_r; 
04C24:  BCF    FD8.0
04C26:  RRCF   x38,W
04C28:  MOVWF  x4A
04C2A:  RRCF   x37,W
04C2C:  MOVWF  x49
04C2E:  MOVLW  01
04C30:  SUBWF  x49,F
04C32:  MOVLW  00
04C34:  SUBWFB x4A,F
04C36:  MOVLW  34
04C38:  ADDWF  x49,W
04C3A:  MOVWF  FE9
04C3C:  MOVLW  01
04C3E:  ADDWFC x4A,W
04C40:  MOVWF  FEA
04C42:  MOVFF  446,FEF
.................... 			ws281x_buffer_g[(ws281x_led_value/2)-1] = tmp_g; 
04C46:  BCF    FD8.0
04C48:  RRCF   x38,W
04C4A:  MOVWF  x4A
04C4C:  RRCF   x37,W
04C4E:  MOVWF  x49
04C50:  MOVLW  01
04C52:  SUBWF  x49,F
04C54:  MOVLW  00
04C56:  SUBWFB x4A,F
04C58:  MOVLW  35
04C5A:  ADDWF  x49,W
04C5C:  MOVWF  FE9
04C5E:  MOVLW  02
04C60:  ADDWFC x4A,W
04C62:  MOVWF  FEA
04C64:  MOVFF  447,FEF
.................... 			ws281x_buffer_b[(ws281x_led_value/2)-1] = tmp_b; 
04C68:  BCF    FD8.0
04C6A:  RRCF   x38,W
04C6C:  MOVWF  x4A
04C6E:  RRCF   x37,W
04C70:  MOVWF  x49
04C72:  MOVLW  01
04C74:  SUBWF  x49,F
04C76:  MOVLW  00
04C78:  SUBWFB x4A,F
04C7A:  MOVLW  36
04C7C:  ADDWF  x49,W
04C7E:  MOVWF  FE9
04C80:  MOVLW  03
04C82:  ADDWFC x4A,W
04C84:  MOVWF  FEA
04C86:  MOVFF  448,FEF
....................  
.................... 		}else if(mode == 7){ 
04C8A:  GOTO   5DC4
04C8E:  MOVF   x41,W
04C90:  SUBLW  07
04C92:  BTFSS  FD8.2
04C94:  BRA    4DA8
.................... 			//S 
.................... 			for(tmp1=0;tmp1<ws281x_led_value;tmp1++){ 
04C96:  CLRF   x43
04C98:  CLRF   x42
04C9A:  MOVF   x43,W
04C9C:  SUBWF  x38,W
04C9E:  BTFSS  FD8.0
04CA0:  BRA    4DA4
04CA2:  BNZ   4CAC
04CA4:  MOVF   x37,W
04CA6:  SUBWF  x42,W
04CA8:  BTFSC  FD8.0
04CAA:  BRA    4DA4
....................  
.................... 				if(ws281x_buffer_r[tmp1] > 9){	ws281x_buffer_r[tmp1] = ws281x_buffer_r[tmp1]-10;}else{	ws281x_buffer_r[tmp1] = 0;} 
04CAC:  MOVLW  34
04CAE:  ADDWF  x42,W
04CB0:  MOVWF  FE9
04CB2:  MOVLW  01
04CB4:  ADDWFC x43,W
04CB6:  MOVWF  FEA
04CB8:  MOVF   FEF,W
04CBA:  SUBLW  09
04CBC:  BC    4CEE
04CBE:  MOVLW  34
04CC0:  ADDWF  x42,W
04CC2:  MOVWF  01
04CC4:  MOVLW  01
04CC6:  ADDWFC x43,W
04CC8:  MOVWF  03
04CCA:  MOVFF  01,449
04CCE:  MOVWF  x4A
04CD0:  MOVLW  34
04CD2:  ADDWF  x42,W
04CD4:  MOVWF  FE9
04CD6:  MOVLW  01
04CD8:  ADDWFC x43,W
04CDA:  MOVWF  FEA
04CDC:  MOVLW  0A
04CDE:  SUBWF  FEF,W
04CE0:  MOVWF  x4B
04CE2:  MOVFF  03,FEA
04CE6:  MOVFF  01,FE9
04CEA:  MOVWF  FEF
04CEC:  BRA    4CFC
04CEE:  MOVLW  34
04CF0:  ADDWF  x42,W
04CF2:  MOVWF  FE9
04CF4:  MOVLW  01
04CF6:  ADDWFC x43,W
04CF8:  MOVWF  FEA
04CFA:  CLRF   FEF
.................... 				if(ws281x_buffer_g[tmp1] > 9){	ws281x_buffer_g[tmp1] = ws281x_buffer_g[tmp1]-10;}else{	ws281x_buffer_g[tmp1] = 0;} 
04CFC:  MOVLW  35
04CFE:  ADDWF  x42,W
04D00:  MOVWF  FE9
04D02:  MOVLW  02
04D04:  ADDWFC x43,W
04D06:  MOVWF  FEA
04D08:  MOVF   FEF,W
04D0A:  SUBLW  09
04D0C:  BC    4D3E
04D0E:  MOVLW  35
04D10:  ADDWF  x42,W
04D12:  MOVWF  01
04D14:  MOVLW  02
04D16:  ADDWFC x43,W
04D18:  MOVWF  03
04D1A:  MOVFF  01,449
04D1E:  MOVWF  x4A
04D20:  MOVLW  35
04D22:  ADDWF  x42,W
04D24:  MOVWF  FE9
04D26:  MOVLW  02
04D28:  ADDWFC x43,W
04D2A:  MOVWF  FEA
04D2C:  MOVLW  0A
04D2E:  SUBWF  FEF,W
04D30:  MOVWF  x4B
04D32:  MOVFF  03,FEA
04D36:  MOVFF  01,FE9
04D3A:  MOVWF  FEF
04D3C:  BRA    4D4C
04D3E:  MOVLW  35
04D40:  ADDWF  x42,W
04D42:  MOVWF  FE9
04D44:  MOVLW  02
04D46:  ADDWFC x43,W
04D48:  MOVWF  FEA
04D4A:  CLRF   FEF
.................... 				if(ws281x_buffer_b[tmp1] > 9){	ws281x_buffer_b[tmp1] = ws281x_buffer_b[tmp1]-10;}else{	ws281x_buffer_b[tmp1] = 0;} 
04D4C:  MOVLW  36
04D4E:  ADDWF  x42,W
04D50:  MOVWF  FE9
04D52:  MOVLW  03
04D54:  ADDWFC x43,W
04D56:  MOVWF  FEA
04D58:  MOVF   FEF,W
04D5A:  SUBLW  09
04D5C:  BC    4D8E
04D5E:  MOVLW  36
04D60:  ADDWF  x42,W
04D62:  MOVWF  01
04D64:  MOVLW  03
04D66:  ADDWFC x43,W
04D68:  MOVWF  03
04D6A:  MOVFF  01,449
04D6E:  MOVWF  x4A
04D70:  MOVLW  36
04D72:  ADDWF  x42,W
04D74:  MOVWF  FE9
04D76:  MOVLW  03
04D78:  ADDWFC x43,W
04D7A:  MOVWF  FEA
04D7C:  MOVLW  0A
04D7E:  SUBWF  FEF,W
04D80:  MOVWF  x4B
04D82:  MOVFF  03,FEA
04D86:  MOVFF  01,FE9
04D8A:  MOVWF  FEF
04D8C:  BRA    4D9C
04D8E:  MOVLW  36
04D90:  ADDWF  x42,W
04D92:  MOVWF  FE9
04D94:  MOVLW  03
04D96:  ADDWFC x43,W
04D98:  MOVWF  FEA
04D9A:  CLRF   FEF
.................... 			} 
04D9C:  INCF   x42,F
04D9E:  BTFSC  FD8.2
04DA0:  INCF   x43,F
04DA2:  BRA    4C9A
.................... 		}else if(mode == 8){ 
04DA4:  GOTO   5DC4
04DA8:  MOVF   x41,W
04DAA:  SUBLW  08
04DAC:  BTFSS  FD8.2
04DAE:  BRA    4EC2
.................... 			//S 
.................... 			for(tmp1=0;tmp1<ws281x_led_value;tmp1++){ 
04DB0:  CLRF   x43
04DB2:  CLRF   x42
04DB4:  MOVF   x43,W
04DB6:  SUBWF  x38,W
04DB8:  BTFSS  FD8.0
04DBA:  BRA    4EBE
04DBC:  BNZ   4DC6
04DBE:  MOVF   x37,W
04DC0:  SUBWF  x42,W
04DC2:  BTFSC  FD8.0
04DC4:  BRA    4EBE
.................... 				if(ws281x_buffer_r[tmp1] < 246){ws281x_buffer_r[tmp1] = ws281x_buffer_r[tmp1]+10;}else{ws281x_buffer_r[tmp1] = 255;} 
04DC6:  MOVLW  34
04DC8:  ADDWF  x42,W
04DCA:  MOVWF  FE9
04DCC:  MOVLW  01
04DCE:  ADDWFC x43,W
04DD0:  MOVWF  FEA
04DD2:  MOVF   FEF,W
04DD4:  SUBLW  F5
04DD6:  BNC   4E08
04DD8:  MOVLW  34
04DDA:  ADDWF  x42,W
04DDC:  MOVWF  01
04DDE:  MOVLW  01
04DE0:  ADDWFC x43,W
04DE2:  MOVWF  03
04DE4:  MOVFF  01,449
04DE8:  MOVWF  x4A
04DEA:  MOVLW  34
04DEC:  ADDWF  x42,W
04DEE:  MOVWF  FE9
04DF0:  MOVLW  01
04DF2:  ADDWFC x43,W
04DF4:  MOVWF  FEA
04DF6:  MOVLW  0A
04DF8:  ADDWF  FEF,W
04DFA:  MOVWF  x4B
04DFC:  MOVFF  03,FEA
04E00:  MOVFF  01,FE9
04E04:  MOVWF  FEF
04E06:  BRA    4E16
04E08:  MOVLW  34
04E0A:  ADDWF  x42,W
04E0C:  MOVWF  FE9
04E0E:  MOVLW  01
04E10:  ADDWFC x43,W
04E12:  MOVWF  FEA
04E14:  SETF   FEF
.................... 				if(ws281x_buffer_g[tmp1] < 246){ws281x_buffer_g[tmp1] = ws281x_buffer_g[tmp1]+10;}else{ws281x_buffer_g[tmp1] = 255;} 
04E16:  MOVLW  35
04E18:  ADDWF  x42,W
04E1A:  MOVWF  FE9
04E1C:  MOVLW  02
04E1E:  ADDWFC x43,W
04E20:  MOVWF  FEA
04E22:  MOVF   FEF,W
04E24:  SUBLW  F5
04E26:  BNC   4E58
04E28:  MOVLW  35
04E2A:  ADDWF  x42,W
04E2C:  MOVWF  01
04E2E:  MOVLW  02
04E30:  ADDWFC x43,W
04E32:  MOVWF  03
04E34:  MOVFF  01,449
04E38:  MOVWF  x4A
04E3A:  MOVLW  35
04E3C:  ADDWF  x42,W
04E3E:  MOVWF  FE9
04E40:  MOVLW  02
04E42:  ADDWFC x43,W
04E44:  MOVWF  FEA
04E46:  MOVLW  0A
04E48:  ADDWF  FEF,W
04E4A:  MOVWF  x4B
04E4C:  MOVFF  03,FEA
04E50:  MOVFF  01,FE9
04E54:  MOVWF  FEF
04E56:  BRA    4E66
04E58:  MOVLW  35
04E5A:  ADDWF  x42,W
04E5C:  MOVWF  FE9
04E5E:  MOVLW  02
04E60:  ADDWFC x43,W
04E62:  MOVWF  FEA
04E64:  SETF   FEF
.................... 				if(ws281x_buffer_b[tmp1] < 246){ws281x_buffer_b[tmp1] = ws281x_buffer_b[tmp1]+10;}else{ws281x_buffer_b[tmp1] = 255;} 
04E66:  MOVLW  36
04E68:  ADDWF  x42,W
04E6A:  MOVWF  FE9
04E6C:  MOVLW  03
04E6E:  ADDWFC x43,W
04E70:  MOVWF  FEA
04E72:  MOVF   FEF,W
04E74:  SUBLW  F5
04E76:  BNC   4EA8
04E78:  MOVLW  36
04E7A:  ADDWF  x42,W
04E7C:  MOVWF  01
04E7E:  MOVLW  03
04E80:  ADDWFC x43,W
04E82:  MOVWF  03
04E84:  MOVFF  01,449
04E88:  MOVWF  x4A
04E8A:  MOVLW  36
04E8C:  ADDWF  x42,W
04E8E:  MOVWF  FE9
04E90:  MOVLW  03
04E92:  ADDWFC x43,W
04E94:  MOVWF  FEA
04E96:  MOVLW  0A
04E98:  ADDWF  FEF,W
04E9A:  MOVWF  x4B
04E9C:  MOVFF  03,FEA
04EA0:  MOVFF  01,FE9
04EA4:  MOVWF  FEF
04EA6:  BRA    4EB6
04EA8:  MOVLW  36
04EAA:  ADDWF  x42,W
04EAC:  MOVWF  FE9
04EAE:  MOVLW  03
04EB0:  ADDWFC x43,W
04EB2:  MOVWF  FEA
04EB4:  SETF   FEF
.................... 			} 
04EB6:  INCF   x42,F
04EB8:  BTFSC  FD8.2
04EBA:  INCF   x43,F
04EBC:  BRA    4DB4
.................... 		}else if(mode == 9){ 
04EBE:  GOTO   5DC4
04EC2:  MOVF   x41,W
04EC4:  SUBLW  09
04EC6:  BTFSS  FD8.2
04EC8:  BRA    5044
.................... 			//23 dF 
.................... 			for(tmp1=0;tmp1<ws281x_led_value;tmp1++){ 
04ECA:  CLRF   x43
04ECC:  CLRF   x42
04ECE:  MOVF   x43,W
04ED0:  SUBWF  x38,W
04ED2:  BTFSS  FD8.0
04ED4:  BRA    5040
04ED6:  BNZ   4EE0
04ED8:  MOVF   x37,W
04EDA:  SUBWF  x42,W
04EDC:  BTFSC  FD8.0
04EDE:  BRA    5040
.................... 				//157 
.................... 				if(ws281x_buffer_r[tmp1] < (157-9)){ 
04EE0:  MOVLW  34
04EE2:  ADDWF  x42,W
04EE4:  MOVWF  FE9
04EE6:  MOVLW  01
04EE8:  ADDWFC x43,W
04EEA:  MOVWF  FEA
04EEC:  MOVF   FEF,W
04EEE:  SUBLW  93
04EF0:  BNC   4F1A
.................... 					ws281x_buffer_r[tmp1] = ws281x_buffer_r[tmp1]+10; 
04EF2:  MOVLW  34
04EF4:  ADDWF  x42,W
04EF6:  MOVWF  01
04EF8:  MOVLW  01
04EFA:  ADDWFC x43,W
04EFC:  MOVWF  03
04EFE:  MOVLW  34
04F00:  ADDWF  x42,W
04F02:  MOVWF  FE9
04F04:  MOVLW  01
04F06:  ADDWFC x43,W
04F08:  MOVWF  FEA
04F0A:  MOVLW  0A
04F0C:  ADDWF  FEF,W
04F0E:  MOVFF  03,FEA
04F12:  MOVFF  01,FE9
04F16:  MOVWF  FEF
.................... 				}else if(ws281x_buffer_r[tmp1] > (157+9)){ 
04F18:  BRA    4F64
04F1A:  MOVLW  34
04F1C:  ADDWF  x42,W
04F1E:  MOVWF  FE9
04F20:  MOVLW  01
04F22:  ADDWFC x43,W
04F24:  MOVWF  FEA
04F26:  MOVF   FEF,W
04F28:  SUBLW  A6
04F2A:  BC    4F54
.................... 					ws281x_buffer_r[tmp1] = ws281x_buffer_r[tmp1]-10; 
04F2C:  MOVLW  34
04F2E:  ADDWF  x42,W
04F30:  MOVWF  01
04F32:  MOVLW  01
04F34:  ADDWFC x43,W
04F36:  MOVWF  03
04F38:  MOVLW  34
04F3A:  ADDWF  x42,W
04F3C:  MOVWF  FE9
04F3E:  MOVLW  01
04F40:  ADDWFC x43,W
04F42:  MOVWF  FEA
04F44:  MOVLW  0A
04F46:  SUBWF  FEF,W
04F48:  MOVFF  03,FEA
04F4C:  MOVFF  01,FE9
04F50:  MOVWF  FEF
.................... 				}else{ 
04F52:  BRA    4F64
.................... 					ws281x_buffer_r[tmp1] = 157; 
04F54:  MOVLW  34
04F56:  ADDWF  x42,W
04F58:  MOVWF  FE9
04F5A:  MOVLW  01
04F5C:  ADDWFC x43,W
04F5E:  MOVWF  FEA
04F60:  MOVLW  9D
04F62:  MOVWF  FEF
.................... 				} 
....................  
.................... 				//98 
.................... 				if(ws281x_buffer_g[tmp1] < (98-9)){ 
04F64:  MOVLW  35
04F66:  ADDWF  x42,W
04F68:  MOVWF  FE9
04F6A:  MOVLW  02
04F6C:  ADDWFC x43,W
04F6E:  MOVWF  FEA
04F70:  MOVF   FEF,W
04F72:  SUBLW  58
04F74:  BNC   4F9E
.................... 					ws281x_buffer_g[tmp1] = ws281x_buffer_g[tmp1]+10; 
04F76:  MOVLW  35
04F78:  ADDWF  x42,W
04F7A:  MOVWF  01
04F7C:  MOVLW  02
04F7E:  ADDWFC x43,W
04F80:  MOVWF  03
04F82:  MOVLW  35
04F84:  ADDWF  x42,W
04F86:  MOVWF  FE9
04F88:  MOVLW  02
04F8A:  ADDWFC x43,W
04F8C:  MOVWF  FEA
04F8E:  MOVLW  0A
04F90:  ADDWF  FEF,W
04F92:  MOVFF  03,FEA
04F96:  MOVFF  01,FE9
04F9A:  MOVWF  FEF
.................... 				}else if(ws281x_buffer_g[tmp1] > (98+9)){ 
04F9C:  BRA    4FE8
04F9E:  MOVLW  35
04FA0:  ADDWF  x42,W
04FA2:  MOVWF  FE9
04FA4:  MOVLW  02
04FA6:  ADDWFC x43,W
04FA8:  MOVWF  FEA
04FAA:  MOVF   FEF,W
04FAC:  SUBLW  6B
04FAE:  BC    4FD8
.................... 					ws281x_buffer_g[tmp1] = ws281x_buffer_g[tmp1]-10; 
04FB0:  MOVLW  35
04FB2:  ADDWF  x42,W
04FB4:  MOVWF  01
04FB6:  MOVLW  02
04FB8:  ADDWFC x43,W
04FBA:  MOVWF  03
04FBC:  MOVLW  35
04FBE:  ADDWF  x42,W
04FC0:  MOVWF  FE9
04FC2:  MOVLW  02
04FC4:  ADDWFC x43,W
04FC6:  MOVWF  FEA
04FC8:  MOVLW  0A
04FCA:  SUBWF  FEF,W
04FCC:  MOVFF  03,FEA
04FD0:  MOVFF  01,FE9
04FD4:  MOVWF  FEF
.................... 				}else{ 
04FD6:  BRA    4FE8
.................... 					ws281x_buffer_g[tmp1] = 98; 
04FD8:  MOVLW  35
04FDA:  ADDWF  x42,W
04FDC:  MOVWF  FE9
04FDE:  MOVLW  02
04FE0:  ADDWFC x43,W
04FE2:  MOVWF  FEA
04FE4:  MOVLW  62
04FE6:  MOVWF  FEF
.................... 				} 
....................  
.................... 				//0 
.................... 				if(ws281x_buffer_b[tmp1] > 9){	ws281x_buffer_b[tmp1] = ws281x_buffer_b[tmp1]-10;}else{	ws281x_buffer_b[tmp1] = 0;} 
04FE8:  MOVLW  36
04FEA:  ADDWF  x42,W
04FEC:  MOVWF  FE9
04FEE:  MOVLW  03
04FF0:  ADDWFC x43,W
04FF2:  MOVWF  FEA
04FF4:  MOVF   FEF,W
04FF6:  SUBLW  09
04FF8:  BC    502A
04FFA:  MOVLW  36
04FFC:  ADDWF  x42,W
04FFE:  MOVWF  01
05000:  MOVLW  03
05002:  ADDWFC x43,W
05004:  MOVWF  03
05006:  MOVFF  01,449
0500A:  MOVWF  x4A
0500C:  MOVLW  36
0500E:  ADDWF  x42,W
05010:  MOVWF  FE9
05012:  MOVLW  03
05014:  ADDWFC x43,W
05016:  MOVWF  FEA
05018:  MOVLW  0A
0501A:  SUBWF  FEF,W
0501C:  MOVWF  x4B
0501E:  MOVFF  03,FEA
05022:  MOVFF  01,FE9
05026:  MOVWF  FEF
05028:  BRA    5038
0502A:  MOVLW  36
0502C:  ADDWF  x42,W
0502E:  MOVWF  FE9
05030:  MOVLW  03
05032:  ADDWFC x43,W
05034:  MOVWF  FEA
05036:  CLRF   FEF
.................... 			} 
05038:  INCF   x42,F
0503A:  BTFSC  FD8.2
0503C:  INCF   x43,F
0503E:  BRA    4ECE
.................... 		}else if(mode == 10){ 
05040:  GOTO   5DC4
05044:  MOVF   x41,W
05046:  SUBLW  0A
05048:  BTFSS  FD8.2
0504A:  BRA    5454
.................... 			//SFvFB 
....................  
.................... 			if(ws281x_status == 0){ 
0504C:  MOVF   x3A,F
0504E:  BTFSS  FD8.2
05050:  BRA    51A4
.................... 				//S^ 
.................... 				ws281x_checkcount = 0; 
05052:  CLRF   x3B
.................... 				for(tmp1=0;tmp1<ws281x_led_value;tmp1++){ 
05054:  CLRF   x43
05056:  CLRF   x42
05058:  MOVF   x43,W
0505A:  SUBWF  x38,W
0505C:  BTFSS  FD8.0
0505E:  BRA    5194
05060:  BNZ   506A
05062:  MOVF   x37,W
05064:  SUBWF  x42,W
05066:  BTFSC  FD8.0
05068:  BRA    5194
.................... 					if(ws281x_buffer_r[tmp1] < 246){ws281x_buffer_r[tmp1] = ws281x_buffer_r[tmp1]+10;}else{ws281x_buffer_r[tmp1] = 255;}//		+ 
0506A:  MOVLW  34
0506C:  ADDWF  x42,W
0506E:  MOVWF  FE9
05070:  MOVLW  01
05072:  ADDWFC x43,W
05074:  MOVWF  FEA
05076:  MOVF   FEF,W
05078:  SUBLW  F5
0507A:  BNC   50AC
0507C:  MOVLW  34
0507E:  ADDWF  x42,W
05080:  MOVWF  01
05082:  MOVLW  01
05084:  ADDWFC x43,W
05086:  MOVWF  03
05088:  MOVFF  01,449
0508C:  MOVWF  x4A
0508E:  MOVLW  34
05090:  ADDWF  x42,W
05092:  MOVWF  FE9
05094:  MOVLW  01
05096:  ADDWFC x43,W
05098:  MOVWF  FEA
0509A:  MOVLW  0A
0509C:  ADDWF  FEF,W
0509E:  MOVWF  x4B
050A0:  MOVFF  03,FEA
050A4:  MOVFF  01,FE9
050A8:  MOVWF  FEF
050AA:  BRA    50BA
050AC:  MOVLW  34
050AE:  ADDWF  x42,W
050B0:  MOVWF  FE9
050B2:  MOVLW  01
050B4:  ADDWFC x43,W
050B6:  MOVWF  FEA
050B8:  SETF   FEF
.................... 					//if(ws281x_buffer_g[tmp1] < 246){ws281x_buffer_g[tmp1] = ws281x_buffer_g[tmp1]+10;}else{ws281x_buffer_g[tmp1] = 255;}//	+ 
.................... 					//if(ws281x_buffer_b[tmp1] < 246){ws281x_buffer_b[tmp1] = ws281x_buffer_b[tmp1]+10;}else{ws281x_buffer_b[tmp1] = 255;}//	+ 
.................... 					//if(ws281x_buffer_r[tmp1] > 9){	ws281x_buffer_r[tmp1] = ws281x_buffer_r[tmp1]-10;}else{	ws281x_buffer_r[tmp1] = 0;}//	- 
.................... 					if(ws281x_buffer_g[tmp1] > 9){	ws281x_buffer_g[tmp1] = ws281x_buffer_g[tmp1]-10;}else{	ws281x_buffer_g[tmp1] = 0;}//		- 
050BA:  MOVLW  35
050BC:  ADDWF  x42,W
050BE:  MOVWF  FE9
050C0:  MOVLW  02
050C2:  ADDWFC x43,W
050C4:  MOVWF  FEA
050C6:  MOVF   FEF,W
050C8:  SUBLW  09
050CA:  BC    50FC
050CC:  MOVLW  35
050CE:  ADDWF  x42,W
050D0:  MOVWF  01
050D2:  MOVLW  02
050D4:  ADDWFC x43,W
050D6:  MOVWF  03
050D8:  MOVFF  01,449
050DC:  MOVWF  x4A
050DE:  MOVLW  35
050E0:  ADDWF  x42,W
050E2:  MOVWF  FE9
050E4:  MOVLW  02
050E6:  ADDWFC x43,W
050E8:  MOVWF  FEA
050EA:  MOVLW  0A
050EC:  SUBWF  FEF,W
050EE:  MOVWF  x4B
050F0:  MOVFF  03,FEA
050F4:  MOVFF  01,FE9
050F8:  MOVWF  FEF
050FA:  BRA    510A
050FC:  MOVLW  35
050FE:  ADDWF  x42,W
05100:  MOVWF  FE9
05102:  MOVLW  02
05104:  ADDWFC x43,W
05106:  MOVWF  FEA
05108:  CLRF   FEF
.................... 					if(ws281x_buffer_b[tmp1] > 9){	ws281x_buffer_b[tmp1] = ws281x_buffer_b[tmp1]-10;}else{	ws281x_buffer_b[tmp1] = 0;}//		- 
0510A:  MOVLW  36
0510C:  ADDWF  x42,W
0510E:  MOVWF  FE9
05110:  MOVLW  03
05112:  ADDWFC x43,W
05114:  MOVWF  FEA
05116:  MOVF   FEF,W
05118:  SUBLW  09
0511A:  BC    514C
0511C:  MOVLW  36
0511E:  ADDWF  x42,W
05120:  MOVWF  01
05122:  MOVLW  03
05124:  ADDWFC x43,W
05126:  MOVWF  03
05128:  MOVFF  01,449
0512C:  MOVWF  x4A
0512E:  MOVLW  36
05130:  ADDWF  x42,W
05132:  MOVWF  FE9
05134:  MOVLW  03
05136:  ADDWFC x43,W
05138:  MOVWF  FEA
0513A:  MOVLW  0A
0513C:  SUBWF  FEF,W
0513E:  MOVWF  x4B
05140:  MOVFF  03,FEA
05144:  MOVFF  01,FE9
05148:  MOVWF  FEF
0514A:  BRA    515A
0514C:  MOVLW  36
0514E:  ADDWF  x42,W
05150:  MOVWF  FE9
05152:  MOVLW  03
05154:  ADDWFC x43,W
05156:  MOVWF  FEA
05158:  CLRF   FEF
....................  
.................... 					// 
.................... 					if(ws281x_buffer_r[tmp1] == 255 && ws281x_buffer_g[tmp1] == 0 && ws281x_buffer_b[tmp1] == 0){ 
0515A:  MOVLW  34
0515C:  ADDWF  x42,W
0515E:  MOVWF  FE9
05160:  MOVLW  01
05162:  ADDWFC x43,W
05164:  MOVWF  FEA
05166:  INCFSZ FEF,W
05168:  BRA    518C
0516A:  MOVLW  35
0516C:  ADDWF  x42,W
0516E:  MOVWF  FE9
05170:  MOVLW  02
05172:  ADDWFC x43,W
05174:  MOVWF  FEA
05176:  MOVF   FEF,F
05178:  BNZ   518C
0517A:  MOVLW  36
0517C:  ADDWF  x42,W
0517E:  MOVWF  FE9
05180:  MOVLW  03
05182:  ADDWFC x43,W
05184:  MOVWF  FEA
05186:  MOVF   FEF,F
05188:  BNZ   518C
.................... 						ws281x_checkcount++; 
0518A:  INCF   x3B,F
.................... 					} 
.................... 				} 
0518C:  INCF   x42,F
0518E:  BTFSC  FD8.2
05190:  INCF   x43,F
05192:  BRA    5058
.................... 				if(ws281x_checkcount == ws281x_led_value){ 
05194:  MOVF   x37,W
05196:  SUBWF  x3B,W
05198:  BNZ   51A2
0519A:  MOVF   x38,F
0519C:  BNZ   51A2
.................... 					ws281x_status = 1; 
0519E:  MOVLW  01
051A0:  MOVWF  x3A
.................... 				} 
....................  
.................... 			}else if(ws281x_status == 1){ 
051A2:  BRA    5450
051A4:  DECFSZ x3A,W
051A6:  BRA    52FA
.................... 				// 
.................... 				ws281x_checkcount = 0; 
051A8:  CLRF   x3B
.................... 				for(tmp1=0;tmp1<ws281x_led_value;tmp1++){ 
051AA:  CLRF   x43
051AC:  CLRF   x42
051AE:  MOVF   x43,W
051B0:  SUBWF  x38,W
051B2:  BTFSS  FD8.0
051B4:  BRA    52EA
051B6:  BNZ   51C0
051B8:  MOVF   x37,W
051BA:  SUBWF  x42,W
051BC:  BTFSC  FD8.0
051BE:  BRA    52EA
.................... 					//if(ws281x_buffer_r[tmp1] < 246){ws281x_buffer_r[tmp1] = ws281x_buffer_r[tmp1]+10;}else{ws281x_buffer_r[tmp1] = 255;}//	+ 
.................... 					if(ws281x_buffer_g[tmp1] < 246){ws281x_buffer_g[tmp1] = ws281x_buffer_g[tmp1]+10;}else{ws281x_buffer_g[tmp1] = 255;}//		+ 
051C0:  MOVLW  35
051C2:  ADDWF  x42,W
051C4:  MOVWF  FE9
051C6:  MOVLW  02
051C8:  ADDWFC x43,W
051CA:  MOVWF  FEA
051CC:  MOVF   FEF,W
051CE:  SUBLW  F5
051D0:  BNC   5202
051D2:  MOVLW  35
051D4:  ADDWF  x42,W
051D6:  MOVWF  01
051D8:  MOVLW  02
051DA:  ADDWFC x43,W
051DC:  MOVWF  03
051DE:  MOVFF  01,449
051E2:  MOVWF  x4A
051E4:  MOVLW  35
051E6:  ADDWF  x42,W
051E8:  MOVWF  FE9
051EA:  MOVLW  02
051EC:  ADDWFC x43,W
051EE:  MOVWF  FEA
051F0:  MOVLW  0A
051F2:  ADDWF  FEF,W
051F4:  MOVWF  x4B
051F6:  MOVFF  03,FEA
051FA:  MOVFF  01,FE9
051FE:  MOVWF  FEF
05200:  BRA    5210
05202:  MOVLW  35
05204:  ADDWF  x42,W
05206:  MOVWF  FE9
05208:  MOVLW  02
0520A:  ADDWFC x43,W
0520C:  MOVWF  FEA
0520E:  SETF   FEF
.................... 					//if(ws281x_buffer_b[tmp1] < 246){ws281x_buffer_b[tmp1] = ws281x_buffer_b[tmp1]+10;}else{ws281x_buffer_b[tmp1] = 255;}//	+ 
.................... 					if(ws281x_buffer_r[tmp1] > 9){	ws281x_buffer_r[tmp1] = ws281x_buffer_r[tmp1]-10;}else{	ws281x_buffer_r[tmp1] = 0;}//		- 
05210:  MOVLW  34
05212:  ADDWF  x42,W
05214:  MOVWF  FE9
05216:  MOVLW  01
05218:  ADDWFC x43,W
0521A:  MOVWF  FEA
0521C:  MOVF   FEF,W
0521E:  SUBLW  09
05220:  BC    5252
05222:  MOVLW  34
05224:  ADDWF  x42,W
05226:  MOVWF  01
05228:  MOVLW  01
0522A:  ADDWFC x43,W
0522C:  MOVWF  03
0522E:  MOVFF  01,449
05232:  MOVWF  x4A
05234:  MOVLW  34
05236:  ADDWF  x42,W
05238:  MOVWF  FE9
0523A:  MOVLW  01
0523C:  ADDWFC x43,W
0523E:  MOVWF  FEA
05240:  MOVLW  0A
05242:  SUBWF  FEF,W
05244:  MOVWF  x4B
05246:  MOVFF  03,FEA
0524A:  MOVFF  01,FE9
0524E:  MOVWF  FEF
05250:  BRA    5260
05252:  MOVLW  34
05254:  ADDWF  x42,W
05256:  MOVWF  FE9
05258:  MOVLW  01
0525A:  ADDWFC x43,W
0525C:  MOVWF  FEA
0525E:  CLRF   FEF
.................... 					//if(ws281x_buffer_g[tmp1] > 9){	ws281x_buffer_g[tmp1] = ws281x_buffer_g[tmp1]-10;}else{	ws281x_buffer_g[tmp1] = 0;}//	- 
.................... 					if(ws281x_buffer_b[tmp1] > 9){	ws281x_buffer_b[tmp1] = ws281x_buffer_b[tmp1]-10;}else{	ws281x_buffer_b[tmp1] = 0;}//		- 
05260:  MOVLW  36
05262:  ADDWF  x42,W
05264:  MOVWF  FE9
05266:  MOVLW  03
05268:  ADDWFC x43,W
0526A:  MOVWF  FEA
0526C:  MOVF   FEF,W
0526E:  SUBLW  09
05270:  BC    52A2
05272:  MOVLW  36
05274:  ADDWF  x42,W
05276:  MOVWF  01
05278:  MOVLW  03
0527A:  ADDWFC x43,W
0527C:  MOVWF  03
0527E:  MOVFF  01,449
05282:  MOVWF  x4A
05284:  MOVLW  36
05286:  ADDWF  x42,W
05288:  MOVWF  FE9
0528A:  MOVLW  03
0528C:  ADDWFC x43,W
0528E:  MOVWF  FEA
05290:  MOVLW  0A
05292:  SUBWF  FEF,W
05294:  MOVWF  x4B
05296:  MOVFF  03,FEA
0529A:  MOVFF  01,FE9
0529E:  MOVWF  FEF
052A0:  BRA    52B0
052A2:  MOVLW  36
052A4:  ADDWF  x42,W
052A6:  MOVWF  FE9
052A8:  MOVLW  03
052AA:  ADDWFC x43,W
052AC:  MOVWF  FEA
052AE:  CLRF   FEF
....................  
.................... 					// 
.................... 					if(ws281x_buffer_r[tmp1] == 0 && ws281x_buffer_g[tmp1] == 255 && ws281x_buffer_b[tmp1] == 0){ 
052B0:  MOVLW  34
052B2:  ADDWF  x42,W
052B4:  MOVWF  FE9
052B6:  MOVLW  01
052B8:  ADDWFC x43,W
052BA:  MOVWF  FEA
052BC:  MOVF   FEF,F
052BE:  BNZ   52E2
052C0:  MOVLW  35
052C2:  ADDWF  x42,W
052C4:  MOVWF  FE9
052C6:  MOVLW  02
052C8:  ADDWFC x43,W
052CA:  MOVWF  FEA
052CC:  INCFSZ FEF,W
052CE:  BRA    52E2
052D0:  MOVLW  36
052D2:  ADDWF  x42,W
052D4:  MOVWF  FE9
052D6:  MOVLW  03
052D8:  ADDWFC x43,W
052DA:  MOVWF  FEA
052DC:  MOVF   FEF,F
052DE:  BNZ   52E2
.................... 						ws281x_checkcount++; 
052E0:  INCF   x3B,F
.................... 					} 
.................... 				} 
052E2:  INCF   x42,F
052E4:  BTFSC  FD8.2
052E6:  INCF   x43,F
052E8:  BRA    51AE
....................  
.................... 				if(ws281x_checkcount == ws281x_led_value){ 
052EA:  MOVF   x37,W
052EC:  SUBWF  x3B,W
052EE:  BNZ   52F8
052F0:  MOVF   x38,F
052F2:  BNZ   52F8
.................... 					ws281x_status = 2; 
052F4:  MOVLW  02
052F6:  MOVWF  x3A
.................... 				} 
....................  
.................... 			}else if(ws281x_status == 2){ 
052F8:  BRA    5450
052FA:  MOVF   x3A,W
052FC:  SUBLW  02
052FE:  BTFSS  FD8.2
05300:  BRA    5450
.................... 				// 
.................... 				ws281x_checkcount = 0; 
05302:  CLRF   x3B
.................... 				for(tmp1=0;tmp1<ws281x_led_value;tmp1++){ 
05304:  CLRF   x43
05306:  CLRF   x42
05308:  MOVF   x43,W
0530A:  SUBWF  x38,W
0530C:  BTFSS  FD8.0
0530E:  BRA    5444
05310:  BNZ   531A
05312:  MOVF   x37,W
05314:  SUBWF  x42,W
05316:  BTFSC  FD8.0
05318:  BRA    5444
.................... 					//if(ws281x_buffer_r[tmp1] < 246){ws281x_buffer_r[tmp1] = ws281x_buffer_r[tmp1]+10;}else{ws281x_buffer_r[tmp1] = 255;}//	+ 
.................... 					//if(ws281x_buffer_g[tmp1] < 246){ws281x_buffer_g[tmp1] = ws281x_buffer_g[tmp1]+10;}else{ws281x_buffer_g[tmp1] = 255;}//	+ 
.................... 					if(ws281x_buffer_b[tmp1] < 246){ws281x_buffer_b[tmp1] = ws281x_buffer_b[tmp1]+10;}else{ws281x_buffer_b[tmp1] = 255;}//		+ 
0531A:  MOVLW  36
0531C:  ADDWF  x42,W
0531E:  MOVWF  FE9
05320:  MOVLW  03
05322:  ADDWFC x43,W
05324:  MOVWF  FEA
05326:  MOVF   FEF,W
05328:  SUBLW  F5
0532A:  BNC   535C
0532C:  MOVLW  36
0532E:  ADDWF  x42,W
05330:  MOVWF  01
05332:  MOVLW  03
05334:  ADDWFC x43,W
05336:  MOVWF  03
05338:  MOVFF  01,449
0533C:  MOVWF  x4A
0533E:  MOVLW  36
05340:  ADDWF  x42,W
05342:  MOVWF  FE9
05344:  MOVLW  03
05346:  ADDWFC x43,W
05348:  MOVWF  FEA
0534A:  MOVLW  0A
0534C:  ADDWF  FEF,W
0534E:  MOVWF  x4B
05350:  MOVFF  03,FEA
05354:  MOVFF  01,FE9
05358:  MOVWF  FEF
0535A:  BRA    536A
0535C:  MOVLW  36
0535E:  ADDWF  x42,W
05360:  MOVWF  FE9
05362:  MOVLW  03
05364:  ADDWFC x43,W
05366:  MOVWF  FEA
05368:  SETF   FEF
.................... 					if(ws281x_buffer_r[tmp1] > 9){	ws281x_buffer_r[tmp1] = ws281x_buffer_r[tmp1]-10;}else{	ws281x_buffer_r[tmp1] = 0;}//		- 
0536A:  MOVLW  34
0536C:  ADDWF  x42,W
0536E:  MOVWF  FE9
05370:  MOVLW  01
05372:  ADDWFC x43,W
05374:  MOVWF  FEA
05376:  MOVF   FEF,W
05378:  SUBLW  09
0537A:  BC    53AC
0537C:  MOVLW  34
0537E:  ADDWF  x42,W
05380:  MOVWF  01
05382:  MOVLW  01
05384:  ADDWFC x43,W
05386:  MOVWF  03
05388:  MOVFF  01,449
0538C:  MOVWF  x4A
0538E:  MOVLW  34
05390:  ADDWF  x42,W
05392:  MOVWF  FE9
05394:  MOVLW  01
05396:  ADDWFC x43,W
05398:  MOVWF  FEA
0539A:  MOVLW  0A
0539C:  SUBWF  FEF,W
0539E:  MOVWF  x4B
053A0:  MOVFF  03,FEA
053A4:  MOVFF  01,FE9
053A8:  MOVWF  FEF
053AA:  BRA    53BA
053AC:  MOVLW  34
053AE:  ADDWF  x42,W
053B0:  MOVWF  FE9
053B2:  MOVLW  01
053B4:  ADDWFC x43,W
053B6:  MOVWF  FEA
053B8:  CLRF   FEF
.................... 					if(ws281x_buffer_g[tmp1] > 9){	ws281x_buffer_g[tmp1] = ws281x_buffer_g[tmp1]-10;}else{	ws281x_buffer_g[tmp1] = 0;}//		- 
053BA:  MOVLW  35
053BC:  ADDWF  x42,W
053BE:  MOVWF  FE9
053C0:  MOVLW  02
053C2:  ADDWFC x43,W
053C4:  MOVWF  FEA
053C6:  MOVF   FEF,W
053C8:  SUBLW  09
053CA:  BC    53FC
053CC:  MOVLW  35
053CE:  ADDWF  x42,W
053D0:  MOVWF  01
053D2:  MOVLW  02
053D4:  ADDWFC x43,W
053D6:  MOVWF  03
053D8:  MOVFF  01,449
053DC:  MOVWF  x4A
053DE:  MOVLW  35
053E0:  ADDWF  x42,W
053E2:  MOVWF  FE9
053E4:  MOVLW  02
053E6:  ADDWFC x43,W
053E8:  MOVWF  FEA
053EA:  MOVLW  0A
053EC:  SUBWF  FEF,W
053EE:  MOVWF  x4B
053F0:  MOVFF  03,FEA
053F4:  MOVFF  01,FE9
053F8:  MOVWF  FEF
053FA:  BRA    540A
053FC:  MOVLW  35
053FE:  ADDWF  x42,W
05400:  MOVWF  FE9
05402:  MOVLW  02
05404:  ADDWFC x43,W
05406:  MOVWF  FEA
05408:  CLRF   FEF
.................... 					//if(ws281x_buffer_b[tmp1] > 9){	ws281x_buffer_b[tmp1] = ws281x_buffer_b[tmp1]-10;}else{	ws281x_buffer_b[tmp1] = 0;}//	- 
....................  
.................... 					// 
.................... 					if(ws281x_buffer_r[tmp1] == 0 && ws281x_buffer_g[tmp1] == 0 && ws281x_buffer_b[tmp1] == 255){ 
0540A:  MOVLW  34
0540C:  ADDWF  x42,W
0540E:  MOVWF  FE9
05410:  MOVLW  01
05412:  ADDWFC x43,W
05414:  MOVWF  FEA
05416:  MOVF   FEF,F
05418:  BNZ   543C
0541A:  MOVLW  35
0541C:  ADDWF  x42,W
0541E:  MOVWF  FE9
05420:  MOVLW  02
05422:  ADDWFC x43,W
05424:  MOVWF  FEA
05426:  MOVF   FEF,F
05428:  BNZ   543C
0542A:  MOVLW  36
0542C:  ADDWF  x42,W
0542E:  MOVWF  FE9
05430:  MOVLW  03
05432:  ADDWFC x43,W
05434:  MOVWF  FEA
05436:  INCFSZ FEF,W
05438:  BRA    543C
.................... 						ws281x_checkcount++; 
0543A:  INCF   x3B,F
.................... 					} 
.................... 				} 
0543C:  INCF   x42,F
0543E:  BTFSC  FD8.2
05440:  INCF   x43,F
05442:  BRA    5308
.................... 				if(ws281x_checkcount == ws281x_led_value){ 
05444:  MOVF   x37,W
05446:  SUBWF  x3B,W
05448:  BNZ   5450
0544A:  MOVF   x38,F
0544C:  BNZ   5450
.................... 					ws281x_status = 0; 
0544E:  CLRF   x3A
.................... 				} 
....................  
.................... 			} 
.................... 		}else if(mode == 11){ 
05450:  GOTO   5DC4
05454:  MOVF   x41,W
05456:  SUBLW  0B
05458:  BTFSS  FD8.2
0545A:  BRA    5708
.................... 			//SFvF()B 
....................  
.................... 			if(ws281x_status == 0){ 
0545C:  MOVF   x3A,F
0545E:  BTFSS  FD8.2
05460:  BRA    55B4
.................... 				//S^ 
.................... 				ws281x_checkcount = 0; 
05462:  CLRF   x3B
.................... 				for(tmp1=0;tmp1<ws281x_led_value;tmp1++){ 
05464:  CLRF   x43
05466:  CLRF   x42
05468:  MOVF   x43,W
0546A:  SUBWF  x38,W
0546C:  BTFSS  FD8.0
0546E:  BRA    55A4
05470:  BNZ   547A
05472:  MOVF   x37,W
05474:  SUBWF  x42,W
05476:  BTFSC  FD8.0
05478:  BRA    55A4
.................... 					if(ws281x_buffer_r[tmp1] < 246){ws281x_buffer_r[tmp1] = ws281x_buffer_r[tmp1]+10;}else{ws281x_buffer_r[tmp1] = 255;}//		+ 
0547A:  MOVLW  34
0547C:  ADDWF  x42,W
0547E:  MOVWF  FE9
05480:  MOVLW  01
05482:  ADDWFC x43,W
05484:  MOVWF  FEA
05486:  MOVF   FEF,W
05488:  SUBLW  F5
0548A:  BNC   54BC
0548C:  MOVLW  34
0548E:  ADDWF  x42,W
05490:  MOVWF  01
05492:  MOVLW  01
05494:  ADDWFC x43,W
05496:  MOVWF  03
05498:  MOVFF  01,449
0549C:  MOVWF  x4A
0549E:  MOVLW  34
054A0:  ADDWF  x42,W
054A2:  MOVWF  FE9
054A4:  MOVLW  01
054A6:  ADDWFC x43,W
054A8:  MOVWF  FEA
054AA:  MOVLW  0A
054AC:  ADDWF  FEF,W
054AE:  MOVWF  x4B
054B0:  MOVFF  03,FEA
054B4:  MOVFF  01,FE9
054B8:  MOVWF  FEF
054BA:  BRA    54CA
054BC:  MOVLW  34
054BE:  ADDWF  x42,W
054C0:  MOVWF  FE9
054C2:  MOVLW  01
054C4:  ADDWFC x43,W
054C6:  MOVWF  FEA
054C8:  SETF   FEF
.................... 					//if(ws281x_buffer_g[tmp1] < 246){ws281x_buffer_g[tmp1] = ws281x_buffer_g[tmp1]+10;}else{ws281x_buffer_g[tmp1] = 255;}//	+ 
.................... 					//if(ws281x_buffer_b[tmp1] < 246){ws281x_buffer_b[tmp1] = ws281x_buffer_b[tmp1]+10;}else{ws281x_buffer_b[tmp1] = 255;}//	+ 
.................... 					//if(ws281x_buffer_r[tmp1] > 9){	ws281x_buffer_r[tmp1] = ws281x_buffer_r[tmp1]-10;}else{	ws281x_buffer_r[tmp1] = 0;}//	- 
.................... 					if(ws281x_buffer_g[tmp1] > 9){	ws281x_buffer_g[tmp1] = ws281x_buffer_g[tmp1]-10;}else{	ws281x_buffer_g[tmp1] = 0;}//		- 
054CA:  MOVLW  35
054CC:  ADDWF  x42,W
054CE:  MOVWF  FE9
054D0:  MOVLW  02
054D2:  ADDWFC x43,W
054D4:  MOVWF  FEA
054D6:  MOVF   FEF,W
054D8:  SUBLW  09
054DA:  BC    550C
054DC:  MOVLW  35
054DE:  ADDWF  x42,W
054E0:  MOVWF  01
054E2:  MOVLW  02
054E4:  ADDWFC x43,W
054E6:  MOVWF  03
054E8:  MOVFF  01,449
054EC:  MOVWF  x4A
054EE:  MOVLW  35
054F0:  ADDWF  x42,W
054F2:  MOVWF  FE9
054F4:  MOVLW  02
054F6:  ADDWFC x43,W
054F8:  MOVWF  FEA
054FA:  MOVLW  0A
054FC:  SUBWF  FEF,W
054FE:  MOVWF  x4B
05500:  MOVFF  03,FEA
05504:  MOVFF  01,FE9
05508:  MOVWF  FEF
0550A:  BRA    551A
0550C:  MOVLW  35
0550E:  ADDWF  x42,W
05510:  MOVWF  FE9
05512:  MOVLW  02
05514:  ADDWFC x43,W
05516:  MOVWF  FEA
05518:  CLRF   FEF
.................... 					if(ws281x_buffer_b[tmp1] > 9){	ws281x_buffer_b[tmp1] = ws281x_buffer_b[tmp1]-10;}else{	ws281x_buffer_b[tmp1] = 0;}//		- 
0551A:  MOVLW  36
0551C:  ADDWF  x42,W
0551E:  MOVWF  FE9
05520:  MOVLW  03
05522:  ADDWFC x43,W
05524:  MOVWF  FEA
05526:  MOVF   FEF,W
05528:  SUBLW  09
0552A:  BC    555C
0552C:  MOVLW  36
0552E:  ADDWF  x42,W
05530:  MOVWF  01
05532:  MOVLW  03
05534:  ADDWFC x43,W
05536:  MOVWF  03
05538:  MOVFF  01,449
0553C:  MOVWF  x4A
0553E:  MOVLW  36
05540:  ADDWF  x42,W
05542:  MOVWF  FE9
05544:  MOVLW  03
05546:  ADDWFC x43,W
05548:  MOVWF  FEA
0554A:  MOVLW  0A
0554C:  SUBWF  FEF,W
0554E:  MOVWF  x4B
05550:  MOVFF  03,FEA
05554:  MOVFF  01,FE9
05558:  MOVWF  FEF
0555A:  BRA    556A
0555C:  MOVLW  36
0555E:  ADDWF  x42,W
05560:  MOVWF  FE9
05562:  MOVLW  03
05564:  ADDWFC x43,W
05566:  MOVWF  FEA
05568:  CLRF   FEF
....................  
.................... 					// 
.................... 					if(ws281x_buffer_r[tmp1] == 255 && ws281x_buffer_g[tmp1] == 0 && ws281x_buffer_b[tmp1] == 0){ 
0556A:  MOVLW  34
0556C:  ADDWF  x42,W
0556E:  MOVWF  FE9
05570:  MOVLW  01
05572:  ADDWFC x43,W
05574:  MOVWF  FEA
05576:  INCFSZ FEF,W
05578:  BRA    559C
0557A:  MOVLW  35
0557C:  ADDWF  x42,W
0557E:  MOVWF  FE9
05580:  MOVLW  02
05582:  ADDWFC x43,W
05584:  MOVWF  FEA
05586:  MOVF   FEF,F
05588:  BNZ   559C
0558A:  MOVLW  36
0558C:  ADDWF  x42,W
0558E:  MOVWF  FE9
05590:  MOVLW  03
05592:  ADDWFC x43,W
05594:  MOVWF  FEA
05596:  MOVF   FEF,F
05598:  BNZ   559C
.................... 						ws281x_checkcount++; 
0559A:  INCF   x3B,F
.................... 					} 
.................... 				} 
0559C:  INCF   x42,F
0559E:  BTFSC  FD8.2
055A0:  INCF   x43,F
055A2:  BRA    5468
.................... 				if(ws281x_checkcount == ws281x_led_value){ 
055A4:  MOVF   x37,W
055A6:  SUBWF  x3B,W
055A8:  BNZ   55B2
055AA:  MOVF   x38,F
055AC:  BNZ   55B2
.................... 					ws281x_status = 1; 
055AE:  MOVLW  01
055B0:  MOVWF  x3A
.................... 				} 
....................  
.................... 			}else if(ws281x_status == 1){ 
055B2:  BRA    5706
055B4:  DECFSZ x3A,W
055B6:  BRA    5706
.................... 				// 
.................... 				ws281x_checkcount = 0; 
055B8:  CLRF   x3B
.................... 				for(tmp1=0;tmp1<ws281x_led_value;tmp1++){ 
055BA:  CLRF   x43
055BC:  CLRF   x42
055BE:  MOVF   x43,W
055C0:  SUBWF  x38,W
055C2:  BTFSS  FD8.0
055C4:  BRA    56FA
055C6:  BNZ   55D0
055C8:  MOVF   x37,W
055CA:  SUBWF  x42,W
055CC:  BTFSC  FD8.0
055CE:  BRA    56FA
.................... 					//if(ws281x_buffer_r[tmp1] < 246){ws281x_buffer_r[tmp1] = ws281x_buffer_r[tmp1]+10;}else{ws281x_buffer_r[tmp1] = 255;}//	+ 
.................... 					if(ws281x_buffer_g[tmp1] < 246){ws281x_buffer_g[tmp1] = ws281x_buffer_g[tmp1]+10;}else{ws281x_buffer_g[tmp1] = 255;}//		+ 
055D0:  MOVLW  35
055D2:  ADDWF  x42,W
055D4:  MOVWF  FE9
055D6:  MOVLW  02
055D8:  ADDWFC x43,W
055DA:  MOVWF  FEA
055DC:  MOVF   FEF,W
055DE:  SUBLW  F5
055E0:  BNC   5612
055E2:  MOVLW  35
055E4:  ADDWF  x42,W
055E6:  MOVWF  01
055E8:  MOVLW  02
055EA:  ADDWFC x43,W
055EC:  MOVWF  03
055EE:  MOVFF  01,449
055F2:  MOVWF  x4A
055F4:  MOVLW  35
055F6:  ADDWF  x42,W
055F8:  MOVWF  FE9
055FA:  MOVLW  02
055FC:  ADDWFC x43,W
055FE:  MOVWF  FEA
05600:  MOVLW  0A
05602:  ADDWF  FEF,W
05604:  MOVWF  x4B
05606:  MOVFF  03,FEA
0560A:  MOVFF  01,FE9
0560E:  MOVWF  FEF
05610:  BRA    5620
05612:  MOVLW  35
05614:  ADDWF  x42,W
05616:  MOVWF  FE9
05618:  MOVLW  02
0561A:  ADDWFC x43,W
0561C:  MOVWF  FEA
0561E:  SETF   FEF
.................... 					//if(ws281x_buffer_b[tmp1] < 246){ws281x_buffer_b[tmp1] = ws281x_buffer_b[tmp1]+10;}else{ws281x_buffer_b[tmp1] = 255;}//	+ 
.................... 					if(ws281x_buffer_r[tmp1] > 9){	ws281x_buffer_r[tmp1] = ws281x_buffer_r[tmp1]-10;}else{	ws281x_buffer_r[tmp1] = 0;}//		- 
05620:  MOVLW  34
05622:  ADDWF  x42,W
05624:  MOVWF  FE9
05626:  MOVLW  01
05628:  ADDWFC x43,W
0562A:  MOVWF  FEA
0562C:  MOVF   FEF,W
0562E:  SUBLW  09
05630:  BC    5662
05632:  MOVLW  34
05634:  ADDWF  x42,W
05636:  MOVWF  01
05638:  MOVLW  01
0563A:  ADDWFC x43,W
0563C:  MOVWF  03
0563E:  MOVFF  01,449
05642:  MOVWF  x4A
05644:  MOVLW  34
05646:  ADDWF  x42,W
05648:  MOVWF  FE9
0564A:  MOVLW  01
0564C:  ADDWFC x43,W
0564E:  MOVWF  FEA
05650:  MOVLW  0A
05652:  SUBWF  FEF,W
05654:  MOVWF  x4B
05656:  MOVFF  03,FEA
0565A:  MOVFF  01,FE9
0565E:  MOVWF  FEF
05660:  BRA    5670
05662:  MOVLW  34
05664:  ADDWF  x42,W
05666:  MOVWF  FE9
05668:  MOVLW  01
0566A:  ADDWFC x43,W
0566C:  MOVWF  FEA
0566E:  CLRF   FEF
.................... 					//if(ws281x_buffer_g[tmp1] > 9){	ws281x_buffer_g[tmp1] = ws281x_buffer_g[tmp1]-10;}else{	ws281x_buffer_g[tmp1] = 0;}//	- 
.................... 					if(ws281x_buffer_b[tmp1] > 9){	ws281x_buffer_b[tmp1] = ws281x_buffer_b[tmp1]-10;}else{	ws281x_buffer_b[tmp1] = 0;}//		- 
05670:  MOVLW  36
05672:  ADDWF  x42,W
05674:  MOVWF  FE9
05676:  MOVLW  03
05678:  ADDWFC x43,W
0567A:  MOVWF  FEA
0567C:  MOVF   FEF,W
0567E:  SUBLW  09
05680:  BC    56B2
05682:  MOVLW  36
05684:  ADDWF  x42,W
05686:  MOVWF  01
05688:  MOVLW  03
0568A:  ADDWFC x43,W
0568C:  MOVWF  03
0568E:  MOVFF  01,449
05692:  MOVWF  x4A
05694:  MOVLW  36
05696:  ADDWF  x42,W
05698:  MOVWF  FE9
0569A:  MOVLW  03
0569C:  ADDWFC x43,W
0569E:  MOVWF  FEA
056A0:  MOVLW  0A
056A2:  SUBWF  FEF,W
056A4:  MOVWF  x4B
056A6:  MOVFF  03,FEA
056AA:  MOVFF  01,FE9
056AE:  MOVWF  FEF
056B0:  BRA    56C0
056B2:  MOVLW  36
056B4:  ADDWF  x42,W
056B6:  MOVWF  FE9
056B8:  MOVLW  03
056BA:  ADDWFC x43,W
056BC:  MOVWF  FEA
056BE:  CLRF   FEF
....................  
.................... 					// 
.................... 					if(ws281x_buffer_r[tmp1] == 0 && ws281x_buffer_g[tmp1] == 255 && ws281x_buffer_b[tmp1] == 0){ 
056C0:  MOVLW  34
056C2:  ADDWF  x42,W
056C4:  MOVWF  FE9
056C6:  MOVLW  01
056C8:  ADDWFC x43,W
056CA:  MOVWF  FEA
056CC:  MOVF   FEF,F
056CE:  BNZ   56F2
056D0:  MOVLW  35
056D2:  ADDWF  x42,W
056D4:  MOVWF  FE9
056D6:  MOVLW  02
056D8:  ADDWFC x43,W
056DA:  MOVWF  FEA
056DC:  INCFSZ FEF,W
056DE:  BRA    56F2
056E0:  MOVLW  36
056E2:  ADDWF  x42,W
056E4:  MOVWF  FE9
056E6:  MOVLW  03
056E8:  ADDWFC x43,W
056EA:  MOVWF  FEA
056EC:  MOVF   FEF,F
056EE:  BNZ   56F2
.................... 						ws281x_checkcount++; 
056F0:  INCF   x3B,F
.................... 					} 
.................... 				} 
056F2:  INCF   x42,F
056F4:  BTFSC  FD8.2
056F6:  INCF   x43,F
056F8:  BRA    55BE
....................  
.................... 				if(ws281x_checkcount == ws281x_led_value){ 
056FA:  MOVF   x37,W
056FC:  SUBWF  x3B,W
056FE:  BNZ   5706
05700:  MOVF   x38,F
05702:  BNZ   5706
.................... 					ws281x_status = 0; 
05704:  CLRF   x3A
.................... 				} 
....................  
....................  
.................... 			} 
.................... 		}else if(mode == 12){ 
05706:  BRA    5DC4
05708:  MOVF   x41,W
0570A:  SUBLW  0C
0570C:  BTFSS  FD8.2
0570E:  BRA    5AFA
.................... 			//SFvFB 
....................  
.................... 			if(ws281x_status == 0){ 
05710:  MOVF   x3A,F
05712:  BTFSS  FD8.2
05714:  BRA    5868
.................... 				//S^ 
.................... 				ws281x_checkcount = 0; 
05716:  CLRF   x3B
.................... 				for(tmp1=0;tmp1<ws281x_led_value;tmp1++){ 
05718:  CLRF   x43
0571A:  CLRF   x42
0571C:  MOVF   x43,W
0571E:  SUBWF  x38,W
05720:  BTFSS  FD8.0
05722:  BRA    5858
05724:  BNZ   572E
05726:  MOVF   x37,W
05728:  SUBWF  x42,W
0572A:  BTFSC  FD8.0
0572C:  BRA    5858
.................... 					if(ws281x_buffer_r[tmp1] < 246){ws281x_buffer_r[tmp1] = ws281x_buffer_r[tmp1]+10;}else{ws281x_buffer_r[tmp1] = 255;}//		+ 
0572E:  MOVLW  34
05730:  ADDWF  x42,W
05732:  MOVWF  FE9
05734:  MOVLW  01
05736:  ADDWFC x43,W
05738:  MOVWF  FEA
0573A:  MOVF   FEF,W
0573C:  SUBLW  F5
0573E:  BNC   5770
05740:  MOVLW  34
05742:  ADDWF  x42,W
05744:  MOVWF  01
05746:  MOVLW  01
05748:  ADDWFC x43,W
0574A:  MOVWF  03
0574C:  MOVFF  01,449
05750:  MOVWF  x4A
05752:  MOVLW  34
05754:  ADDWF  x42,W
05756:  MOVWF  FE9
05758:  MOVLW  01
0575A:  ADDWFC x43,W
0575C:  MOVWF  FEA
0575E:  MOVLW  0A
05760:  ADDWF  FEF,W
05762:  MOVWF  x4B
05764:  MOVFF  03,FEA
05768:  MOVFF  01,FE9
0576C:  MOVWF  FEF
0576E:  BRA    577E
05770:  MOVLW  34
05772:  ADDWF  x42,W
05774:  MOVWF  FE9
05776:  MOVLW  01
05778:  ADDWFC x43,W
0577A:  MOVWF  FEA
0577C:  SETF   FEF
.................... 					//if(ws281x_buffer_g[tmp1] < 246){ws281x_buffer_g[tmp1] = ws281x_buffer_g[tmp1]+10;}else{ws281x_buffer_g[tmp1] = 255;}//	+ 
.................... 					//if(ws281x_buffer_b[tmp1] < 246){ws281x_buffer_b[tmp1] = ws281x_buffer_b[tmp1]+10;}else{ws281x_buffer_b[tmp1] = 255;}//	+ 
.................... 					//if(ws281x_buffer_r[tmp1] > 9){	ws281x_buffer_r[tmp1] = ws281x_buffer_r[tmp1]-10;}else{	ws281x_buffer_r[tmp1] = 0;}//	- 
.................... 					if(ws281x_buffer_g[tmp1] > 9){	ws281x_buffer_g[tmp1] = ws281x_buffer_g[tmp1]-10;}else{	ws281x_buffer_g[tmp1] = 0;}//		- 
0577E:  MOVLW  35
05780:  ADDWF  x42,W
05782:  MOVWF  FE9
05784:  MOVLW  02
05786:  ADDWFC x43,W
05788:  MOVWF  FEA
0578A:  MOVF   FEF,W
0578C:  SUBLW  09
0578E:  BC    57C0
05790:  MOVLW  35
05792:  ADDWF  x42,W
05794:  MOVWF  01
05796:  MOVLW  02
05798:  ADDWFC x43,W
0579A:  MOVWF  03
0579C:  MOVFF  01,449
057A0:  MOVWF  x4A
057A2:  MOVLW  35
057A4:  ADDWF  x42,W
057A6:  MOVWF  FE9
057A8:  MOVLW  02
057AA:  ADDWFC x43,W
057AC:  MOVWF  FEA
057AE:  MOVLW  0A
057B0:  SUBWF  FEF,W
057B2:  MOVWF  x4B
057B4:  MOVFF  03,FEA
057B8:  MOVFF  01,FE9
057BC:  MOVWF  FEF
057BE:  BRA    57CE
057C0:  MOVLW  35
057C2:  ADDWF  x42,W
057C4:  MOVWF  FE9
057C6:  MOVLW  02
057C8:  ADDWFC x43,W
057CA:  MOVWF  FEA
057CC:  CLRF   FEF
.................... 					if(ws281x_buffer_b[tmp1] > 9){	ws281x_buffer_b[tmp1] = ws281x_buffer_b[tmp1]-10;}else{	ws281x_buffer_b[tmp1] = 0;}//		- 
057CE:  MOVLW  36
057D0:  ADDWF  x42,W
057D2:  MOVWF  FE9
057D4:  MOVLW  03
057D6:  ADDWFC x43,W
057D8:  MOVWF  FEA
057DA:  MOVF   FEF,W
057DC:  SUBLW  09
057DE:  BC    5810
057E0:  MOVLW  36
057E2:  ADDWF  x42,W
057E4:  MOVWF  01
057E6:  MOVLW  03
057E8:  ADDWFC x43,W
057EA:  MOVWF  03
057EC:  MOVFF  01,449
057F0:  MOVWF  x4A
057F2:  MOVLW  36
057F4:  ADDWF  x42,W
057F6:  MOVWF  FE9
057F8:  MOVLW  03
057FA:  ADDWFC x43,W
057FC:  MOVWF  FEA
057FE:  MOVLW  0A
05800:  SUBWF  FEF,W
05802:  MOVWF  x4B
05804:  MOVFF  03,FEA
05808:  MOVFF  01,FE9
0580C:  MOVWF  FEF
0580E:  BRA    581E
05810:  MOVLW  36
05812:  ADDWF  x42,W
05814:  MOVWF  FE9
05816:  MOVLW  03
05818:  ADDWFC x43,W
0581A:  MOVWF  FEA
0581C:  CLRF   FEF
....................  
.................... 					// 
.................... 					if(ws281x_buffer_r[tmp1] == 255 && ws281x_buffer_g[tmp1] == 0 && ws281x_buffer_b[tmp1] == 0){ 
0581E:  MOVLW  34
05820:  ADDWF  x42,W
05822:  MOVWF  FE9
05824:  MOVLW  01
05826:  ADDWFC x43,W
05828:  MOVWF  FEA
0582A:  INCFSZ FEF,W
0582C:  BRA    5850
0582E:  MOVLW  35
05830:  ADDWF  x42,W
05832:  MOVWF  FE9
05834:  MOVLW  02
05836:  ADDWFC x43,W
05838:  MOVWF  FEA
0583A:  MOVF   FEF,F
0583C:  BNZ   5850
0583E:  MOVLW  36
05840:  ADDWF  x42,W
05842:  MOVWF  FE9
05844:  MOVLW  03
05846:  ADDWFC x43,W
05848:  MOVWF  FEA
0584A:  MOVF   FEF,F
0584C:  BNZ   5850
.................... 						ws281x_checkcount++; 
0584E:  INCF   x3B,F
.................... 					} 
.................... 				} 
05850:  INCF   x42,F
05852:  BTFSC  FD8.2
05854:  INCF   x43,F
05856:  BRA    571C
.................... 				if(ws281x_checkcount == ws281x_led_value){ 
05858:  MOVF   x37,W
0585A:  SUBWF  x3B,W
0585C:  BNZ   5866
0585E:  MOVF   x38,F
05860:  BNZ   5866
.................... 					ws281x_status = 1; 
05862:  MOVLW  01
05864:  MOVWF  x3A
.................... 				} 
....................  
.................... 			}else if(ws281x_status == 1){ 
05866:  BRA    5AF8
05868:  DECFSZ x3A,W
0586A:  BRA    59BE
.................... 				// 
.................... 				ws281x_checkcount = 0; 
0586C:  CLRF   x3B
.................... 				for(tmp1=0;tmp1<ws281x_led_value;tmp1++){ 
0586E:  CLRF   x43
05870:  CLRF   x42
05872:  MOVF   x43,W
05874:  SUBWF  x38,W
05876:  BTFSS  FD8.0
05878:  BRA    59AE
0587A:  BNZ   5884
0587C:  MOVF   x37,W
0587E:  SUBWF  x42,W
05880:  BTFSC  FD8.0
05882:  BRA    59AE
.................... 					//if(ws281x_buffer_r[tmp1] < 246){ws281x_buffer_r[tmp1] = ws281x_buffer_r[tmp1]+10;}else{ws281x_buffer_r[tmp1] = 255;}//	+ 
.................... 					if(ws281x_buffer_g[tmp1] < 246){ws281x_buffer_g[tmp1] = ws281x_buffer_g[tmp1]+10;}else{ws281x_buffer_g[tmp1] = 255;}//		+ 
05884:  MOVLW  35
05886:  ADDWF  x42,W
05888:  MOVWF  FE9
0588A:  MOVLW  02
0588C:  ADDWFC x43,W
0588E:  MOVWF  FEA
05890:  MOVF   FEF,W
05892:  SUBLW  F5
05894:  BNC   58C6
05896:  MOVLW  35
05898:  ADDWF  x42,W
0589A:  MOVWF  01
0589C:  MOVLW  02
0589E:  ADDWFC x43,W
058A0:  MOVWF  03
058A2:  MOVFF  01,449
058A6:  MOVWF  x4A
058A8:  MOVLW  35
058AA:  ADDWF  x42,W
058AC:  MOVWF  FE9
058AE:  MOVLW  02
058B0:  ADDWFC x43,W
058B2:  MOVWF  FEA
058B4:  MOVLW  0A
058B6:  ADDWF  FEF,W
058B8:  MOVWF  x4B
058BA:  MOVFF  03,FEA
058BE:  MOVFF  01,FE9
058C2:  MOVWF  FEF
058C4:  BRA    58D4
058C6:  MOVLW  35
058C8:  ADDWF  x42,W
058CA:  MOVWF  FE9
058CC:  MOVLW  02
058CE:  ADDWFC x43,W
058D0:  MOVWF  FEA
058D2:  SETF   FEF
.................... 					//if(ws281x_buffer_b[tmp1] < 246){ws281x_buffer_b[tmp1] = ws281x_buffer_b[tmp1]+10;}else{ws281x_buffer_b[tmp1] = 255;}//	+ 
.................... 					if(ws281x_buffer_r[tmp1] > 9){	ws281x_buffer_r[tmp1] = ws281x_buffer_r[tmp1]-10;}else{	ws281x_buffer_r[tmp1] = 0;}//		- 
058D4:  MOVLW  34
058D6:  ADDWF  x42,W
058D8:  MOVWF  FE9
058DA:  MOVLW  01
058DC:  ADDWFC x43,W
058DE:  MOVWF  FEA
058E0:  MOVF   FEF,W
058E2:  SUBLW  09
058E4:  BC    5916
058E6:  MOVLW  34
058E8:  ADDWF  x42,W
058EA:  MOVWF  01
058EC:  MOVLW  01
058EE:  ADDWFC x43,W
058F0:  MOVWF  03
058F2:  MOVFF  01,449
058F6:  MOVWF  x4A
058F8:  MOVLW  34
058FA:  ADDWF  x42,W
058FC:  MOVWF  FE9
058FE:  MOVLW  01
05900:  ADDWFC x43,W
05902:  MOVWF  FEA
05904:  MOVLW  0A
05906:  SUBWF  FEF,W
05908:  MOVWF  x4B
0590A:  MOVFF  03,FEA
0590E:  MOVFF  01,FE9
05912:  MOVWF  FEF
05914:  BRA    5924
05916:  MOVLW  34
05918:  ADDWF  x42,W
0591A:  MOVWF  FE9
0591C:  MOVLW  01
0591E:  ADDWFC x43,W
05920:  MOVWF  FEA
05922:  CLRF   FEF
.................... 					//if(ws281x_buffer_g[tmp1] > 9){	ws281x_buffer_g[tmp1] = ws281x_buffer_g[tmp1]-10;}else{	ws281x_buffer_g[tmp1] = 0;}//	- 
.................... 					if(ws281x_buffer_b[tmp1] > 9){	ws281x_buffer_b[tmp1] = ws281x_buffer_b[tmp1]-10;}else{	ws281x_buffer_b[tmp1] = 0;}//		- 
05924:  MOVLW  36
05926:  ADDWF  x42,W
05928:  MOVWF  FE9
0592A:  MOVLW  03
0592C:  ADDWFC x43,W
0592E:  MOVWF  FEA
05930:  MOVF   FEF,W
05932:  SUBLW  09
05934:  BC    5966
05936:  MOVLW  36
05938:  ADDWF  x42,W
0593A:  MOVWF  01
0593C:  MOVLW  03
0593E:  ADDWFC x43,W
05940:  MOVWF  03
05942:  MOVFF  01,449
05946:  MOVWF  x4A
05948:  MOVLW  36
0594A:  ADDWF  x42,W
0594C:  MOVWF  FE9
0594E:  MOVLW  03
05950:  ADDWFC x43,W
05952:  MOVWF  FEA
05954:  MOVLW  0A
05956:  SUBWF  FEF,W
05958:  MOVWF  x4B
0595A:  MOVFF  03,FEA
0595E:  MOVFF  01,FE9
05962:  MOVWF  FEF
05964:  BRA    5974
05966:  MOVLW  36
05968:  ADDWF  x42,W
0596A:  MOVWF  FE9
0596C:  MOVLW  03
0596E:  ADDWFC x43,W
05970:  MOVWF  FEA
05972:  CLRF   FEF
....................  
.................... 					// 
.................... 					if(ws281x_buffer_r[tmp1] == 0 && ws281x_buffer_g[tmp1] == 255 && ws281x_buffer_b[tmp1] == 0){ 
05974:  MOVLW  34
05976:  ADDWF  x42,W
05978:  MOVWF  FE9
0597A:  MOVLW  01
0597C:  ADDWFC x43,W
0597E:  MOVWF  FEA
05980:  MOVF   FEF,F
05982:  BNZ   59A6
05984:  MOVLW  35
05986:  ADDWF  x42,W
05988:  MOVWF  FE9
0598A:  MOVLW  02
0598C:  ADDWFC x43,W
0598E:  MOVWF  FEA
05990:  INCFSZ FEF,W
05992:  BRA    59A6
05994:  MOVLW  36
05996:  ADDWF  x42,W
05998:  MOVWF  FE9
0599A:  MOVLW  03
0599C:  ADDWFC x43,W
0599E:  MOVWF  FEA
059A0:  MOVF   FEF,F
059A2:  BNZ   59A6
.................... 						ws281x_checkcount++; 
059A4:  INCF   x3B,F
.................... 					} 
.................... 				} 
059A6:  INCF   x42,F
059A8:  BTFSC  FD8.2
059AA:  INCF   x43,F
059AC:  BRA    5872
....................  
.................... 				if(ws281x_checkcount == ws281x_led_value){ 
059AE:  MOVF   x37,W
059B0:  SUBWF  x3B,W
059B2:  BNZ   59BC
059B4:  MOVF   x38,F
059B6:  BNZ   59BC
.................... 					ws281x_status = 2; 
059B8:  MOVLW  02
059BA:  MOVWF  x3A
.................... 				} 
....................  
.................... 			}else if(ws281x_status == 2){ 
059BC:  BRA    5AF8
059BE:  MOVF   x3A,W
059C0:  SUBLW  02
059C2:  BTFSS  FD8.2
059C4:  BRA    5AF8
.................... 				//GhO[ 
.................... 				ws281x_checkcount = 0; 
059C6:  CLRF   x3B
.................... 				for(tmp1=0;tmp1<ws281x_led_value;tmp1++){ 
059C8:  CLRF   x43
059CA:  CLRF   x42
059CC:  MOVF   x43,W
059CE:  SUBWF  x38,W
059D0:  BTFSS  FD8.0
059D2:  BRA    5AEC
059D4:  BNZ   59DE
059D6:  MOVF   x37,W
059D8:  SUBWF  x42,W
059DA:  BTFSC  FD8.0
059DC:  BRA    5AEC
.................... 					//if(ws281x_buffer_r[tmp1] < 246){ws281x_buffer_r[tmp1] = ws281x_buffer_r[tmp1]+10;}else{ws281x_buffer_r[tmp1] = 255;}//	+ 
.................... 					//if(ws281x_buffer_g[tmp1] < 246){ws281x_buffer_g[tmp1] = ws281x_buffer_g[tmp1]+10;}else{ws281x_buffer_g[tmp1] = 255;}//	+ 
.................... 					if(ws281x_buffer_b[tmp1] < 49){ws281x_buffer_b[tmp1] = ws281x_buffer_b[tmp1]+10;}else{ws281x_buffer_b[tmp1] = 48;}//		+ 
059DE:  MOVLW  36
059E0:  ADDWF  x42,W
059E2:  MOVWF  FE9
059E4:  MOVLW  03
059E6:  ADDWFC x43,W
059E8:  MOVWF  FEA
059EA:  MOVF   FEF,W
059EC:  SUBLW  30
059EE:  BNC   5A20
059F0:  MOVLW  36
059F2:  ADDWF  x42,W
059F4:  MOVWF  01
059F6:  MOVLW  03
059F8:  ADDWFC x43,W
059FA:  MOVWF  03
059FC:  MOVFF  01,449
05A00:  MOVWF  x4A
05A02:  MOVLW  36
05A04:  ADDWF  x42,W
05A06:  MOVWF  FE9
05A08:  MOVLW  03
05A0A:  ADDWFC x43,W
05A0C:  MOVWF  FEA
05A0E:  MOVLW  0A
05A10:  ADDWF  FEF,W
05A12:  MOVWF  x4B
05A14:  MOVFF  03,FEA
05A18:  MOVFF  01,FE9
05A1C:  MOVWF  FEF
05A1E:  BRA    5A30
05A20:  MOVLW  36
05A22:  ADDWF  x42,W
05A24:  MOVWF  FE9
05A26:  MOVLW  03
05A28:  ADDWFC x43,W
05A2A:  MOVWF  FEA
05A2C:  MOVLW  30
05A2E:  MOVWF  FEF
.................... 					if(ws281x_buffer_r[tmp1] > 9){	ws281x_buffer_r[tmp1] = ws281x_buffer_r[tmp1]-10;}else{	ws281x_buffer_r[tmp1] = 0;}//		- 
05A30:  MOVLW  34
05A32:  ADDWF  x42,W
05A34:  MOVWF  FE9
05A36:  MOVLW  01
05A38:  ADDWFC x43,W
05A3A:  MOVWF  FEA
05A3C:  MOVF   FEF,W
05A3E:  SUBLW  09
05A40:  BC    5A72
05A42:  MOVLW  34
05A44:  ADDWF  x42,W
05A46:  MOVWF  01
05A48:  MOVLW  01
05A4A:  ADDWFC x43,W
05A4C:  MOVWF  03
05A4E:  MOVFF  01,449
05A52:  MOVWF  x4A
05A54:  MOVLW  34
05A56:  ADDWF  x42,W
05A58:  MOVWF  FE9
05A5A:  MOVLW  01
05A5C:  ADDWFC x43,W
05A5E:  MOVWF  FEA
05A60:  MOVLW  0A
05A62:  SUBWF  FEF,W
05A64:  MOVWF  x4B
05A66:  MOVFF  03,FEA
05A6A:  MOVFF  01,FE9
05A6E:  MOVWF  FEF
05A70:  BRA    5A80
05A72:  MOVLW  34
05A74:  ADDWF  x42,W
05A76:  MOVWF  FE9
05A78:  MOVLW  01
05A7A:  ADDWFC x43,W
05A7C:  MOVWF  FEA
05A7E:  CLRF   FEF
.................... 					if(ws281x_buffer_g[tmp1] > 9){	ws281x_buffer_g[tmp1] = ws281x_buffer_g[tmp1]-10;}else{	ws281x_buffer_g[tmp1] = 0;}//		- 
05A80:  MOVLW  35
05A82:  ADDWF  x42,W
05A84:  MOVWF  FE9
05A86:  MOVLW  02
05A88:  ADDWFC x43,W
05A8A:  MOVWF  FEA
05A8C:  MOVF   FEF,W
05A8E:  SUBLW  09
05A90:  BC    5AC2
05A92:  MOVLW  35
05A94:  ADDWF  x42,W
05A96:  MOVWF  01
05A98:  MOVLW  02
05A9A:  ADDWFC x43,W
05A9C:  MOVWF  03
05A9E:  MOVFF  01,449
05AA2:  MOVWF  x4A
05AA4:  MOVLW  35
05AA6:  ADDWF  x42,W
05AA8:  MOVWF  FE9
05AAA:  MOVLW  02
05AAC:  ADDWFC x43,W
05AAE:  MOVWF  FEA
05AB0:  MOVLW  0A
05AB2:  SUBWF  FEF,W
05AB4:  MOVWF  x4B
05AB6:  MOVFF  03,FEA
05ABA:  MOVFF  01,FE9
05ABE:  MOVWF  FEF
05AC0:  BRA    5AD0
05AC2:  MOVLW  35
05AC4:  ADDWF  x42,W
05AC6:  MOVWF  FE9
05AC8:  MOVLW  02
05ACA:  ADDWFC x43,W
05ACC:  MOVWF  FEA
05ACE:  CLRF   FEF
.................... 					//if(ws281x_buffer_b[tmp1] > 9){	ws281x_buffer_b[tmp1] = ws281x_buffer_b[tmp1]-10;}else{	ws281x_buffer_b[tmp1] = 0;}//	- 
....................  
.................... 					// 
.................... 					if(ws281x_buffer_b[tmp1] == 48){ 
05AD0:  MOVLW  36
05AD2:  ADDWF  x42,W
05AD4:  MOVWF  FE9
05AD6:  MOVLW  03
05AD8:  ADDWFC x43,W
05ADA:  MOVWF  FEA
05ADC:  MOVF   FEF,W
05ADE:  SUBLW  30
05AE0:  BNZ   5AE4
.................... 						ws281x_checkcount++; 
05AE2:  INCF   x3B,F
.................... 					} 
.................... 				} 
05AE4:  INCF   x42,F
05AE6:  BTFSC  FD8.2
05AE8:  INCF   x43,F
05AEA:  BRA    59CC
.................... 				if(ws281x_checkcount == ws281x_led_value){ 
05AEC:  MOVF   x37,W
05AEE:  SUBWF  x3B,W
05AF0:  BNZ   5AF8
05AF2:  MOVF   x38,F
05AF4:  BNZ   5AF8
.................... 					ws281x_status = 0; 
05AF6:  CLRF   x3A
.................... 				} 
....................  
.................... 			} 
.................... 		}else if(mode == 13){ 
05AF8:  BRA    5DC4
05AFA:  MOVF   x41,W
05AFC:  SUBLW  0D
05AFE:  BTFSS  FD8.2
05B00:  BRA    5DB6
.................... 			//SIWB 
....................  
.................... 			if(ws281x_status == 0){ 
05B02:  MOVF   x3A,F
05B04:  BTFSS  FD8.2
05B06:  BRA    5C5A
.................... 				//S^ 
.................... 				ws281x_checkcount = 0; 
05B08:  CLRF   x3B
.................... 				for(tmp1=0;tmp1<ws281x_led_value;tmp1++){ 
05B0A:  CLRF   x43
05B0C:  CLRF   x42
05B0E:  MOVF   x43,W
05B10:  SUBWF  x38,W
05B12:  BTFSS  FD8.0
05B14:  BRA    5C4A
05B16:  BNZ   5B20
05B18:  MOVF   x37,W
05B1A:  SUBWF  x42,W
05B1C:  BTFSC  FD8.0
05B1E:  BRA    5C4A
.................... 					if(ws281x_buffer_r[tmp1] < 246){ws281x_buffer_r[tmp1] = ws281x_buffer_r[tmp1]+10;}else{ws281x_buffer_r[tmp1] = 255;}//		+ 
05B20:  MOVLW  34
05B22:  ADDWF  x42,W
05B24:  MOVWF  FE9
05B26:  MOVLW  01
05B28:  ADDWFC x43,W
05B2A:  MOVWF  FEA
05B2C:  MOVF   FEF,W
05B2E:  SUBLW  F5
05B30:  BNC   5B62
05B32:  MOVLW  34
05B34:  ADDWF  x42,W
05B36:  MOVWF  01
05B38:  MOVLW  01
05B3A:  ADDWFC x43,W
05B3C:  MOVWF  03
05B3E:  MOVFF  01,449
05B42:  MOVWF  x4A
05B44:  MOVLW  34
05B46:  ADDWF  x42,W
05B48:  MOVWF  FE9
05B4A:  MOVLW  01
05B4C:  ADDWFC x43,W
05B4E:  MOVWF  FEA
05B50:  MOVLW  0A
05B52:  ADDWF  FEF,W
05B54:  MOVWF  x4B
05B56:  MOVFF  03,FEA
05B5A:  MOVFF  01,FE9
05B5E:  MOVWF  FEF
05B60:  BRA    5B70
05B62:  MOVLW  34
05B64:  ADDWF  x42,W
05B66:  MOVWF  FE9
05B68:  MOVLW  01
05B6A:  ADDWFC x43,W
05B6C:  MOVWF  FEA
05B6E:  SETF   FEF
.................... 					//if(ws281x_buffer_g[tmp1] < 246){ws281x_buffer_g[tmp1] = ws281x_buffer_g[tmp1]+10;}else{ws281x_buffer_g[tmp1] = 255;}//	+ 
.................... 					//if(ws281x_buffer_b[tmp1] < 246){ws281x_buffer_b[tmp1] = ws281x_buffer_b[tmp1]+10;}else{ws281x_buffer_b[tmp1] = 255;}//	+ 
.................... 					//if(ws281x_buffer_r[tmp1] > 9){	ws281x_buffer_r[tmp1] = ws281x_buffer_r[tmp1]-10;}else{	ws281x_buffer_r[tmp1] = 0;}//	- 
.................... 					if(ws281x_buffer_g[tmp1] > 9){	ws281x_buffer_g[tmp1] = ws281x_buffer_g[tmp1]-10;}else{	ws281x_buffer_g[tmp1] = 0;}//		- 
05B70:  MOVLW  35
05B72:  ADDWF  x42,W
05B74:  MOVWF  FE9
05B76:  MOVLW  02
05B78:  ADDWFC x43,W
05B7A:  MOVWF  FEA
05B7C:  MOVF   FEF,W
05B7E:  SUBLW  09
05B80:  BC    5BB2
05B82:  MOVLW  35
05B84:  ADDWF  x42,W
05B86:  MOVWF  01
05B88:  MOVLW  02
05B8A:  ADDWFC x43,W
05B8C:  MOVWF  03
05B8E:  MOVFF  01,449
05B92:  MOVWF  x4A
05B94:  MOVLW  35
05B96:  ADDWF  x42,W
05B98:  MOVWF  FE9
05B9A:  MOVLW  02
05B9C:  ADDWFC x43,W
05B9E:  MOVWF  FEA
05BA0:  MOVLW  0A
05BA2:  SUBWF  FEF,W
05BA4:  MOVWF  x4B
05BA6:  MOVFF  03,FEA
05BAA:  MOVFF  01,FE9
05BAE:  MOVWF  FEF
05BB0:  BRA    5BC0
05BB2:  MOVLW  35
05BB4:  ADDWF  x42,W
05BB6:  MOVWF  FE9
05BB8:  MOVLW  02
05BBA:  ADDWFC x43,W
05BBC:  MOVWF  FEA
05BBE:  CLRF   FEF
.................... 					if(ws281x_buffer_b[tmp1] > 9){	ws281x_buffer_b[tmp1] = ws281x_buffer_b[tmp1]-10;}else{	ws281x_buffer_b[tmp1] = 0;}//		- 
05BC0:  MOVLW  36
05BC2:  ADDWF  x42,W
05BC4:  MOVWF  FE9
05BC6:  MOVLW  03
05BC8:  ADDWFC x43,W
05BCA:  MOVWF  FEA
05BCC:  MOVF   FEF,W
05BCE:  SUBLW  09
05BD0:  BC    5C02
05BD2:  MOVLW  36
05BD4:  ADDWF  x42,W
05BD6:  MOVWF  01
05BD8:  MOVLW  03
05BDA:  ADDWFC x43,W
05BDC:  MOVWF  03
05BDE:  MOVFF  01,449
05BE2:  MOVWF  x4A
05BE4:  MOVLW  36
05BE6:  ADDWF  x42,W
05BE8:  MOVWF  FE9
05BEA:  MOVLW  03
05BEC:  ADDWFC x43,W
05BEE:  MOVWF  FEA
05BF0:  MOVLW  0A
05BF2:  SUBWF  FEF,W
05BF4:  MOVWF  x4B
05BF6:  MOVFF  03,FEA
05BFA:  MOVFF  01,FE9
05BFE:  MOVWF  FEF
05C00:  BRA    5C10
05C02:  MOVLW  36
05C04:  ADDWF  x42,W
05C06:  MOVWF  FE9
05C08:  MOVLW  03
05C0A:  ADDWFC x43,W
05C0C:  MOVWF  FEA
05C0E:  CLRF   FEF
....................  
.................... 					// 
.................... 					if(ws281x_buffer_r[tmp1] == 255 && ws281x_buffer_g[tmp1] == 0 && ws281x_buffer_b[tmp1] == 0){ 
05C10:  MOVLW  34
05C12:  ADDWF  x42,W
05C14:  MOVWF  FE9
05C16:  MOVLW  01
05C18:  ADDWFC x43,W
05C1A:  MOVWF  FEA
05C1C:  INCFSZ FEF,W
05C1E:  BRA    5C42
05C20:  MOVLW  35
05C22:  ADDWF  x42,W
05C24:  MOVWF  FE9
05C26:  MOVLW  02
05C28:  ADDWFC x43,W
05C2A:  MOVWF  FEA
05C2C:  MOVF   FEF,F
05C2E:  BNZ   5C42
05C30:  MOVLW  36
05C32:  ADDWF  x42,W
05C34:  MOVWF  FE9
05C36:  MOVLW  03
05C38:  ADDWFC x43,W
05C3A:  MOVWF  FEA
05C3C:  MOVF   FEF,F
05C3E:  BNZ   5C42
.................... 						ws281x_checkcount++; 
05C40:  INCF   x3B,F
.................... 					} 
.................... 				} 
05C42:  INCF   x42,F
05C44:  BTFSC  FD8.2
05C46:  INCF   x43,F
05C48:  BRA    5B0E
.................... 				if(ws281x_checkcount == ws281x_led_value){ 
05C4A:  MOVF   x37,W
05C4C:  SUBWF  x3B,W
05C4E:  BNZ   5C58
05C50:  MOVF   x38,F
05C52:  BNZ   5C58
.................... 					ws281x_status = 1; 
05C54:  MOVLW  01
05C56:  MOVWF  x3A
.................... 				} 
....................  
.................... 			}else if(ws281x_status == 1){ 
05C58:  BRA    5DB4
05C5A:  DECFSZ x3A,W
05C5C:  BRA    5DB4
.................... 				// 
.................... 				ws281x_checkcount = 0; 
05C5E:  CLRF   x3B
.................... 				for(tmp1=0;tmp1<ws281x_led_value;tmp1++){ 
05C60:  CLRF   x43
05C62:  CLRF   x42
05C64:  MOVF   x43,W
05C66:  SUBWF  x38,W
05C68:  BTFSS  FD8.0
05C6A:  BRA    5DA8
05C6C:  BNZ   5C76
05C6E:  MOVF   x37,W
05C70:  SUBWF  x42,W
05C72:  BTFSC  FD8.0
05C74:  BRA    5DA8
.................... 					//if(ws281x_buffer_r[tmp1] < 246){ws281x_buffer_r[tmp1] = ws281x_buffer_r[tmp1]+10;}else{ws281x_buffer_r[tmp1] = 255;}//	+ 
.................... 					if(ws281x_buffer_g[tmp1] < 81){ws281x_buffer_g[tmp1] = ws281x_buffer_g[tmp1]+10;}else{ws281x_buffer_g[tmp1] = 90;}//		+ 
05C76:  MOVLW  35
05C78:  ADDWF  x42,W
05C7A:  MOVWF  FE9
05C7C:  MOVLW  02
05C7E:  ADDWFC x43,W
05C80:  MOVWF  FEA
05C82:  MOVF   FEF,W
05C84:  SUBLW  50
05C86:  BNC   5CB8
05C88:  MOVLW  35
05C8A:  ADDWF  x42,W
05C8C:  MOVWF  01
05C8E:  MOVLW  02
05C90:  ADDWFC x43,W
05C92:  MOVWF  03
05C94:  MOVFF  01,449
05C98:  MOVWF  x4A
05C9A:  MOVLW  35
05C9C:  ADDWF  x42,W
05C9E:  MOVWF  FE9
05CA0:  MOVLW  02
05CA2:  ADDWFC x43,W
05CA4:  MOVWF  FEA
05CA6:  MOVLW  0A
05CA8:  ADDWF  FEF,W
05CAA:  MOVWF  x4B
05CAC:  MOVFF  03,FEA
05CB0:  MOVFF  01,FE9
05CB4:  MOVWF  FEF
05CB6:  BRA    5CC8
05CB8:  MOVLW  35
05CBA:  ADDWF  x42,W
05CBC:  MOVWF  FE9
05CBE:  MOVLW  02
05CC0:  ADDWFC x43,W
05CC2:  MOVWF  FEA
05CC4:  MOVLW  5A
05CC6:  MOVWF  FEF
.................... 					//if(ws281x_buffer_b[tmp1] < 246){ws281x_buffer_b[tmp1] = ws281x_buffer_b[tmp1]+10;}else{ws281x_buffer_b[tmp1] = 255;}//	+ 
.................... 					if(ws281x_buffer_r[tmp1] > 209){	ws281x_buffer_r[tmp1] = ws281x_buffer_r[tmp1]-10;}else{	ws281x_buffer_r[tmp1] = 200;}//		- 
05CC8:  MOVLW  34
05CCA:  ADDWF  x42,W
05CCC:  MOVWF  FE9
05CCE:  MOVLW  01
05CD0:  ADDWFC x43,W
05CD2:  MOVWF  FEA
05CD4:  MOVF   FEF,W
05CD6:  SUBLW  D1
05CD8:  BC    5D0A
05CDA:  MOVLW  34
05CDC:  ADDWF  x42,W
05CDE:  MOVWF  01
05CE0:  MOVLW  01
05CE2:  ADDWFC x43,W
05CE4:  MOVWF  03
05CE6:  MOVFF  01,449
05CEA:  MOVWF  x4A
05CEC:  MOVLW  34
05CEE:  ADDWF  x42,W
05CF0:  MOVWF  FE9
05CF2:  MOVLW  01
05CF4:  ADDWFC x43,W
05CF6:  MOVWF  FEA
05CF8:  MOVLW  0A
05CFA:  SUBWF  FEF,W
05CFC:  MOVWF  x4B
05CFE:  MOVFF  03,FEA
05D02:  MOVFF  01,FE9
05D06:  MOVWF  FEF
05D08:  BRA    5D1A
05D0A:  MOVLW  34
05D0C:  ADDWF  x42,W
05D0E:  MOVWF  FE9
05D10:  MOVLW  01
05D12:  ADDWFC x43,W
05D14:  MOVWF  FEA
05D16:  MOVLW  C8
05D18:  MOVWF  FEF
.................... 					//if(ws281x_buffer_g[tmp1] > 9){	ws281x_buffer_g[tmp1] = ws281x_buffer_g[tmp1]-10;}else{	ws281x_buffer_g[tmp1] = 0;}//	- 
.................... 					if(ws281x_buffer_b[tmp1] > 9){	ws281x_buffer_b[tmp1] = ws281x_buffer_b[tmp1]-10;}else{	ws281x_buffer_b[tmp1] = 0;}//		- 
05D1A:  MOVLW  36
05D1C:  ADDWF  x42,W
05D1E:  MOVWF  FE9
05D20:  MOVLW  03
05D22:  ADDWFC x43,W
05D24:  MOVWF  FEA
05D26:  MOVF   FEF,W
05D28:  SUBLW  09
05D2A:  BC    5D5C
05D2C:  MOVLW  36
05D2E:  ADDWF  x42,W
05D30:  MOVWF  01
05D32:  MOVLW  03
05D34:  ADDWFC x43,W
05D36:  MOVWF  03
05D38:  MOVFF  01,449
05D3C:  MOVWF  x4A
05D3E:  MOVLW  36
05D40:  ADDWF  x42,W
05D42:  MOVWF  FE9
05D44:  MOVLW  03
05D46:  ADDWFC x43,W
05D48:  MOVWF  FEA
05D4A:  MOVLW  0A
05D4C:  SUBWF  FEF,W
05D4E:  MOVWF  x4B
05D50:  MOVFF  03,FEA
05D54:  MOVFF  01,FE9
05D58:  MOVWF  FEF
05D5A:  BRA    5D6A
05D5C:  MOVLW  36
05D5E:  ADDWF  x42,W
05D60:  MOVWF  FE9
05D62:  MOVLW  03
05D64:  ADDWFC x43,W
05D66:  MOVWF  FEA
05D68:  CLRF   FEF
....................  
.................... 					// 
.................... 					if(ws281x_buffer_r[tmp1] == 200 && ws281x_buffer_g[tmp1] == 90 && ws281x_buffer_b[tmp1] == 0){ 
05D6A:  MOVLW  34
05D6C:  ADDWF  x42,W
05D6E:  MOVWF  FE9
05D70:  MOVLW  01
05D72:  ADDWFC x43,W
05D74:  MOVWF  FEA
05D76:  MOVF   FEF,W
05D78:  SUBLW  C8
05D7A:  BNZ   5DA0
05D7C:  MOVLW  35
05D7E:  ADDWF  x42,W
05D80:  MOVWF  FE9
05D82:  MOVLW  02
05D84:  ADDWFC x43,W
05D86:  MOVWF  FEA
05D88:  MOVF   FEF,W
05D8A:  SUBLW  5A
05D8C:  BNZ   5DA0
05D8E:  MOVLW  36
05D90:  ADDWF  x42,W
05D92:  MOVWF  FE9
05D94:  MOVLW  03
05D96:  ADDWFC x43,W
05D98:  MOVWF  FEA
05D9A:  MOVF   FEF,F
05D9C:  BNZ   5DA0
.................... 						ws281x_checkcount++; 
05D9E:  INCF   x3B,F
.................... 					} 
.................... 				} 
05DA0:  INCF   x42,F
05DA2:  BTFSC  FD8.2
05DA4:  INCF   x43,F
05DA6:  BRA    5C64
....................  
.................... 				if(ws281x_checkcount == ws281x_led_value){ 
05DA8:  MOVF   x37,W
05DAA:  SUBWF  x3B,W
05DAC:  BNZ   5DB4
05DAE:  MOVF   x38,F
05DB0:  BNZ   5DB4
.................... 					ws281x_status = 0; 
05DB2:  CLRF   x3A
.................... 				} 
....................  
.................... 			} 
.................... 		}else if(mode == 99){ 
05DB4:  BRA    5DC4
05DB6:  MOVF   x41,W
05DB8:  SUBLW  63
05DBA:  BNZ   5DBE
....................  
.................... 		}else if(mode == 100){ 
05DBC:  BRA    5DC4
05DBE:  MOVF   x41,W
05DC0:  SUBLW  64
05DC2:  BNZ   5DC4
05DC4:  MOVLB  3
....................  
.................... 		} 
.................... 	//}else{ 
.................... 	//	ws281x_mode_weight_count++; 
.................... 	//} 
....................  
.................... } 
05DC6:  MOVLB  0
05DC8:  RETURN 0
....................  
.................... //J[vZX 
.................... //eFbufferLED_OUToB 
.................... void ws281x_process(){ 
*
05DF0:  MOVLB  4
05DF2:  CLRF   x42
05DF4:  CLRF   x41
.................... 	long tmp1 = 0; 
....................  
.................... 	int tmp_buffer_1; 
.................... 	int tmp_buffer_2; 
.................... 	int tmp_buffer_3; 
....................  
.................... 	//^C~O 
.................... 	if(Illumi_timing == 0){ 
05DF6:  MOVLB  1
05DF8:  MOVF   x32,F
05DFA:  BTFSS  FD8.2
05DFC:  BRA    617E
.................... 		//RESET 
.................... 		output_bit(LED_OUT,1);//DEF 
05DFE:  BSF    F89.6
05E00:  BCF    F92.6
.................... 		output_bit(LED_OUT,0);//RESET 
05E02:  BCF    F89.6
05E04:  BCF    F92.6
.................... 		delay_us(55);//t@X50uSecPYB 
05E06:  MOVLW  37
05E08:  MOVLB  4
05E0A:  MOVWF  x46
05E0C:  MOVLB  0
05E0E:  BRA    5DCA
....................  
.................... 		//f[^M 
.................... 		for(tmp1 = 0;tmp1<ws281x_led_value;tmp1++){ 
05E10:  MOVLB  4
05E12:  CLRF   x42
05E14:  CLRF   x41
05E16:  MOVF   x42,W
05E18:  SUBWF  x38,W
05E1A:  BTFSS  FD8.0
05E1C:  BRA    6176
05E1E:  BNZ   5E28
05E20:  MOVF   x37,W
05E22:  SUBWF  x41,W
05E24:  BTFSC  FD8.0
05E26:  BRA    6176
.................... 			if(Illumi_signaltype == 0){ 
05E28:  MOVLB  1
05E2A:  MOVF   x31,F
05E2C:  BNZ   5E64
.................... 				//0=grb 
.................... 				tmp_buffer_1 = ws281x_buffer_g[tmp1]; 
05E2E:  MOVLW  35
05E30:  MOVLB  4
05E32:  ADDWF  x41,W
05E34:  MOVWF  FE9
05E36:  MOVLW  02
05E38:  ADDWFC x42,W
05E3A:  MOVWF  FEA
05E3C:  MOVFF  FEF,443
.................... 				tmp_buffer_2 = ws281x_buffer_r[tmp1]; 
05E40:  MOVLW  34
05E42:  ADDWF  x41,W
05E44:  MOVWF  FE9
05E46:  MOVLW  01
05E48:  ADDWFC x42,W
05E4A:  MOVWF  FEA
05E4C:  MOVFF  FEF,444
.................... 				tmp_buffer_3 = ws281x_buffer_b[tmp1]; 
05E50:  MOVLW  36
05E52:  ADDWF  x41,W
05E54:  MOVWF  FE9
05E56:  MOVLW  03
05E58:  ADDWFC x42,W
05E5A:  MOVWF  FEA
05E5C:  MOVFF  FEF,445
.................... 			}else if(Illumi_signaltype == 1){ 
05E60:  BRA    5E9A
05E62:  MOVLB  1
05E64:  DECFSZ x31,W
05E66:  BRA    5E9C
.................... 				//1=rgb 
.................... 				tmp_buffer_1 = ws281x_buffer_r[tmp1]; 
05E68:  MOVLW  34
05E6A:  MOVLB  4
05E6C:  ADDWF  x41,W
05E6E:  MOVWF  FE9
05E70:  MOVLW  01
05E72:  ADDWFC x42,W
05E74:  MOVWF  FEA
05E76:  MOVFF  FEF,443
.................... 				tmp_buffer_2 = ws281x_buffer_g[tmp1]; 
05E7A:  MOVLW  35
05E7C:  ADDWF  x41,W
05E7E:  MOVWF  FE9
05E80:  MOVLW  02
05E82:  ADDWFC x42,W
05E84:  MOVWF  FEA
05E86:  MOVFF  FEF,444
.................... 				tmp_buffer_3 = ws281x_buffer_b[tmp1]; 
05E8A:  MOVLW  36
05E8C:  ADDWF  x41,W
05E8E:  MOVWF  FE9
05E90:  MOVLW  03
05E92:  ADDWFC x42,W
05E94:  MOVWF  FEA
05E96:  MOVFF  FEF,445
05E9A:  MOVLB  1
.................... 			} 
....................  
.................... 			//f[^M 
.................... 			output_bit(LED_OUT,1);delay_cycles(2);			output_bit(LED_OUT,bit_test(tmp_buffer_1,7));delay_cycles(2);			output_bit(LED_OUT,0);delay_cycles(6); 
05E9C:  BSF    F89.6
05E9E:  BCF    F92.6
05EA0:  BRA    5EA2
05EA2:  MOVLB  4
05EA4:  BTFSC  x43.7
05EA6:  BRA    5EAC
05EA8:  BCF    F89.6
05EAA:  BRA    5EAE
05EAC:  BSF    F89.6
05EAE:  BCF    F92.6
05EB0:  BRA    5EB2
05EB2:  BCF    F89.6
05EB4:  BCF    F92.6
05EB6:  BRA    5EB8
05EB8:  BRA    5EBA
05EBA:  BRA    5EBC
.................... 			output_bit(LED_OUT,1);delay_cycles(2);			output_bit(LED_OUT,bit_test(tmp_buffer_1,6));delay_cycles(2);			output_bit(LED_OUT,0);delay_cycles(6); 
05EBC:  BSF    F89.6
05EBE:  BCF    F92.6
05EC0:  BRA    5EC2
05EC2:  BTFSC  x43.6
05EC4:  BRA    5ECA
05EC6:  BCF    F89.6
05EC8:  BRA    5ECC
05ECA:  BSF    F89.6
05ECC:  BCF    F92.6
05ECE:  BRA    5ED0
05ED0:  BCF    F89.6
05ED2:  BCF    F92.6
05ED4:  BRA    5ED6
05ED6:  BRA    5ED8
05ED8:  BRA    5EDA
.................... 			output_bit(LED_OUT,1);delay_cycles(2);			output_bit(LED_OUT,bit_test(tmp_buffer_1,5));delay_cycles(2);			output_bit(LED_OUT,0);delay_cycles(6); 
05EDA:  BSF    F89.6
05EDC:  BCF    F92.6
05EDE:  BRA    5EE0
05EE0:  BTFSC  x43.5
05EE2:  BRA    5EE8
05EE4:  BCF    F89.6
05EE6:  BRA    5EEA
05EE8:  BSF    F89.6
05EEA:  BCF    F92.6
05EEC:  BRA    5EEE
05EEE:  BCF    F89.6
05EF0:  BCF    F92.6
05EF2:  BRA    5EF4
05EF4:  BRA    5EF6
05EF6:  BRA    5EF8
.................... 			output_bit(LED_OUT,1);delay_cycles(2);			output_bit(LED_OUT,bit_test(tmp_buffer_1,4));delay_cycles(2);			output_bit(LED_OUT,0);delay_cycles(6); 
05EF8:  BSF    F89.6
05EFA:  BCF    F92.6
05EFC:  BRA    5EFE
05EFE:  BTFSC  x43.4
05F00:  BRA    5F06
05F02:  BCF    F89.6
05F04:  BRA    5F08
05F06:  BSF    F89.6
05F08:  BCF    F92.6
05F0A:  BRA    5F0C
05F0C:  BCF    F89.6
05F0E:  BCF    F92.6
05F10:  BRA    5F12
05F12:  BRA    5F14
05F14:  BRA    5F16
.................... 			output_bit(LED_OUT,1);delay_cycles(2);			output_bit(LED_OUT,bit_test(tmp_buffer_1,3));delay_cycles(2);			output_bit(LED_OUT,0);delay_cycles(6); 
05F16:  BSF    F89.6
05F18:  BCF    F92.6
05F1A:  BRA    5F1C
05F1C:  BTFSC  x43.3
05F1E:  BRA    5F24
05F20:  BCF    F89.6
05F22:  BRA    5F26
05F24:  BSF    F89.6
05F26:  BCF    F92.6
05F28:  BRA    5F2A
05F2A:  BCF    F89.6
05F2C:  BCF    F92.6
05F2E:  BRA    5F30
05F30:  BRA    5F32
05F32:  BRA    5F34
.................... 			output_bit(LED_OUT,1);delay_cycles(2);			output_bit(LED_OUT,bit_test(tmp_buffer_1,2));delay_cycles(2);			output_bit(LED_OUT,0);delay_cycles(6); 
05F34:  BSF    F89.6
05F36:  BCF    F92.6
05F38:  BRA    5F3A
05F3A:  BTFSC  x43.2
05F3C:  BRA    5F42
05F3E:  BCF    F89.6
05F40:  BRA    5F44
05F42:  BSF    F89.6
05F44:  BCF    F92.6
05F46:  BRA    5F48
05F48:  BCF    F89.6
05F4A:  BCF    F92.6
05F4C:  BRA    5F4E
05F4E:  BRA    5F50
05F50:  BRA    5F52
.................... 			output_bit(LED_OUT,1);delay_cycles(2);			output_bit(LED_OUT,bit_test(tmp_buffer_1,1));delay_cycles(2);			output_bit(LED_OUT,0);delay_cycles(6); 
05F52:  BSF    F89.6
05F54:  BCF    F92.6
05F56:  BRA    5F58
05F58:  BTFSC  x43.1
05F5A:  BRA    5F60
05F5C:  BCF    F89.6
05F5E:  BRA    5F62
05F60:  BSF    F89.6
05F62:  BCF    F92.6
05F64:  BRA    5F66
05F66:  BCF    F89.6
05F68:  BCF    F92.6
05F6A:  BRA    5F6C
05F6C:  BRA    5F6E
05F6E:  BRA    5F70
.................... 			output_bit(LED_OUT,1);delay_cycles(2);			output_bit(LED_OUT,bit_test(tmp_buffer_1,0));delay_cycles(2);			output_bit(LED_OUT,0);delay_cycles(6); 
05F70:  BSF    F89.6
05F72:  BCF    F92.6
05F74:  BRA    5F76
05F76:  BTFSC  x43.0
05F78:  BRA    5F7E
05F7A:  BCF    F89.6
05F7C:  BRA    5F80
05F7E:  BSF    F89.6
05F80:  BCF    F92.6
05F82:  BRA    5F84
05F84:  BCF    F89.6
05F86:  BCF    F92.6
05F88:  BRA    5F8A
05F8A:  BRA    5F8C
05F8C:  BRA    5F8E
....................  
.................... 			//f[^M 
.................... 			output_bit(LED_OUT,1);delay_cycles(2);			output_bit(LED_OUT,bit_test(tmp_buffer_2,7));delay_cycles(2);			output_bit(LED_OUT,0);delay_cycles(6); 
05F8E:  BSF    F89.6
05F90:  BCF    F92.6
05F92:  BRA    5F94
05F94:  BTFSC  x44.7
05F96:  BRA    5F9C
05F98:  BCF    F89.6
05F9A:  BRA    5F9E
05F9C:  BSF    F89.6
05F9E:  BCF    F92.6
05FA0:  BRA    5FA2
05FA2:  BCF    F89.6
05FA4:  BCF    F92.6
05FA6:  BRA    5FA8
05FA8:  BRA    5FAA
05FAA:  BRA    5FAC
.................... 			output_bit(LED_OUT,1);delay_cycles(2);			output_bit(LED_OUT,bit_test(tmp_buffer_2,6));delay_cycles(2);			output_bit(LED_OUT,0);delay_cycles(6); 
05FAC:  BSF    F89.6
05FAE:  BCF    F92.6
05FB0:  BRA    5FB2
05FB2:  BTFSC  x44.6
05FB4:  BRA    5FBA
05FB6:  BCF    F89.6
05FB8:  BRA    5FBC
05FBA:  BSF    F89.6
05FBC:  BCF    F92.6
05FBE:  BRA    5FC0
05FC0:  BCF    F89.6
05FC2:  BCF    F92.6
05FC4:  BRA    5FC6
05FC6:  BRA    5FC8
05FC8:  BRA    5FCA
.................... 			output_bit(LED_OUT,1);delay_cycles(2);			output_bit(LED_OUT,bit_test(tmp_buffer_2,5));delay_cycles(2);			output_bit(LED_OUT,0);delay_cycles(6); 
05FCA:  BSF    F89.6
05FCC:  BCF    F92.6
05FCE:  BRA    5FD0
05FD0:  BTFSC  x44.5
05FD2:  BRA    5FD8
05FD4:  BCF    F89.6
05FD6:  BRA    5FDA
05FD8:  BSF    F89.6
05FDA:  BCF    F92.6
05FDC:  BRA    5FDE
05FDE:  BCF    F89.6
05FE0:  BCF    F92.6
05FE2:  BRA    5FE4
05FE4:  BRA    5FE6
05FE6:  BRA    5FE8
.................... 			output_bit(LED_OUT,1);delay_cycles(2);			output_bit(LED_OUT,bit_test(tmp_buffer_2,4));delay_cycles(2);			output_bit(LED_OUT,0);delay_cycles(6); 
05FE8:  BSF    F89.6
05FEA:  BCF    F92.6
05FEC:  BRA    5FEE
05FEE:  BTFSC  x44.4
05FF0:  BRA    5FF6
05FF2:  BCF    F89.6
05FF4:  BRA    5FF8
05FF6:  BSF    F89.6
05FF8:  BCF    F92.6
05FFA:  BRA    5FFC
05FFC:  BCF    F89.6
05FFE:  BCF    F92.6
06000:  BRA    6002
06002:  BRA    6004
06004:  BRA    6006
.................... 			output_bit(LED_OUT,1);delay_cycles(2);			output_bit(LED_OUT,bit_test(tmp_buffer_2,3));delay_cycles(2);			output_bit(LED_OUT,0);delay_cycles(6); 
06006:  BSF    F89.6
06008:  BCF    F92.6
0600A:  BRA    600C
0600C:  BTFSC  x44.3
0600E:  BRA    6014
06010:  BCF    F89.6
06012:  BRA    6016
06014:  BSF    F89.6
06016:  BCF    F92.6
06018:  BRA    601A
0601A:  BCF    F89.6
0601C:  BCF    F92.6
0601E:  BRA    6020
06020:  BRA    6022
06022:  BRA    6024
.................... 			output_bit(LED_OUT,1);delay_cycles(2);			output_bit(LED_OUT,bit_test(tmp_buffer_2,2));delay_cycles(2);			output_bit(LED_OUT,0);delay_cycles(6); 
06024:  BSF    F89.6
06026:  BCF    F92.6
06028:  BRA    602A
0602A:  BTFSC  x44.2
0602C:  BRA    6032
0602E:  BCF    F89.6
06030:  BRA    6034
06032:  BSF    F89.6
06034:  BCF    F92.6
06036:  BRA    6038
06038:  BCF    F89.6
0603A:  BCF    F92.6
0603C:  BRA    603E
0603E:  BRA    6040
06040:  BRA    6042
.................... 			output_bit(LED_OUT,1);delay_cycles(2);			output_bit(LED_OUT,bit_test(tmp_buffer_2,1));delay_cycles(2);			output_bit(LED_OUT,0);delay_cycles(6); 
06042:  BSF    F89.6
06044:  BCF    F92.6
06046:  BRA    6048
06048:  BTFSC  x44.1
0604A:  BRA    6050
0604C:  BCF    F89.6
0604E:  BRA    6052
06050:  BSF    F89.6
06052:  BCF    F92.6
06054:  BRA    6056
06056:  BCF    F89.6
06058:  BCF    F92.6
0605A:  BRA    605C
0605C:  BRA    605E
0605E:  BRA    6060
.................... 			output_bit(LED_OUT,1);delay_cycles(2);			output_bit(LED_OUT,bit_test(tmp_buffer_2,0));delay_cycles(2);			output_bit(LED_OUT,0);delay_cycles(6); 
06060:  BSF    F89.6
06062:  BCF    F92.6
06064:  BRA    6066
06066:  BTFSC  x44.0
06068:  BRA    606E
0606A:  BCF    F89.6
0606C:  BRA    6070
0606E:  BSF    F89.6
06070:  BCF    F92.6
06072:  BRA    6074
06074:  BCF    F89.6
06076:  BCF    F92.6
06078:  BRA    607A
0607A:  BRA    607C
0607C:  BRA    607E
....................  
.................... 			//Of[^M 
.................... 			output_bit(LED_OUT,1);delay_cycles(2);			output_bit(LED_OUT,bit_test(tmp_buffer_3,7));delay_cycles(2);			output_bit(LED_OUT,0);delay_cycles(6); 
0607E:  BSF    F89.6
06080:  BCF    F92.6
06082:  BRA    6084
06084:  BTFSC  x45.7
06086:  BRA    608C
06088:  BCF    F89.6
0608A:  BRA    608E
0608C:  BSF    F89.6
0608E:  BCF    F92.6
06090:  BRA    6092
06092:  BCF    F89.6
06094:  BCF    F92.6
06096:  BRA    6098
06098:  BRA    609A
0609A:  BRA    609C
.................... 			output_bit(LED_OUT,1);delay_cycles(2);			output_bit(LED_OUT,bit_test(tmp_buffer_3,6));delay_cycles(2);			output_bit(LED_OUT,0);delay_cycles(6); 
0609C:  BSF    F89.6
0609E:  BCF    F92.6
060A0:  BRA    60A2
060A2:  BTFSC  x45.6
060A4:  BRA    60AA
060A6:  BCF    F89.6
060A8:  BRA    60AC
060AA:  BSF    F89.6
060AC:  BCF    F92.6
060AE:  BRA    60B0
060B0:  BCF    F89.6
060B2:  BCF    F92.6
060B4:  BRA    60B6
060B6:  BRA    60B8
060B8:  BRA    60BA
.................... 			output_bit(LED_OUT,1);delay_cycles(2);			output_bit(LED_OUT,bit_test(tmp_buffer_3,5));delay_cycles(2);			output_bit(LED_OUT,0);delay_cycles(6); 
060BA:  BSF    F89.6
060BC:  BCF    F92.6
060BE:  BRA    60C0
060C0:  BTFSC  x45.5
060C2:  BRA    60C8
060C4:  BCF    F89.6
060C6:  BRA    60CA
060C8:  BSF    F89.6
060CA:  BCF    F92.6
060CC:  BRA    60CE
060CE:  BCF    F89.6
060D0:  BCF    F92.6
060D2:  BRA    60D4
060D4:  BRA    60D6
060D6:  BRA    60D8
.................... 			output_bit(LED_OUT,1);delay_cycles(2);			output_bit(LED_OUT,bit_test(tmp_buffer_3,4));delay_cycles(2);			output_bit(LED_OUT,0);delay_cycles(6); 
060D8:  BSF    F89.6
060DA:  BCF    F92.6
060DC:  BRA    60DE
060DE:  BTFSC  x45.4
060E0:  BRA    60E6
060E2:  BCF    F89.6
060E4:  BRA    60E8
060E6:  BSF    F89.6
060E8:  BCF    F92.6
060EA:  BRA    60EC
060EC:  BCF    F89.6
060EE:  BCF    F92.6
060F0:  BRA    60F2
060F2:  BRA    60F4
060F4:  BRA    60F6
.................... 			output_bit(LED_OUT,1);delay_cycles(2);			output_bit(LED_OUT,bit_test(tmp_buffer_3,3));delay_cycles(2);			output_bit(LED_OUT,0);delay_cycles(6); 
060F6:  BSF    F89.6
060F8:  BCF    F92.6
060FA:  BRA    60FC
060FC:  BTFSC  x45.3
060FE:  BRA    6104
06100:  BCF    F89.6
06102:  BRA    6106
06104:  BSF    F89.6
06106:  BCF    F92.6
06108:  BRA    610A
0610A:  BCF    F89.6
0610C:  BCF    F92.6
0610E:  BRA    6110
06110:  BRA    6112
06112:  BRA    6114
.................... 			output_bit(LED_OUT,1);delay_cycles(2);			output_bit(LED_OUT,bit_test(tmp_buffer_3,2));delay_cycles(2);			output_bit(LED_OUT,0);delay_cycles(6); 
06114:  BSF    F89.6
06116:  BCF    F92.6
06118:  BRA    611A
0611A:  BTFSC  x45.2
0611C:  BRA    6122
0611E:  BCF    F89.6
06120:  BRA    6124
06122:  BSF    F89.6
06124:  BCF    F92.6
06126:  BRA    6128
06128:  BCF    F89.6
0612A:  BCF    F92.6
0612C:  BRA    612E
0612E:  BRA    6130
06130:  BRA    6132
.................... 			output_bit(LED_OUT,1);delay_cycles(2);			output_bit(LED_OUT,bit_test(tmp_buffer_3,1));delay_cycles(2);			output_bit(LED_OUT,0);delay_cycles(6); 
06132:  BSF    F89.6
06134:  BCF    F92.6
06136:  BRA    6138
06138:  BTFSC  x45.1
0613A:  BRA    6140
0613C:  BCF    F89.6
0613E:  BRA    6142
06140:  BSF    F89.6
06142:  BCF    F92.6
06144:  BRA    6146
06146:  BCF    F89.6
06148:  BCF    F92.6
0614A:  BRA    614C
0614C:  BRA    614E
0614E:  BRA    6150
.................... 			output_bit(LED_OUT,1);delay_cycles(2);			output_bit(LED_OUT,bit_test(tmp_buffer_3,0));delay_cycles(2);			output_bit(LED_OUT,0);delay_cycles(6); 
06150:  BSF    F89.6
06152:  BCF    F92.6
06154:  BRA    6156
06156:  BTFSC  x45.0
06158:  BRA    615E
0615A:  BCF    F89.6
0615C:  BRA    6160
0615E:  BSF    F89.6
06160:  BCF    F92.6
06162:  BRA    6164
06164:  BCF    F89.6
06166:  BCF    F92.6
06168:  BRA    616A
0616A:  BRA    616C
0616C:  BRA    616E
.................... 			 
.................... 			//delay_us(1);delay_cycles(3); 
.................... 		} 
0616E:  INCF   x41,F
06170:  BTFSC  FD8.2
06172:  INCF   x42,F
06174:  BRA    5E16
.................... 		//end 
.................... 		output_bit(LED_OUT,1);// 
06176:  BSF    F89.6
06178:  BCF    F92.6
.................... 	}else if(Illumi_timing == 1){ 
0617A:  BRA    6842
0617C:  MOVLB  1
0617E:  DECFSZ x32,W
06180:  BRA    6480
.................... 		//RESET 
.................... 		output_bit(LED_OUT,1);//DEF 
06182:  BSF    F89.6
06184:  BCF    F92.6
.................... 		output_bit(LED_OUT,0);//RESET 
06186:  BCF    F89.6
06188:  BCF    F92.6
.................... 		delay_ms(1);//t@X50uSecPYB 
0618A:  MOVLW  01
0618C:  MOVLB  4
0618E:  MOVWF  x46
06190:  MOVLB  0
06192:  CALL   3E26
....................  
.................... 		//f[^M 
.................... 		for(tmp1 = 0;tmp1<ws281x_led_value;tmp1++){ 
06196:  MOVLB  4
06198:  CLRF   x42
0619A:  CLRF   x41
0619C:  MOVF   x42,W
0619E:  SUBWF  x38,W
061A0:  BTFSS  FD8.0
061A2:  BRA    6478
061A4:  BNZ   61AE
061A6:  MOVF   x37,W
061A8:  SUBWF  x41,W
061AA:  BTFSC  FD8.0
061AC:  BRA    6478
.................... 			if(Illumi_signaltype == 0){ 
061AE:  MOVLB  1
061B0:  MOVF   x31,F
061B2:  BNZ   61EA
.................... 				//0=grb 
.................... 				tmp_buffer_1 = ws281x_buffer_g[tmp1]; 
061B4:  MOVLW  35
061B6:  MOVLB  4
061B8:  ADDWF  x41,W
061BA:  MOVWF  FE9
061BC:  MOVLW  02
061BE:  ADDWFC x42,W
061C0:  MOVWF  FEA
061C2:  MOVFF  FEF,443
.................... 				tmp_buffer_2 = ws281x_buffer_r[tmp1]; 
061C6:  MOVLW  34
061C8:  ADDWF  x41,W
061CA:  MOVWF  FE9
061CC:  MOVLW  01
061CE:  ADDWFC x42,W
061D0:  MOVWF  FEA
061D2:  MOVFF  FEF,444
.................... 				tmp_buffer_3 = ws281x_buffer_b[tmp1]; 
061D6:  MOVLW  36
061D8:  ADDWF  x41,W
061DA:  MOVWF  FE9
061DC:  MOVLW  03
061DE:  ADDWFC x42,W
061E0:  MOVWF  FEA
061E2:  MOVFF  FEF,445
.................... 			}else if(Illumi_signaltype == 1){ 
061E6:  BRA    6220
061E8:  MOVLB  1
061EA:  DECFSZ x31,W
061EC:  BRA    6222
.................... 				//1=rgb 
.................... 				tmp_buffer_1 = ws281x_buffer_r[tmp1]; 
061EE:  MOVLW  34
061F0:  MOVLB  4
061F2:  ADDWF  x41,W
061F4:  MOVWF  FE9
061F6:  MOVLW  01
061F8:  ADDWFC x42,W
061FA:  MOVWF  FEA
061FC:  MOVFF  FEF,443
.................... 				tmp_buffer_2 = ws281x_buffer_g[tmp1]; 
06200:  MOVLW  35
06202:  ADDWF  x41,W
06204:  MOVWF  FE9
06206:  MOVLW  02
06208:  ADDWFC x42,W
0620A:  MOVWF  FEA
0620C:  MOVFF  FEF,444
.................... 				tmp_buffer_3 = ws281x_buffer_b[tmp1]; 
06210:  MOVLW  36
06212:  ADDWF  x41,W
06214:  MOVWF  FE9
06216:  MOVLW  03
06218:  ADDWFC x42,W
0621A:  MOVWF  FEA
0621C:  MOVFF  FEF,445
06220:  MOVLB  1
.................... 			} 
....................  
.................... 			//f[^M 
.................... 			output_bit(LED_OUT,1);delay_cycles(1);	output_bit(LED_OUT,bit_test(tmp_buffer_1,7));delay_cycles(2);	output_bit(LED_OUT,0); 
06222:  BSF    F89.6
06224:  BCF    F92.6
06226:  NOP   
06228:  MOVLB  4
0622A:  BTFSC  x43.7
0622C:  BRA    6232
0622E:  BCF    F89.6
06230:  BRA    6234
06232:  BSF    F89.6
06234:  BCF    F92.6
06236:  BRA    6238
06238:  BCF    F89.6
0623A:  BCF    F92.6
.................... 			output_bit(LED_OUT,1);delay_cycles(1);	output_bit(LED_OUT,bit_test(tmp_buffer_1,6));delay_cycles(2);	output_bit(LED_OUT,0); 
0623C:  BSF    F89.6
0623E:  BCF    F92.6
06240:  NOP   
06242:  BTFSC  x43.6
06244:  BRA    624A
06246:  BCF    F89.6
06248:  BRA    624C
0624A:  BSF    F89.6
0624C:  BCF    F92.6
0624E:  BRA    6250
06250:  BCF    F89.6
06252:  BCF    F92.6
.................... 			output_bit(LED_OUT,1);delay_cycles(1);	output_bit(LED_OUT,bit_test(tmp_buffer_1,5));delay_cycles(2);	output_bit(LED_OUT,0); 
06254:  BSF    F89.6
06256:  BCF    F92.6
06258:  NOP   
0625A:  BTFSC  x43.5
0625C:  BRA    6262
0625E:  BCF    F89.6
06260:  BRA    6264
06262:  BSF    F89.6
06264:  BCF    F92.6
06266:  BRA    6268
06268:  BCF    F89.6
0626A:  BCF    F92.6
.................... 			output_bit(LED_OUT,1);delay_cycles(1);	output_bit(LED_OUT,bit_test(tmp_buffer_1,4));delay_cycles(2);	output_bit(LED_OUT,0); 
0626C:  BSF    F89.6
0626E:  BCF    F92.6
06270:  NOP   
06272:  BTFSC  x43.4
06274:  BRA    627A
06276:  BCF    F89.6
06278:  BRA    627C
0627A:  BSF    F89.6
0627C:  BCF    F92.6
0627E:  BRA    6280
06280:  BCF    F89.6
06282:  BCF    F92.6
.................... 			output_bit(LED_OUT,1);delay_cycles(1);	output_bit(LED_OUT,bit_test(tmp_buffer_1,3));delay_cycles(2);	output_bit(LED_OUT,0); 
06284:  BSF    F89.6
06286:  BCF    F92.6
06288:  NOP   
0628A:  BTFSC  x43.3
0628C:  BRA    6292
0628E:  BCF    F89.6
06290:  BRA    6294
06292:  BSF    F89.6
06294:  BCF    F92.6
06296:  BRA    6298
06298:  BCF    F89.6
0629A:  BCF    F92.6
.................... 			output_bit(LED_OUT,1);delay_cycles(1);	output_bit(LED_OUT,bit_test(tmp_buffer_1,2));delay_cycles(2);	output_bit(LED_OUT,0); 
0629C:  BSF    F89.6
0629E:  BCF    F92.6
062A0:  NOP   
062A2:  BTFSC  x43.2
062A4:  BRA    62AA
062A6:  BCF    F89.6
062A8:  BRA    62AC
062AA:  BSF    F89.6
062AC:  BCF    F92.6
062AE:  BRA    62B0
062B0:  BCF    F89.6
062B2:  BCF    F92.6
.................... 			output_bit(LED_OUT,1);delay_cycles(1);	output_bit(LED_OUT,bit_test(tmp_buffer_1,1));delay_cycles(2);	output_bit(LED_OUT,0); 
062B4:  BSF    F89.6
062B6:  BCF    F92.6
062B8:  NOP   
062BA:  BTFSC  x43.1
062BC:  BRA    62C2
062BE:  BCF    F89.6
062C0:  BRA    62C4
062C2:  BSF    F89.6
062C4:  BCF    F92.6
062C6:  BRA    62C8
062C8:  BCF    F89.6
062CA:  BCF    F92.6
.................... 			output_bit(LED_OUT,1);delay_cycles(1);	output_bit(LED_OUT,bit_test(tmp_buffer_1,0));delay_cycles(2);	output_bit(LED_OUT,0); 
062CC:  BSF    F89.6
062CE:  BCF    F92.6
062D0:  NOP   
062D2:  BTFSC  x43.0
062D4:  BRA    62DA
062D6:  BCF    F89.6
062D8:  BRA    62DC
062DA:  BSF    F89.6
062DC:  BCF    F92.6
062DE:  BRA    62E0
062E0:  BCF    F89.6
062E2:  BCF    F92.6
....................  
.................... 			//f[^M 
.................... 			output_bit(LED_OUT,1);delay_cycles(1);	output_bit(LED_OUT,bit_test(tmp_buffer_2,7));delay_cycles(2);	output_bit(LED_OUT,0); 
062E4:  BSF    F89.6
062E6:  BCF    F92.6
062E8:  NOP   
062EA:  BTFSC  x44.7
062EC:  BRA    62F2
062EE:  BCF    F89.6
062F0:  BRA    62F4
062F2:  BSF    F89.6
062F4:  BCF    F92.6
062F6:  BRA    62F8
062F8:  BCF    F89.6
062FA:  BCF    F92.6
.................... 			output_bit(LED_OUT,1);delay_cycles(1);	output_bit(LED_OUT,bit_test(tmp_buffer_2,6));delay_cycles(2);	output_bit(LED_OUT,0); 
062FC:  BSF    F89.6
062FE:  BCF    F92.6
06300:  NOP   
06302:  BTFSC  x44.6
06304:  BRA    630A
06306:  BCF    F89.6
06308:  BRA    630C
0630A:  BSF    F89.6
0630C:  BCF    F92.6
0630E:  BRA    6310
06310:  BCF    F89.6
06312:  BCF    F92.6
.................... 			output_bit(LED_OUT,1);delay_cycles(1);	output_bit(LED_OUT,bit_test(tmp_buffer_2,5));delay_cycles(2);	output_bit(LED_OUT,0); 
06314:  BSF    F89.6
06316:  BCF    F92.6
06318:  NOP   
0631A:  BTFSC  x44.5
0631C:  BRA    6322
0631E:  BCF    F89.6
06320:  BRA    6324
06322:  BSF    F89.6
06324:  BCF    F92.6
06326:  BRA    6328
06328:  BCF    F89.6
0632A:  BCF    F92.6
.................... 			output_bit(LED_OUT,1);delay_cycles(1);	output_bit(LED_OUT,bit_test(tmp_buffer_2,4));delay_cycles(2);	output_bit(LED_OUT,0); 
0632C:  BSF    F89.6
0632E:  BCF    F92.6
06330:  NOP   
06332:  BTFSC  x44.4
06334:  BRA    633A
06336:  BCF    F89.6
06338:  BRA    633C
0633A:  BSF    F89.6
0633C:  BCF    F92.6
0633E:  BRA    6340
06340:  BCF    F89.6
06342:  BCF    F92.6
.................... 			output_bit(LED_OUT,1);delay_cycles(1);	output_bit(LED_OUT,bit_test(tmp_buffer_2,3));delay_cycles(2);	output_bit(LED_OUT,0); 
06344:  BSF    F89.6
06346:  BCF    F92.6
06348:  NOP   
0634A:  BTFSC  x44.3
0634C:  BRA    6352
0634E:  BCF    F89.6
06350:  BRA    6354
06352:  BSF    F89.6
06354:  BCF    F92.6
06356:  BRA    6358
06358:  BCF    F89.6
0635A:  BCF    F92.6
.................... 			output_bit(LED_OUT,1);delay_cycles(1);	output_bit(LED_OUT,bit_test(tmp_buffer_2,2));delay_cycles(2);	output_bit(LED_OUT,0); 
0635C:  BSF    F89.6
0635E:  BCF    F92.6
06360:  NOP   
06362:  BTFSC  x44.2
06364:  BRA    636A
06366:  BCF    F89.6
06368:  BRA    636C
0636A:  BSF    F89.6
0636C:  BCF    F92.6
0636E:  BRA    6370
06370:  BCF    F89.6
06372:  BCF    F92.6
.................... 			output_bit(LED_OUT,1);delay_cycles(1);	output_bit(LED_OUT,bit_test(tmp_buffer_2,1));delay_cycles(2);	output_bit(LED_OUT,0); 
06374:  BSF    F89.6
06376:  BCF    F92.6
06378:  NOP   
0637A:  BTFSC  x44.1
0637C:  BRA    6382
0637E:  BCF    F89.6
06380:  BRA    6384
06382:  BSF    F89.6
06384:  BCF    F92.6
06386:  BRA    6388
06388:  BCF    F89.6
0638A:  BCF    F92.6
.................... 			output_bit(LED_OUT,1);delay_cycles(1);	output_bit(LED_OUT,bit_test(tmp_buffer_2,0));delay_cycles(2);	output_bit(LED_OUT,0); 
0638C:  BSF    F89.6
0638E:  BCF    F92.6
06390:  NOP   
06392:  BTFSC  x44.0
06394:  BRA    639A
06396:  BCF    F89.6
06398:  BRA    639C
0639A:  BSF    F89.6
0639C:  BCF    F92.6
0639E:  BRA    63A0
063A0:  BCF    F89.6
063A2:  BCF    F92.6
....................  
.................... 			//Of[^M 
.................... 			output_bit(LED_OUT,1);delay_cycles(1);	output_bit(LED_OUT,bit_test(tmp_buffer_3,7));delay_cycles(2);	output_bit(LED_OUT,0); 
063A4:  BSF    F89.6
063A6:  BCF    F92.6
063A8:  NOP   
063AA:  BTFSC  x45.7
063AC:  BRA    63B2
063AE:  BCF    F89.6
063B0:  BRA    63B4
063B2:  BSF    F89.6
063B4:  BCF    F92.6
063B6:  BRA    63B8
063B8:  BCF    F89.6
063BA:  BCF    F92.6
.................... 			output_bit(LED_OUT,1);delay_cycles(1);	output_bit(LED_OUT,bit_test(tmp_buffer_3,6));delay_cycles(2);	output_bit(LED_OUT,0); 
063BC:  BSF    F89.6
063BE:  BCF    F92.6
063C0:  NOP   
063C2:  BTFSC  x45.6
063C4:  BRA    63CA
063C6:  BCF    F89.6
063C8:  BRA    63CC
063CA:  BSF    F89.6
063CC:  BCF    F92.6
063CE:  BRA    63D0
063D0:  BCF    F89.6
063D2:  BCF    F92.6
.................... 			output_bit(LED_OUT,1);delay_cycles(1);	output_bit(LED_OUT,bit_test(tmp_buffer_3,5));delay_cycles(2);	output_bit(LED_OUT,0); 
063D4:  BSF    F89.6
063D6:  BCF    F92.6
063D8:  NOP   
063DA:  BTFSC  x45.5
063DC:  BRA    63E2
063DE:  BCF    F89.6
063E0:  BRA    63E4
063E2:  BSF    F89.6
063E4:  BCF    F92.6
063E6:  BRA    63E8
063E8:  BCF    F89.6
063EA:  BCF    F92.6
.................... 			output_bit(LED_OUT,1);delay_cycles(1);	output_bit(LED_OUT,bit_test(tmp_buffer_3,4));delay_cycles(2);	output_bit(LED_OUT,0); 
063EC:  BSF    F89.6
063EE:  BCF    F92.6
063F0:  NOP   
063F2:  BTFSC  x45.4
063F4:  BRA    63FA
063F6:  BCF    F89.6
063F8:  BRA    63FC
063FA:  BSF    F89.6
063FC:  BCF    F92.6
063FE:  BRA    6400
06400:  BCF    F89.6
06402:  BCF    F92.6
.................... 			output_bit(LED_OUT,1);delay_cycles(1);	output_bit(LED_OUT,bit_test(tmp_buffer_3,3));delay_cycles(2);	output_bit(LED_OUT,0); 
06404:  BSF    F89.6
06406:  BCF    F92.6
06408:  NOP   
0640A:  BTFSC  x45.3
0640C:  BRA    6412
0640E:  BCF    F89.6
06410:  BRA    6414
06412:  BSF    F89.6
06414:  BCF    F92.6
06416:  BRA    6418
06418:  BCF    F89.6
0641A:  BCF    F92.6
.................... 			output_bit(LED_OUT,1);delay_cycles(1);	output_bit(LED_OUT,bit_test(tmp_buffer_3,2));delay_cycles(2);	output_bit(LED_OUT,0); 
0641C:  BSF    F89.6
0641E:  BCF    F92.6
06420:  NOP   
06422:  BTFSC  x45.2
06424:  BRA    642A
06426:  BCF    F89.6
06428:  BRA    642C
0642A:  BSF    F89.6
0642C:  BCF    F92.6
0642E:  BRA    6430
06430:  BCF    F89.6
06432:  BCF    F92.6
.................... 			output_bit(LED_OUT,1);delay_cycles(1);	output_bit(LED_OUT,bit_test(tmp_buffer_3,1));delay_cycles(2);	output_bit(LED_OUT,0); 
06434:  BSF    F89.6
06436:  BCF    F92.6
06438:  NOP   
0643A:  BTFSC  x45.1
0643C:  BRA    6442
0643E:  BCF    F89.6
06440:  BRA    6444
06442:  BSF    F89.6
06444:  BCF    F92.6
06446:  BRA    6448
06448:  BCF    F89.6
0644A:  BCF    F92.6
.................... 			output_bit(LED_OUT,1);delay_cycles(1);	output_bit(LED_OUT,bit_test(tmp_buffer_3,0));delay_cycles(2);	output_bit(LED_OUT,0); 
0644C:  BSF    F89.6
0644E:  BCF    F92.6
06450:  NOP   
06452:  BTFSC  x45.0
06454:  BRA    645A
06456:  BCF    F89.6
06458:  BRA    645C
0645A:  BSF    F89.6
0645C:  BCF    F92.6
0645E:  BRA    6460
06460:  BCF    F89.6
06462:  BCF    F92.6
.................... 			 
.................... 			delay_us(1);delay_cycles(3); 
06464:  MOVLW  05
06466:  MOVWF  00
06468:  DECFSZ 00,F
0646A:  BRA    6468
0646C:  BRA    646E
0646E:  NOP   
.................... 		} 
06470:  INCF   x41,F
06472:  BTFSC  FD8.2
06474:  INCF   x42,F
06476:  BRA    619C
....................  
.................... 		//end 
.................... 		output_bit(LED_OUT,1);// 
06478:  BSF    F89.6
0647A:  BCF    F92.6
.................... 	}else if(Illumi_timing == 2){ 
0647C:  BRA    6842
0647E:  MOVLB  1
06480:  MOVF   x32,W
06482:  SUBLW  02
06484:  BTFSS  FD8.2
06486:  BRA    6844
.................... 		//RESET 
.................... 		output_bit(LED_OUT,1);//DEF 
06488:  BSF    F89.6
0648A:  BCF    F92.6
.................... 		output_bit(LED_OUT,0);//RESET 
0648C:  BCF    F89.6
0648E:  BCF    F92.6
.................... 		delay_ms(1);//t@X50uSecPYB 
06490:  MOVLW  01
06492:  MOVLB  4
06494:  MOVWF  x46
06496:  MOVLB  0
06498:  CALL   3E26
.................... 		//delay_ms(20);//t@X50uSecPYB 
....................  
.................... 		//f[^M 
.................... 		for(tmp1 = 0;tmp1<ws281x_led_value;tmp1++){ 
0649C:  MOVLB  4
0649E:  CLRF   x42
064A0:  CLRF   x41
064A2:  MOVF   x42,W
064A4:  SUBWF  x38,W
064A6:  BTFSS  FD8.0
064A8:  BRA    683E
064AA:  BNZ   64B4
064AC:  MOVF   x37,W
064AE:  SUBWF  x41,W
064B0:  BTFSC  FD8.0
064B2:  BRA    683E
.................... 			if(Illumi_signaltype == 0){ 
064B4:  MOVLB  1
064B6:  MOVF   x31,F
064B8:  BNZ   64F0
.................... 				//0=grb 
.................... 				tmp_buffer_1 = ws281x_buffer_g[tmp1]; 
064BA:  MOVLW  35
064BC:  MOVLB  4
064BE:  ADDWF  x41,W
064C0:  MOVWF  FE9
064C2:  MOVLW  02
064C4:  ADDWFC x42,W
064C6:  MOVWF  FEA
064C8:  MOVFF  FEF,443
.................... 				tmp_buffer_2 = ws281x_buffer_r[tmp1]; 
064CC:  MOVLW  34
064CE:  ADDWF  x41,W
064D0:  MOVWF  FE9
064D2:  MOVLW  01
064D4:  ADDWFC x42,W
064D6:  MOVWF  FEA
064D8:  MOVFF  FEF,444
.................... 				tmp_buffer_3 = ws281x_buffer_b[tmp1]; 
064DC:  MOVLW  36
064DE:  ADDWF  x41,W
064E0:  MOVWF  FE9
064E2:  MOVLW  03
064E4:  ADDWFC x42,W
064E6:  MOVWF  FEA
064E8:  MOVFF  FEF,445
.................... 			}else if(Illumi_signaltype == 1){ 
064EC:  BRA    6526
064EE:  MOVLB  1
064F0:  DECFSZ x31,W
064F2:  BRA    6528
.................... 				//1=rgb 
.................... 				tmp_buffer_1 = ws281x_buffer_r[tmp1]; 
064F4:  MOVLW  34
064F6:  MOVLB  4
064F8:  ADDWF  x41,W
064FA:  MOVWF  FE9
064FC:  MOVLW  01
064FE:  ADDWFC x42,W
06500:  MOVWF  FEA
06502:  MOVFF  FEF,443
.................... 				tmp_buffer_2 = ws281x_buffer_g[tmp1]; 
06506:  MOVLW  35
06508:  ADDWF  x41,W
0650A:  MOVWF  FE9
0650C:  MOVLW  02
0650E:  ADDWFC x42,W
06510:  MOVWF  FEA
06512:  MOVFF  FEF,444
.................... 				tmp_buffer_3 = ws281x_buffer_b[tmp1]; 
06516:  MOVLW  36
06518:  ADDWF  x41,W
0651A:  MOVWF  FE9
0651C:  MOVLW  03
0651E:  ADDWFC x42,W
06520:  MOVWF  FEA
06522:  MOVFF  FEF,445
06526:  MOVLB  1
.................... 			} 
....................  
.................... 			//f[^M 
.................... 			output_bit(LED_OUT,1);delay_cycles(1);			output_bit(LED_OUT,bit_test(tmp_buffer_1,7));delay_cycles(5);			output_bit(LED_OUT,0);delay_cycles(4); 
06528:  BSF    F89.6
0652A:  BCF    F92.6
0652C:  NOP   
0652E:  MOVLB  4
06530:  BTFSC  x43.7
06532:  BRA    6538
06534:  BCF    F89.6
06536:  BRA    653A
06538:  BSF    F89.6
0653A:  BCF    F92.6
0653C:  BRA    653E
0653E:  BRA    6540
06540:  NOP   
06542:  BCF    F89.6
06544:  BCF    F92.6
06546:  BRA    6548
06548:  BRA    654A
.................... 			output_bit(LED_OUT,1);delay_cycles(1);			output_bit(LED_OUT,bit_test(tmp_buffer_1,6));delay_cycles(5);			output_bit(LED_OUT,0);delay_cycles(4); 
0654A:  BSF    F89.6
0654C:  BCF    F92.6
0654E:  NOP   
06550:  BTFSC  x43.6
06552:  BRA    6558
06554:  BCF    F89.6
06556:  BRA    655A
06558:  BSF    F89.6
0655A:  BCF    F92.6
0655C:  BRA    655E
0655E:  BRA    6560
06560:  NOP   
06562:  BCF    F89.6
06564:  BCF    F92.6
06566:  BRA    6568
06568:  BRA    656A
.................... 			output_bit(LED_OUT,1);delay_cycles(1);			output_bit(LED_OUT,bit_test(tmp_buffer_1,5));delay_cycles(5);			output_bit(LED_OUT,0);delay_cycles(4); 
0656A:  BSF    F89.6
0656C:  BCF    F92.6
0656E:  NOP   
06570:  BTFSC  x43.5
06572:  BRA    6578
06574:  BCF    F89.6
06576:  BRA    657A
06578:  BSF    F89.6
0657A:  BCF    F92.6
0657C:  BRA    657E
0657E:  BRA    6580
06580:  NOP   
06582:  BCF    F89.6
06584:  BCF    F92.6
06586:  BRA    6588
06588:  BRA    658A
.................... 			output_bit(LED_OUT,1);delay_cycles(1);			output_bit(LED_OUT,bit_test(tmp_buffer_1,4));delay_cycles(5);			output_bit(LED_OUT,0);delay_cycles(4); 
0658A:  BSF    F89.6
0658C:  BCF    F92.6
0658E:  NOP   
06590:  BTFSC  x43.4
06592:  BRA    6598
06594:  BCF    F89.6
06596:  BRA    659A
06598:  BSF    F89.6
0659A:  BCF    F92.6
0659C:  BRA    659E
0659E:  BRA    65A0
065A0:  NOP   
065A2:  BCF    F89.6
065A4:  BCF    F92.6
065A6:  BRA    65A8
065A8:  BRA    65AA
.................... 			output_bit(LED_OUT,1);delay_cycles(1);			output_bit(LED_OUT,bit_test(tmp_buffer_1,3));delay_cycles(5);			output_bit(LED_OUT,0);delay_cycles(4); 
065AA:  BSF    F89.6
065AC:  BCF    F92.6
065AE:  NOP   
065B0:  BTFSC  x43.3
065B2:  BRA    65B8
065B4:  BCF    F89.6
065B6:  BRA    65BA
065B8:  BSF    F89.6
065BA:  BCF    F92.6
065BC:  BRA    65BE
065BE:  BRA    65C0
065C0:  NOP   
065C2:  BCF    F89.6
065C4:  BCF    F92.6
065C6:  BRA    65C8
065C8:  BRA    65CA
.................... 			output_bit(LED_OUT,1);delay_cycles(1);			output_bit(LED_OUT,bit_test(tmp_buffer_1,2));delay_cycles(5);			output_bit(LED_OUT,0);delay_cycles(4); 
065CA:  BSF    F89.6
065CC:  BCF    F92.6
065CE:  NOP   
065D0:  BTFSC  x43.2
065D2:  BRA    65D8
065D4:  BCF    F89.6
065D6:  BRA    65DA
065D8:  BSF    F89.6
065DA:  BCF    F92.6
065DC:  BRA    65DE
065DE:  BRA    65E0
065E0:  NOP   
065E2:  BCF    F89.6
065E4:  BCF    F92.6
065E6:  BRA    65E8
065E8:  BRA    65EA
.................... 			output_bit(LED_OUT,1);delay_cycles(1);			output_bit(LED_OUT,bit_test(tmp_buffer_1,1));delay_cycles(5);			output_bit(LED_OUT,0);delay_cycles(4); 
065EA:  BSF    F89.6
065EC:  BCF    F92.6
065EE:  NOP   
065F0:  BTFSC  x43.1
065F2:  BRA    65F8
065F4:  BCF    F89.6
065F6:  BRA    65FA
065F8:  BSF    F89.6
065FA:  BCF    F92.6
065FC:  BRA    65FE
065FE:  BRA    6600
06600:  NOP   
06602:  BCF    F89.6
06604:  BCF    F92.6
06606:  BRA    6608
06608:  BRA    660A
.................... 			output_bit(LED_OUT,1);delay_cycles(1);			output_bit(LED_OUT,bit_test(tmp_buffer_1,0));delay_cycles(5);			output_bit(LED_OUT,0);delay_cycles(4); 
0660A:  BSF    F89.6
0660C:  BCF    F92.6
0660E:  NOP   
06610:  BTFSC  x43.0
06612:  BRA    6618
06614:  BCF    F89.6
06616:  BRA    661A
06618:  BSF    F89.6
0661A:  BCF    F92.6
0661C:  BRA    661E
0661E:  BRA    6620
06620:  NOP   
06622:  BCF    F89.6
06624:  BCF    F92.6
06626:  BRA    6628
06628:  BRA    662A
....................  
.................... 			//f[^M 
.................... 			output_bit(LED_OUT,1);delay_cycles(1);			output_bit(LED_OUT,bit_test(tmp_buffer_2,7));delay_cycles(5);			output_bit(LED_OUT,0);delay_cycles(4); 
0662A:  BSF    F89.6
0662C:  BCF    F92.6
0662E:  NOP   
06630:  BTFSC  x44.7
06632:  BRA    6638
06634:  BCF    F89.6
06636:  BRA    663A
06638:  BSF    F89.6
0663A:  BCF    F92.6
0663C:  BRA    663E
0663E:  BRA    6640
06640:  NOP   
06642:  BCF    F89.6
06644:  BCF    F92.6
06646:  BRA    6648
06648:  BRA    664A
.................... 			output_bit(LED_OUT,1);delay_cycles(1);			output_bit(LED_OUT,bit_test(tmp_buffer_2,6));delay_cycles(5);			output_bit(LED_OUT,0);delay_cycles(4); 
0664A:  BSF    F89.6
0664C:  BCF    F92.6
0664E:  NOP   
06650:  BTFSC  x44.6
06652:  BRA    6658
06654:  BCF    F89.6
06656:  BRA    665A
06658:  BSF    F89.6
0665A:  BCF    F92.6
0665C:  BRA    665E
0665E:  BRA    6660
06660:  NOP   
06662:  BCF    F89.6
06664:  BCF    F92.6
06666:  BRA    6668
06668:  BRA    666A
.................... 			output_bit(LED_OUT,1);delay_cycles(1);			output_bit(LED_OUT,bit_test(tmp_buffer_2,5));delay_cycles(5);			output_bit(LED_OUT,0);delay_cycles(4); 
0666A:  BSF    F89.6
0666C:  BCF    F92.6
0666E:  NOP   
06670:  BTFSC  x44.5
06672:  BRA    6678
06674:  BCF    F89.6
06676:  BRA    667A
06678:  BSF    F89.6
0667A:  BCF    F92.6
0667C:  BRA    667E
0667E:  BRA    6680
06680:  NOP   
06682:  BCF    F89.6
06684:  BCF    F92.6
06686:  BRA    6688
06688:  BRA    668A
.................... 			output_bit(LED_OUT,1);delay_cycles(1);			output_bit(LED_OUT,bit_test(tmp_buffer_2,4));delay_cycles(5);			output_bit(LED_OUT,0);delay_cycles(4); 
0668A:  BSF    F89.6
0668C:  BCF    F92.6
0668E:  NOP   
06690:  BTFSC  x44.4
06692:  BRA    6698
06694:  BCF    F89.6
06696:  BRA    669A
06698:  BSF    F89.6
0669A:  BCF    F92.6
0669C:  BRA    669E
0669E:  BRA    66A0
066A0:  NOP   
066A2:  BCF    F89.6
066A4:  BCF    F92.6
066A6:  BRA    66A8
066A8:  BRA    66AA
.................... 			output_bit(LED_OUT,1);delay_cycles(1);			output_bit(LED_OUT,bit_test(tmp_buffer_2,3));delay_cycles(5);			output_bit(LED_OUT,0);delay_cycles(4); 
066AA:  BSF    F89.6
066AC:  BCF    F92.6
066AE:  NOP   
066B0:  BTFSC  x44.3
066B2:  BRA    66B8
066B4:  BCF    F89.6
066B6:  BRA    66BA
066B8:  BSF    F89.6
066BA:  BCF    F92.6
066BC:  BRA    66BE
066BE:  BRA    66C0
066C0:  NOP   
066C2:  BCF    F89.6
066C4:  BCF    F92.6
066C6:  BRA    66C8
066C8:  BRA    66CA
.................... 			output_bit(LED_OUT,1);delay_cycles(1);			output_bit(LED_OUT,bit_test(tmp_buffer_2,2));delay_cycles(5);			output_bit(LED_OUT,0);delay_cycles(4); 
066CA:  BSF    F89.6
066CC:  BCF    F92.6
066CE:  NOP   
066D0:  BTFSC  x44.2
066D2:  BRA    66D8
066D4:  BCF    F89.6
066D6:  BRA    66DA
066D8:  BSF    F89.6
066DA:  BCF    F92.6
066DC:  BRA    66DE
066DE:  BRA    66E0
066E0:  NOP   
066E2:  BCF    F89.6
066E4:  BCF    F92.6
066E6:  BRA    66E8
066E8:  BRA    66EA
.................... 			output_bit(LED_OUT,1);delay_cycles(1);			output_bit(LED_OUT,bit_test(tmp_buffer_2,1));delay_cycles(5);			output_bit(LED_OUT,0);delay_cycles(4); 
066EA:  BSF    F89.6
066EC:  BCF    F92.6
066EE:  NOP   
066F0:  BTFSC  x44.1
066F2:  BRA    66F8
066F4:  BCF    F89.6
066F6:  BRA    66FA
066F8:  BSF    F89.6
066FA:  BCF    F92.6
066FC:  BRA    66FE
066FE:  BRA    6700
06700:  NOP   
06702:  BCF    F89.6
06704:  BCF    F92.6
06706:  BRA    6708
06708:  BRA    670A
.................... 			output_bit(LED_OUT,1);delay_cycles(1);			output_bit(LED_OUT,bit_test(tmp_buffer_2,0));delay_cycles(5);			output_bit(LED_OUT,0);delay_cycles(4); 
0670A:  BSF    F89.6
0670C:  BCF    F92.6
0670E:  NOP   
06710:  BTFSC  x44.0
06712:  BRA    6718
06714:  BCF    F89.6
06716:  BRA    671A
06718:  BSF    F89.6
0671A:  BCF    F92.6
0671C:  BRA    671E
0671E:  BRA    6720
06720:  NOP   
06722:  BCF    F89.6
06724:  BCF    F92.6
06726:  BRA    6728
06728:  BRA    672A
....................  
.................... 			//Of[^M 
.................... 			output_bit(LED_OUT,1);delay_cycles(1);			output_bit(LED_OUT,bit_test(tmp_buffer_3,7));delay_cycles(5);			output_bit(LED_OUT,0);delay_cycles(4); 
0672A:  BSF    F89.6
0672C:  BCF    F92.6
0672E:  NOP   
06730:  BTFSC  x45.7
06732:  BRA    6738
06734:  BCF    F89.6
06736:  BRA    673A
06738:  BSF    F89.6
0673A:  BCF    F92.6
0673C:  BRA    673E
0673E:  BRA    6740
06740:  NOP   
06742:  BCF    F89.6
06744:  BCF    F92.6
06746:  BRA    6748
06748:  BRA    674A
.................... 			output_bit(LED_OUT,1);delay_cycles(1);			output_bit(LED_OUT,bit_test(tmp_buffer_3,6));delay_cycles(5);			output_bit(LED_OUT,0);delay_cycles(4); 
0674A:  BSF    F89.6
0674C:  BCF    F92.6
0674E:  NOP   
06750:  BTFSC  x45.6
06752:  BRA    6758
06754:  BCF    F89.6
06756:  BRA    675A
06758:  BSF    F89.6
0675A:  BCF    F92.6
0675C:  BRA    675E
0675E:  BRA    6760
06760:  NOP   
06762:  BCF    F89.6
06764:  BCF    F92.6
06766:  BRA    6768
06768:  BRA    676A
.................... 			output_bit(LED_OUT,1);delay_cycles(1);			output_bit(LED_OUT,bit_test(tmp_buffer_3,5));delay_cycles(5);			output_bit(LED_OUT,0);delay_cycles(4); 
0676A:  BSF    F89.6
0676C:  BCF    F92.6
0676E:  NOP   
06770:  BTFSC  x45.5
06772:  BRA    6778
06774:  BCF    F89.6
06776:  BRA    677A
06778:  BSF    F89.6
0677A:  BCF    F92.6
0677C:  BRA    677E
0677E:  BRA    6780
06780:  NOP   
06782:  BCF    F89.6
06784:  BCF    F92.6
06786:  BRA    6788
06788:  BRA    678A
.................... 			output_bit(LED_OUT,1);delay_cycles(1);			output_bit(LED_OUT,bit_test(tmp_buffer_3,4));delay_cycles(5);			output_bit(LED_OUT,0);delay_cycles(4); 
0678A:  BSF    F89.6
0678C:  BCF    F92.6
0678E:  NOP   
06790:  BTFSC  x45.4
06792:  BRA    6798
06794:  BCF    F89.6
06796:  BRA    679A
06798:  BSF    F89.6
0679A:  BCF    F92.6
0679C:  BRA    679E
0679E:  BRA    67A0
067A0:  NOP   
067A2:  BCF    F89.6
067A4:  BCF    F92.6
067A6:  BRA    67A8
067A8:  BRA    67AA
.................... 			output_bit(LED_OUT,1);delay_cycles(1);			output_bit(LED_OUT,bit_test(tmp_buffer_3,3));delay_cycles(5);			output_bit(LED_OUT,0);delay_cycles(4); 
067AA:  BSF    F89.6
067AC:  BCF    F92.6
067AE:  NOP   
067B0:  BTFSC  x45.3
067B2:  BRA    67B8
067B4:  BCF    F89.6
067B6:  BRA    67BA
067B8:  BSF    F89.6
067BA:  BCF    F92.6
067BC:  BRA    67BE
067BE:  BRA    67C0
067C0:  NOP   
067C2:  BCF    F89.6
067C4:  BCF    F92.6
067C6:  BRA    67C8
067C8:  BRA    67CA
.................... 			output_bit(LED_OUT,1);delay_cycles(1);			output_bit(LED_OUT,bit_test(tmp_buffer_3,2));delay_cycles(5);			output_bit(LED_OUT,0);delay_cycles(4); 
067CA:  BSF    F89.6
067CC:  BCF    F92.6
067CE:  NOP   
067D0:  BTFSC  x45.2
067D2:  BRA    67D8
067D4:  BCF    F89.6
067D6:  BRA    67DA
067D8:  BSF    F89.6
067DA:  BCF    F92.6
067DC:  BRA    67DE
067DE:  BRA    67E0
067E0:  NOP   
067E2:  BCF    F89.6
067E4:  BCF    F92.6
067E6:  BRA    67E8
067E8:  BRA    67EA
.................... 			output_bit(LED_OUT,1);delay_cycles(1);			output_bit(LED_OUT,bit_test(tmp_buffer_3,1));delay_cycles(5);			output_bit(LED_OUT,0);delay_cycles(4); 
067EA:  BSF    F89.6
067EC:  BCF    F92.6
067EE:  NOP   
067F0:  BTFSC  x45.1
067F2:  BRA    67F8
067F4:  BCF    F89.6
067F6:  BRA    67FA
067F8:  BSF    F89.6
067FA:  BCF    F92.6
067FC:  BRA    67FE
067FE:  BRA    6800
06800:  NOP   
06802:  BCF    F89.6
06804:  BCF    F92.6
06806:  BRA    6808
06808:  BRA    680A
.................... 			output_bit(LED_OUT,1);delay_cycles(1);			output_bit(LED_OUT,bit_test(tmp_buffer_3,0));delay_cycles(5);			output_bit(LED_OUT,0);delay_cycles(4); 
0680A:  BSF    F89.6
0680C:  BCF    F92.6
0680E:  NOP   
06810:  BTFSC  x45.0
06812:  BRA    6818
06814:  BCF    F89.6
06816:  BRA    681A
06818:  BSF    F89.6
0681A:  BCF    F92.6
0681C:  BRA    681E
0681E:  BRA    6820
06820:  NOP   
06822:  BCF    F89.6
06824:  BCF    F92.6
06826:  BRA    6828
06828:  BRA    682A
.................... 			 
.................... 			delay_us(1);delay_cycles(3); 
0682A:  MOVLW  05
0682C:  MOVWF  00
0682E:  DECFSZ 00,F
06830:  BRA    682E
06832:  BRA    6834
06834:  NOP   
.................... 		} 
06836:  INCF   x41,F
06838:  BTFSC  FD8.2
0683A:  INCF   x42,F
0683C:  BRA    64A2
....................  
.................... 		//end 
.................... 		output_bit(LED_OUT,1);// 
0683E:  BSF    F89.6
06840:  BCF    F92.6
06842:  MOVLB  1
.................... 	} 
.................... } 
06844:  MOVLB  0
06846:  GOTO   6916 (RETURN)
....................  
....................  
....................  
....................  
....................  
.................... void illumiled_process(){ 
0684A:  MOVLB  4
0684C:  CLRF   x3D
0684E:  CLRF   x3E
06850:  CLRF   x3F
06852:  CLRF   x40
.................... 	int tmp_sw1_true = 0,tmp_sw2_true = 0,tmp_sw3_true = 0,tmp_sw4_true = 0; 
....................  
.................... 	//XCb` 
.................... 	if(sw1_re != sw1 && sw1 == 0){	tmp_sw1_true = 1;}	sw1_re = sw1; 
06854:  MOVF   5A,W
06856:  SUBWF  5B,W
06858:  BZ    6862
0685A:  MOVF   5A,F
0685C:  BNZ   6862
0685E:  MOVLW  01
06860:  MOVWF  x3D
06862:  MOVFF  5A,5B
.................... 	if(sw2_re != sw2 && sw2 == 0){	tmp_sw2_true = 1;}	sw2_re = sw2; 
06866:  MOVF   5C,W
06868:  SUBWF  5D,W
0686A:  BZ    6874
0686C:  MOVF   5C,F
0686E:  BNZ   6874
06870:  MOVLW  01
06872:  MOVWF  x3E
06874:  MOVFF  5C,5D
.................... 	if(sw3_re != sw3 && sw3 == 0){	tmp_sw3_true = 1;}	sw3_re = sw3; 
06878:  MOVF   5E,W
0687A:  SUBWF  5F,W
0687C:  BZ    6886
0687E:  MOVF   5E,F
06880:  BNZ   6886
06882:  MOVLW  01
06884:  MOVWF  x3F
06886:  MOVFF  5E,5F
.................... 	if(sw4_re != sw4 && sw4 == 0){	tmp_sw4_true = 1;}	sw4_re = sw4; 
0688A:  MOVLB  0
0688C:  MOVF   x60,W
0688E:  SUBWF  x61,W
06890:  BZ    689E
06892:  MOVF   x60,F
06894:  BNZ   689E
06896:  MOVLW  01
06898:  MOVLB  4
0689A:  MOVWF  x40
0689C:  MOVLB  0
0689E:  MOVFF  60,61
....................  
.................... 	if(mode == 700){ 
068A2:  MOVLB  1
068A4:  MOVF   x11,W
068A6:  SUBLW  BC
068A8:  BNZ   68E4
068AA:  MOVF   x12,W
068AC:  SUBLW  02
068AE:  BNZ   68E4
.................... 		//enter 
.................... 		if(tmp_sw1_true != 0){tmp_sw1_true = 0; 
068B0:  MOVLB  4
068B2:  MOVF   x3D,F
068B4:  BZ    68E0
068B6:  CLRF   x3D
.................... 			mode = 701;//	lcd_mode = mode; 
068B8:  MOVLW  02
068BA:  MOVLB  1
068BC:  MOVWF  x12
068BE:  MOVLW  BD
068C0:  MOVWF  x11
.................... 			cursor_index = 1; 
068C2:  CLRF   x14
068C4:  MOVLW  01
068C6:  MOVWF  x13
.................... 			 
.................... 			save_mode(mode);//[ 
068C8:  MOVFF  112,442
068CC:  MOVFF  111,441
068D0:  MOVLB  0
068D2:  CALL   41B4
....................  
.................... 			ws281x_color_set(Illumi_color_set); 
068D6:  MOVFF  12E,441
068DA:  CALL   3BA6
068DE:  MOVLB  4
.................... 		} 
.................... 	}else if(mode == 701 || mode == 702){ 
068E0:  BRA    6D34
068E2:  MOVLB  1
068E4:  MOVF   x11,W
068E6:  SUBLW  BD
068E8:  BNZ   68F0
068EA:  MOVF   x12,W
068EC:  SUBLW  02
068EE:  BZ    6900
068F0:  MOVF   x11,W
068F2:  SUBLW  BE
068F4:  BTFSS  FD8.2
068F6:  BRA    6D36
068F8:  MOVF   x12,W
068FA:  SUBLW  02
068FC:  BTFSS  FD8.2
068FE:  BRA    6D36
....................  
.................... 		if(illumiled_process_one > Illumi_speed){ 
06900:  MOVF   42,W
06902:  SUBWF  x30,W
06904:  BC    6916
.................... 			illumiled_process_one = 0; 
06906:  CLRF   42
....................  
.................... 			//ws281x_mode_set 
.................... 			//1=down() 
.................... 			//2=up() ...etc 
.................... 			ws281x_mode_set(Illumi_mode_set); 
06908:  MOVFF  12F,441
0690C:  MOVLB  0
0690E:  CALL   4226
.................... 			//LEDf[^so 
.................... 			ws281x_process(); 
06912:  GOTO   5DF0
.................... 		} 
....................  
.................... 		//enter 
.................... 		if(tmp_sw1_true != 0){tmp_sw1_true = 0; 
06916:  MOVLB  4
06918:  MOVF   x3D,F
0691A:  BZ    697C
0691C:  CLRF   x3D
.................... 			if(cursor_index == 6){ 
0691E:  MOVLB  1
06920:  MOVF   x13,W
06922:  SUBLW  06
06924:  BNZ   694A
06926:  MOVF   x14,F
06928:  BNZ   694A
.................... 				mode = 701;//lcd_mode = mode; 
0692A:  MOVLW  02
0692C:  MOVWF  x12
0692E:  MOVLW  BD
06930:  MOVWF  x11
.................... 				cursor_index = 1; 
06932:  CLRF   x14
06934:  MOVLW  01
06936:  MOVWF  x13
.................... 				save_mode(mode);//[ 
06938:  MOVFF  112,442
0693C:  MOVFF  111,441
06940:  MOVLB  0
06942:  CALL   41B4
.................... 			}else if(cursor_index == 5){ 
06946:  BRA    697C
06948:  MOVLB  1
0694A:  MOVF   x13,W
0694C:  SUBLW  05
0694E:  BNZ   6974
06950:  MOVF   x14,F
06952:  BNZ   6974
.................... 				mode = 702;//lcd_mode = mode; 
06954:  MOVLW  02
06956:  MOVWF  x12
06958:  MOVLW  BE
0695A:  MOVWF  x11
.................... 				cursor_index = 6; 
0695C:  CLRF   x14
0695E:  MOVLW  06
06960:  MOVWF  x13
.................... 				save_mode(mode);//[ 
06962:  MOVFF  112,442
06966:  MOVFF  111,441
0696A:  MOVLB  0
0696C:  CALL   41B4
.................... 			}else{ 
06970:  BRA    697C
06972:  MOVLB  1
.................... 				cursor_index++; 
06974:  INCF   x13,F
06976:  BTFSC  FD8.2
06978:  INCF   x14,F
0697A:  MOVLB  0
.................... 			} 
.................... 		} 
....................  
.................... 		if(cursor_index == 1){ 
0697C:  MOVLB  1
0697E:  DECFSZ x13,W
06980:  BRA    6A2C
06982:  MOVF   x14,F
06984:  BNZ   6A2C
.................... 			//Illumi_color_set 
....................  
.................... 			//up 
.................... 			if(tmp_sw3_true != 0){tmp_sw3_true = 0; 
06986:  MOVLB  4
06988:  MOVF   x3F,F
0698A:  BZ    69D6
0698C:  CLRF   x3F
.................... 				if(Illumi_color_set >= (ws281x_pattern_value-1)){		Illumi_color_set = 0; 
0698E:  MOVLW  01
06990:  SUBWF  x39,W
06992:  MOVLB  1
06994:  SUBWF  x2E,W
06996:  BNC   699C
06998:  CLRF   x2E
.................... 				}else{							Illumi_color_set++;	} 
0699A:  BRA    699E
0699C:  INCF   x2E,F
.................... 				ws281x_color_set(Illumi_color_set); 
0699E:  MOVFF  12E,441
069A2:  MOVLB  0
069A4:  CALL   3BA6
.................... 				write_eeprom(0x10,Illumi_color_set);//ul 
069A8:  CLRF   FAA
069AA:  MOVLW  10
069AC:  MOVWF  FA9
069AE:  MOVFF  12E,FA8
069B2:  BCF    FA6.6
069B4:  BCF    FA6.7
069B6:  BSF    FA6.2
069B8:  MOVF   FF2,W
069BA:  MOVWF  00
069BC:  BCF    FF2.7
069BE:  MOVLB  F
069C0:  MOVLW  55
069C2:  MOVWF  FA7
069C4:  MOVLW  AA
069C6:  MOVWF  FA7
069C8:  BSF    FA6.1
069CA:  BTFSC  FA6.1
069CC:  BRA    69CA
069CE:  BCF    FA6.2
069D0:  MOVF   00,W
069D2:  IORWF  FF2,F
069D4:  MOVLB  4
.................... 			} 
....................  
.................... 			//down 
.................... 			if(tmp_sw4_true != 0){tmp_sw4_true = 0; 
069D6:  MOVF   x40,F
069D8:  BZ    6A28
069DA:  CLRF   x40
.................... 				if(Illumi_color_set == 0){		Illumi_color_set = ws281x_pattern_value-1; 
069DC:  MOVLB  1
069DE:  MOVF   x2E,F
069E0:  BNZ   69EE
069E2:  MOVLW  01
069E4:  MOVLB  4
069E6:  SUBWF  x39,W
069E8:  MOVLB  1
069EA:  MOVWF  x2E
.................... 				}else{							Illumi_color_set--;	} 
069EC:  BRA    69F0
069EE:  DECF   x2E,F
.................... 				ws281x_color_set(Illumi_color_set); 
069F0:  MOVFF  12E,441
069F4:  MOVLB  0
069F6:  CALL   3BA6
.................... 				write_eeprom(0x10,Illumi_color_set);//ul 
069FA:  CLRF   FAA
069FC:  MOVLW  10
069FE:  MOVWF  FA9
06A00:  MOVFF  12E,FA8
06A04:  BCF    FA6.6
06A06:  BCF    FA6.7
06A08:  BSF    FA6.2
06A0A:  MOVF   FF2,W
06A0C:  MOVWF  00
06A0E:  BCF    FF2.7
06A10:  MOVLB  F
06A12:  MOVLW  55
06A14:  MOVWF  FA7
06A16:  MOVLW  AA
06A18:  MOVWF  FA7
06A1A:  BSF    FA6.1
06A1C:  BTFSC  FA6.1
06A1E:  BRA    6A1C
06A20:  BCF    FA6.2
06A22:  MOVF   00,W
06A24:  IORWF  FF2,F
06A26:  MOVLB  4
.................... 			} 
.................... 		}else if(cursor_index == 2){ 
06A28:  BRA    6D34
06A2A:  MOVLB  1
06A2C:  MOVF   x13,W
06A2E:  SUBLW  02
06A30:  BNZ   6AD4
06A32:  MOVF   x14,F
06A34:  BNZ   6AD4
.................... 			//Illumi_mode_set 
....................  
.................... 			//up 
.................... 			if(tmp_sw3_true != 0){tmp_sw3_true = 0; 
06A36:  MOVLB  4
06A38:  MOVF   x3F,F
06A3A:  BZ    6A84
06A3C:  CLRF   x3F
.................... 				if(Illumi_mode_set >= 13){		Illumi_mode_set = 0; 
06A3E:  MOVLB  1
06A40:  MOVF   x2F,W
06A42:  SUBLW  0C
06A44:  BC    6A4A
06A46:  CLRF   x2F
.................... 				}else{							Illumi_mode_set++;	} 
06A48:  BRA    6A4C
06A4A:  INCF   x2F,F
.................... 				ws281x_mode_set(Illumi_mode_set); 
06A4C:  MOVFF  12F,441
06A50:  MOVLB  0
06A52:  CALL   4226
.................... 				write_eeprom(0x11,Illumi_mode_set);//ul 
06A56:  CLRF   FAA
06A58:  MOVLW  11
06A5A:  MOVWF  FA9
06A5C:  MOVFF  12F,FA8
06A60:  BCF    FA6.6
06A62:  BCF    FA6.7
06A64:  BSF    FA6.2
06A66:  MOVF   FF2,W
06A68:  MOVWF  00
06A6A:  BCF    FF2.7
06A6C:  MOVLB  F
06A6E:  MOVLW  55
06A70:  MOVWF  FA7
06A72:  MOVLW  AA
06A74:  MOVWF  FA7
06A76:  BSF    FA6.1
06A78:  BTFSC  FA6.1
06A7A:  BRA    6A78
06A7C:  BCF    FA6.2
06A7E:  MOVF   00,W
06A80:  IORWF  FF2,F
06A82:  MOVLB  4
....................  
.................... 			} 
....................  
.................... 			//down 
.................... 			if(tmp_sw4_true != 0){tmp_sw4_true = 0; 
06A84:  MOVF   x40,F
06A86:  BZ    6AD0
06A88:  CLRF   x40
.................... 				if(Illumi_mode_set == 0){		Illumi_mode_set = 13; 
06A8A:  MOVLB  1
06A8C:  MOVF   x2F,F
06A8E:  BNZ   6A96
06A90:  MOVLW  0D
06A92:  MOVWF  x2F
.................... 				}else{							Illumi_mode_set--;	} 
06A94:  BRA    6A98
06A96:  DECF   x2F,F
.................... 				ws281x_mode_set(Illumi_mode_set); 
06A98:  MOVFF  12F,441
06A9C:  MOVLB  0
06A9E:  CALL   4226
.................... 				write_eeprom(0x11,Illumi_mode_set);//ul 
06AA2:  CLRF   FAA
06AA4:  MOVLW  11
06AA6:  MOVWF  FA9
06AA8:  MOVFF  12F,FA8
06AAC:  BCF    FA6.6
06AAE:  BCF    FA6.7
06AB0:  BSF    FA6.2
06AB2:  MOVF   FF2,W
06AB4:  MOVWF  00
06AB6:  BCF    FF2.7
06AB8:  MOVLB  F
06ABA:  MOVLW  55
06ABC:  MOVWF  FA7
06ABE:  MOVLW  AA
06AC0:  MOVWF  FA7
06AC2:  BSF    FA6.1
06AC4:  BTFSC  FA6.1
06AC6:  BRA    6AC4
06AC8:  BCF    FA6.2
06ACA:  MOVF   00,W
06ACC:  IORWF  FF2,F
06ACE:  MOVLB  4
.................... 			} 
.................... 		}else if(cursor_index == 3){ 
06AD0:  BRA    6D34
06AD2:  MOVLB  1
06AD4:  MOVF   x13,W
06AD6:  SUBLW  03
06AD8:  BNZ   6B68
06ADA:  MOVF   x14,F
06ADC:  BNZ   6B68
.................... 			//Illumi_speed 
....................  
.................... 			//up 
.................... 			if(tmp_sw3_true != 0){tmp_sw3_true = 0; 
06ADE:  MOVLB  4
06AE0:  MOVF   x3F,F
06AE2:  BZ    6B22
06AE4:  CLRF   x3F
.................... 				if(Illumi_speed >= 99){		Illumi_speed = 0; 
06AE6:  MOVLB  1
06AE8:  MOVF   x30,W
06AEA:  SUBLW  62
06AEC:  BC    6AF2
06AEE:  CLRF   x30
.................... 				}else{						Illumi_speed++;	}	 
06AF0:  BRA    6AF4
06AF2:  INCF   x30,F
.................... 				write_eeprom(0x12,Illumi_speed);//ul 
06AF4:  CLRF   FAA
06AF6:  MOVLW  12
06AF8:  MOVWF  FA9
06AFA:  MOVFF  130,FA8
06AFE:  BCF    FA6.6
06B00:  BCF    FA6.7
06B02:  BSF    FA6.2
06B04:  MOVF   FF2,W
06B06:  MOVWF  00
06B08:  BCF    FF2.7
06B0A:  MOVLB  F
06B0C:  MOVLW  55
06B0E:  MOVWF  FA7
06B10:  MOVLW  AA
06B12:  MOVWF  FA7
06B14:  BSF    FA6.1
06B16:  BTFSC  FA6.1
06B18:  BRA    6B16
06B1A:  BCF    FA6.2
06B1C:  MOVF   00,W
06B1E:  IORWF  FF2,F
06B20:  MOVLB  4
.................... 			} 
....................  
.................... 			//down 
.................... 			if(tmp_sw4_true != 0){tmp_sw4_true = 0; 
06B22:  MOVF   x40,F
06B24:  BZ    6B64
06B26:  CLRF   x40
.................... 				if(Illumi_speed == 0){		Illumi_speed = 99; 
06B28:  MOVLB  1
06B2A:  MOVF   x30,F
06B2C:  BNZ   6B34
06B2E:  MOVLW  63
06B30:  MOVWF  x30
.................... 				}else{						Illumi_speed--;	} 
06B32:  BRA    6B36
06B34:  DECF   x30,F
.................... 				write_eeprom(0x12,Illumi_speed);//ul 
06B36:  CLRF   FAA
06B38:  MOVLW  12
06B3A:  MOVWF  FA9
06B3C:  MOVFF  130,FA8
06B40:  BCF    FA6.6
06B42:  BCF    FA6.7
06B44:  BSF    FA6.2
06B46:  MOVF   FF2,W
06B48:  MOVWF  00
06B4A:  BCF    FF2.7
06B4C:  MOVLB  F
06B4E:  MOVLW  55
06B50:  MOVWF  FA7
06B52:  MOVLW  AA
06B54:  MOVWF  FA7
06B56:  BSF    FA6.1
06B58:  BTFSC  FA6.1
06B5A:  BRA    6B58
06B5C:  BCF    FA6.2
06B5E:  MOVF   00,W
06B60:  IORWF  FF2,F
06B62:  MOVLB  4
.................... 			} 
.................... 		}else if(cursor_index == 4){ 
06B64:  BRA    6D34
06B66:  MOVLB  1
06B68:  MOVF   x13,W
06B6A:  SUBLW  04
06B6C:  BNZ   6BFC
06B6E:  MOVF   x14,F
06B70:  BNZ   6BFC
.................... 			//Illumi_signaltype 
....................  
.................... 			//up 
.................... 			if(tmp_sw3_true != 0){tmp_sw3_true = 0; 
06B72:  MOVLB  4
06B74:  MOVF   x3F,F
06B76:  BZ    6BB6
06B78:  CLRF   x3F
.................... 				Illumi_signaltype = !Illumi_signaltype; 
06B7A:  MOVLB  1
06B7C:  MOVF   x31,F
06B7E:  BZ    6B84
06B80:  MOVLW  00
06B82:  BRA    6B86
06B84:  MOVLW  01
06B86:  MOVWF  x31
.................... 				write_eeprom(0x13,Illumi_signaltype);//ul 
06B88:  CLRF   FAA
06B8A:  MOVLW  13
06B8C:  MOVWF  FA9
06B8E:  MOVFF  131,FA8
06B92:  BCF    FA6.6
06B94:  BCF    FA6.7
06B96:  BSF    FA6.2
06B98:  MOVF   FF2,W
06B9A:  MOVWF  00
06B9C:  BCF    FF2.7
06B9E:  MOVLB  F
06BA0:  MOVLW  55
06BA2:  MOVWF  FA7
06BA4:  MOVLW  AA
06BA6:  MOVWF  FA7
06BA8:  BSF    FA6.1
06BAA:  BTFSC  FA6.1
06BAC:  BRA    6BAA
06BAE:  BCF    FA6.2
06BB0:  MOVF   00,W
06BB2:  IORWF  FF2,F
06BB4:  MOVLB  4
.................... 			} 
....................  
.................... 			//down 
.................... 			if(tmp_sw4_true != 0){tmp_sw4_true = 0; 
06BB6:  MOVF   x40,F
06BB8:  BZ    6BF8
06BBA:  CLRF   x40
.................... 				Illumi_signaltype = !Illumi_signaltype; 
06BBC:  MOVLB  1
06BBE:  MOVF   x31,F
06BC0:  BZ    6BC6
06BC2:  MOVLW  00
06BC4:  BRA    6BC8
06BC6:  MOVLW  01
06BC8:  MOVWF  x31
.................... 				write_eeprom(0x13,Illumi_signaltype);//ul 
06BCA:  CLRF   FAA
06BCC:  MOVLW  13
06BCE:  MOVWF  FA9
06BD0:  MOVFF  131,FA8
06BD4:  BCF    FA6.6
06BD6:  BCF    FA6.7
06BD8:  BSF    FA6.2
06BDA:  MOVF   FF2,W
06BDC:  MOVWF  00
06BDE:  BCF    FF2.7
06BE0:  MOVLB  F
06BE2:  MOVLW  55
06BE4:  MOVWF  FA7
06BE6:  MOVLW  AA
06BE8:  MOVWF  FA7
06BEA:  BSF    FA6.1
06BEC:  BTFSC  FA6.1
06BEE:  BRA    6BEC
06BF0:  BCF    FA6.2
06BF2:  MOVF   00,W
06BF4:  IORWF  FF2,F
06BF6:  MOVLB  4
.................... 			} 
.................... 		}else if(cursor_index == 5){ 
06BF8:  BRA    6D34
06BFA:  MOVLB  1
06BFC:  MOVF   x13,W
06BFE:  SUBLW  05
06C00:  BNZ   6C90
06C02:  MOVF   x14,F
06C04:  BNZ   6C90
.................... 			//Illumi_timing 
....................  
.................... 			//up 
.................... 			if(tmp_sw3_true != 0){tmp_sw3_true = 0; 
06C06:  MOVLB  4
06C08:  MOVF   x3F,F
06C0A:  BZ    6C4A
06C0C:  CLRF   x3F
.................... 				if(Illumi_timing >= 2){	Illumi_timing = 0; 
06C0E:  MOVLB  1
06C10:  MOVF   x32,W
06C12:  SUBLW  01
06C14:  BC    6C1A
06C16:  CLRF   x32
.................... 				}else{					Illumi_timing++;	} 
06C18:  BRA    6C1C
06C1A:  INCF   x32,F
.................... 				write_eeprom(0x14,Illumi_timing);//ul 
06C1C:  CLRF   FAA
06C1E:  MOVLW  14
06C20:  MOVWF  FA9
06C22:  MOVFF  132,FA8
06C26:  BCF    FA6.6
06C28:  BCF    FA6.7
06C2A:  BSF    FA6.2
06C2C:  MOVF   FF2,W
06C2E:  MOVWF  00
06C30:  BCF    FF2.7
06C32:  MOVLB  F
06C34:  MOVLW  55
06C36:  MOVWF  FA7
06C38:  MOVLW  AA
06C3A:  MOVWF  FA7
06C3C:  BSF    FA6.1
06C3E:  BTFSC  FA6.1
06C40:  BRA    6C3E
06C42:  BCF    FA6.2
06C44:  MOVF   00,W
06C46:  IORWF  FF2,F
06C48:  MOVLB  4
.................... 			} 
....................  
.................... 			//down 
.................... 			if(tmp_sw4_true != 0){tmp_sw4_true = 0; 
06C4A:  MOVF   x40,F
06C4C:  BZ    6C8C
06C4E:  CLRF   x40
.................... 				if(Illumi_timing == 0){	Illumi_timing = 2; 
06C50:  MOVLB  1
06C52:  MOVF   x32,F
06C54:  BNZ   6C5C
06C56:  MOVLW  02
06C58:  MOVWF  x32
.................... 				}else{					Illumi_timing--;	} 
06C5A:  BRA    6C5E
06C5C:  DECF   x32,F
.................... 				write_eeprom(0x14,Illumi_timing);//ul 
06C5E:  CLRF   FAA
06C60:  MOVLW  14
06C62:  MOVWF  FA9
06C64:  MOVFF  132,FA8
06C68:  BCF    FA6.6
06C6A:  BCF    FA6.7
06C6C:  BSF    FA6.2
06C6E:  MOVF   FF2,W
06C70:  MOVWF  00
06C72:  BCF    FF2.7
06C74:  MOVLB  F
06C76:  MOVLW  55
06C78:  MOVWF  FA7
06C7A:  MOVLW  AA
06C7C:  MOVWF  FA7
06C7E:  BSF    FA6.1
06C80:  BTFSC  FA6.1
06C82:  BRA    6C80
06C84:  BCF    FA6.2
06C86:  MOVF   00,W
06C88:  IORWF  FF2,F
06C8A:  MOVLB  4
.................... 			} 
.................... 		}else if(cursor_index == 6){ 
06C8C:  BRA    6D34
06C8E:  MOVLB  1
06C90:  MOVF   x13,W
06C92:  SUBLW  06
06C94:  BNZ   6D36
06C96:  MOVF   x14,F
06C98:  BNZ   6D36
.................... 			//Illumi_brightness 
....................  
.................... 			//up 
.................... 			if(tmp_sw3_true != 0){tmp_sw3_true = 0; 
06C9A:  MOVLB  4
06C9C:  MOVF   x3F,F
06C9E:  BZ    6CE8
06CA0:  CLRF   x3F
.................... 				if(Illumi_brightness == 100){	Illumi_brightness = 0; 
06CA2:  MOVLB  1
06CA4:  MOVF   x33,W
06CA6:  SUBLW  64
06CA8:  BNZ   6CAE
06CAA:  CLRF   x33
.................... 				}else{							Illumi_brightness++;	} 
06CAC:  BRA    6CB0
06CAE:  INCF   x33,F
.................... 				ws281x_color_set(Illumi_color_set); 
06CB0:  MOVFF  12E,441
06CB4:  MOVLB  0
06CB6:  CALL   3BA6
.................... 				write_eeprom(0x15,Illumi_brightness);//ul 
06CBA:  CLRF   FAA
06CBC:  MOVLW  15
06CBE:  MOVWF  FA9
06CC0:  MOVFF  133,FA8
06CC4:  BCF    FA6.6
06CC6:  BCF    FA6.7
06CC8:  BSF    FA6.2
06CCA:  MOVF   FF2,W
06CCC:  MOVWF  00
06CCE:  BCF    FF2.7
06CD0:  MOVLB  F
06CD2:  MOVLW  55
06CD4:  MOVWF  FA7
06CD6:  MOVLW  AA
06CD8:  MOVWF  FA7
06CDA:  BSF    FA6.1
06CDC:  BTFSC  FA6.1
06CDE:  BRA    6CDC
06CE0:  BCF    FA6.2
06CE2:  MOVF   00,W
06CE4:  IORWF  FF2,F
06CE6:  MOVLB  4
.................... 			} 
....................  
.................... 			//down 
.................... 			if(tmp_sw4_true != 0){tmp_sw4_true = 0; 
06CE8:  MOVF   x40,F
06CEA:  BZ    6D34
06CEC:  CLRF   x40
.................... 				if(Illumi_brightness == 0){	Illumi_brightness = 100; 
06CEE:  MOVLB  1
06CF0:  MOVF   x33,F
06CF2:  BNZ   6CFA
06CF4:  MOVLW  64
06CF6:  MOVWF  x33
.................... 				}else{							Illumi_brightness--;	} 
06CF8:  BRA    6CFC
06CFA:  DECF   x33,F
.................... 				ws281x_color_set(Illumi_color_set); 
06CFC:  MOVFF  12E,441
06D00:  MOVLB  0
06D02:  CALL   3BA6
.................... 				write_eeprom(0x15,Illumi_brightness);//ul 
06D06:  CLRF   FAA
06D08:  MOVLW  15
06D0A:  MOVWF  FA9
06D0C:  MOVFF  133,FA8
06D10:  BCF    FA6.6
06D12:  BCF    FA6.7
06D14:  BSF    FA6.2
06D16:  MOVF   FF2,W
06D18:  MOVWF  00
06D1A:  BCF    FF2.7
06D1C:  MOVLB  F
06D1E:  MOVLW  55
06D20:  MOVWF  FA7
06D22:  MOVLW  AA
06D24:  MOVWF  FA7
06D26:  BSF    FA6.1
06D28:  BTFSC  FA6.1
06D2A:  BRA    6D28
06D2C:  BCF    FA6.2
06D2E:  MOVF   00,W
06D30:  IORWF  FF2,F
06D32:  MOVLB  4
06D34:  MOVLB  1
.................... 			} 
.................... 		} 
....................  
.................... 	} 
....................  
....................  
....................  
.................... 	////enter 
.................... 	//if(tmp_sw1_true != 0){tmp_sw1_true = 0; 
.................... 	//	 
....................  
.................... 	//} 
.................... 	//cansel 
.................... 	if(tmp_sw2_true != 0){tmp_sw2_true = 0; 
06D36:  MOVLB  4
06D38:  MOVF   x3E,F
06D3A:  BZ    6D3E
06D3C:  CLRF   x3E
.................... /* 		mode = 10;	 
.................... 		cursor_index = 7; */ 
.................... 	} 
....................  
.................... 	//// 
.................... 	//if(tmp_sw3_true != 0){tmp_sw3_true = 0; 
....................  
.................... 	//} 
....................  
.................... 	//// 
.................... 	//if(tmp_sw4_true != 0){tmp_sw4_true = 0; 
....................  
.................... 	//} 
....................  
....................  
.................... } 
06D3E:  MOVLB  0
06D40:  GOTO   8714 (RETURN)
....................  
.................... #include "process_lcd128x64dot.c"//gpt@CgpW[CuLB 
.................... #include "font_data.c"//tHgf[^ 
.................... /*********************************** 
.................... * Font Data 0x20 to 0xDF 192 
.................... * TWhbgLN^[R[htHg 
.................... * 
.................... *tHgf[^www.picfun.com\ 
.................... *OtBbNt\CugpB 
.................... ***********************************/ 
.................... const char font[192][5] = 
.................... { 
....................     { 0x00, 0x00, 0x00, 0x00, 0x00 }, // " " 0x20 
....................     { 0x00, 0x00, 0x4f, 0x00, 0x00 }, // !   0x21 
....................     { 0x00, 0x07, 0x00, 0x07, 0x00 }, // "   0x22 
....................     { 0x14, 0x7f, 0x14, 0x7f, 0x14 }, // #   0x23 
....................     { 0x24, 0x2a, 0x7f, 0x2a, 0x12 }, // $   0x24 
....................     { 0x23, 0x13, 0x08, 0x64, 0x62 }, // %   0x25 
....................     { 0x36, 0x49, 0x55, 0x22, 0x50 }, // &   0x26 
....................     { 0x00, 0x05, 0x03, 0x00, 0x00 }, // '   0x27 
....................     { 0x00, 0x1c, 0x22, 0x41, 0x00 }, // (   0x28 
....................     { 0x00, 0x41, 0x22, 0x1c, 0x00 }, // )   0x29 
....................     { 0x14, 0x08, 0x3e, 0x08, 0x14 }, // *   0x2A 
....................     { 0x08, 0x08, 0x3e, 0x08, 0x08 }, // +   0x2B 
....................     { 0x00, 0x50, 0x30, 0x00, 0x00 }, // ,   0x2C 
....................     { 0x08, 0x08, 0x08, 0x08, 0x08 }, // -   0x2D 
....................     { 0x00, 0x60, 0x60, 0x00, 0x00 }, // .   0x2E 
....................     { 0x20, 0x10, 0x08, 0x04, 0x02 }, // /   0x2F 
....................     { 0x3e, 0x51, 0x49, 0x45, 0x3e }, // 0   0x30 
....................     { 0x00, 0x42, 0x7f, 0x40, 0x00 }, // 1   0x31 
....................     { 0x42, 0x61, 0x51, 0x49, 0x46 }, // 2   0x32 
....................     { 0x21, 0x41, 0x45, 0x4b, 0x31 }, // 3   0x33 
....................     { 0x18, 0x14, 0x12, 0x7f, 0x10 }, // 4   0x34 
....................     { 0x27, 0x45, 0x45, 0x45, 0x39 }, // 5   0x35 
....................     { 0x3c, 0x4a, 0x49, 0x49, 0x30 }, // 6   0x36 
....................     { 0x01, 0x71, 0x09, 0x05, 0x03 }, // 7   0x37 
....................     { 0x36, 0x49, 0x49, 0x49, 0x36 }, // 8   0x38 
....................     { 0x06, 0x49, 0x49, 0x29, 0x1e }, // 9   0x39 
....................     { 0x00, 0x36, 0x36, 0x00, 0x00 }, // :   0x3A 
....................     { 0x00, 0x56, 0x36, 0x00, 0x00 }, // ;   0x3B 
....................     { 0x08, 0x14, 0x22, 0x41, 0x00 }, // <   0x3C 
....................     { 0x14, 0x14, 0x14, 0x14, 0x14 }, // =   0x3D 
....................     { 0x00, 0x41, 0x22, 0x14, 0x08 }, // >   0x3E 
....................     { 0x02, 0x01, 0x51, 0x09, 0x06 }, // ?   0x3F 
....................     { 0x32, 0x49, 0x79, 0x41, 0x3e }, // @   0x40 
....................     { 0x7e, 0x11, 0x11, 0x11, 0x7e }, // A   0x41 
....................     { 0x7f, 0x49, 0x49, 0x49, 0x36 }, // B   0x42 
....................     { 0x3e, 0x41, 0x41, 0x41, 0x22 }, // C   0x43 
....................     { 0x7f, 0x41, 0x41, 0x22, 0x1c }, // D   0x44 
....................     { 0x7f, 0x49, 0x49, 0x49, 0x41 }, // E   0x45 
....................     { 0x7f, 0x09, 0x09, 0x09, 0x01 }, // F   0x46 
....................     { 0x3e, 0x41, 0x49, 0x49, 0x7a }, // G   0x47 
....................     { 0x7f, 0x08, 0x08, 0x08, 0x7f }, // H   0x48 
....................     { 0x00, 0x41, 0x7f, 0x41, 0x00 }, // I   0x49 
....................     { 0x20, 0x40, 0x41, 0x3f, 0x01 }, // J   0x4A 
....................     { 0x7f, 0x08, 0x14, 0x22, 0x41 }, // K   0x4B 
....................     { 0x7f, 0x40, 0x40, 0x40, 0x40 }, // L   0x4C 
....................     { 0x7f, 0x02, 0x0c, 0x02, 0x7f }, // M   0x4D 
....................     { 0x7f, 0x04, 0x08, 0x10, 0x7f }, // N   0x4E 
....................     { 0x3e, 0x41, 0x41, 0x41, 0x3e }, // O   0x4F 
....................     { 0x7f, 0x09, 0x09, 0x09, 0x06 }, // P   0X50 
....................     { 0x3e, 0x41, 0x51, 0x21, 0x5e }, // Q   0X51 
....................     { 0x7f, 0x09, 0x19, 0x29, 0x46 }, // R   0X52 
....................     { 0x46, 0x49, 0x49, 0x49, 0x31 }, // S   0X53 
....................     { 0x01, 0x01, 0x7f, 0x01, 0x01 }, // T   0X54 
....................     { 0x3f, 0x40, 0x40, 0x40, 0x3f }, // U   0X55 
....................     { 0x1f, 0x20, 0x40, 0x20, 0x1f }, // V   0X56 
....................     { 0x3f, 0x40, 0x38, 0x40, 0x3f }, // W   0X57 
....................     { 0x63, 0x14, 0x08, 0x14, 0x63 }, // X   0X58 
....................     { 0x07, 0x08, 0x70, 0x08, 0x07 }, // Y   0X59 
....................     { 0x61, 0x51, 0x49, 0x45, 0x43 }, // Z   0X5A 
....................     { 0x00, 0x7f, 0x41, 0x41, 0x00 }, // [   0X5B 
....................     { 0x02, 0x04, 0x08, 0x10, 0x20 }, // "\" 0X5C 
....................     { 0x00, 0x41, 0x41, 0x7f, 0x00 }, // ]   0X5D 
....................     { 0x04, 0x02, 0x01, 0x02, 0x04 }, // ^   0X5E 
....................     { 0x40, 0x40, 0x40, 0x40, 0x40 }, // _   0X5F 
....................     { 0x00, 0x01, 0x02, 0x04, 0x00 }, // `   0X60 
....................     { 0x20, 0x54, 0x54, 0x54, 0x78 }, // a   0X61 
....................     { 0x7f, 0x48, 0x44, 0x44, 0x38 }, // b   0X62 
....................     { 0x38, 0x44, 0x44, 0x44, 0x20 }, // c   0X63 
....................     { 0x38, 0x44, 0x44, 0x48, 0x7f }, // d   0X64 
....................     { 0x38, 0x54, 0x54, 0x54, 0x18 }, // e   0X65 
....................     { 0x08, 0x7e, 0x09, 0x01, 0x02 }, // f   0X66 
....................     { 0x0c, 0x52, 0x52, 0x52, 0x3e }, // g   0X67 
....................     { 0x7f, 0x08, 0x04, 0x04, 0x78 }, // h   0X68 
....................     { 0x00, 0x44, 0x7d, 0x40, 0x00 }, // i   0X69 
....................     { 0x20, 0x40, 0x44, 0x3d, 0x00 }, // j   0X6A 
....................     { 0x7f, 0x10, 0x28, 0x44, 0x00 }, // k   0X6B 
....................     { 0x00, 0x41, 0x7f, 0x40, 0x00 }, // l   0X6C 
....................     { 0x7c, 0x04, 0x18, 0x04, 0x78 }, // m   0X6D 
....................     { 0x7c, 0x08, 0x04, 0x04, 0x78 }, // n   0X6E 
....................     { 0x38, 0x44, 0x44, 0x44, 0x38 }, // o   0X6F 
....................     { 0x7c, 0x14, 0x14, 0x14, 0x08 }, // p   0X70 
....................     { 0x08, 0x14, 0x14, 0x18, 0x7c }, // q   0X71 
....................     { 0x7c, 0x08, 0x04, 0x04, 0x08 }, // r   0X72 
....................     { 0x48, 0x54, 0x54, 0x54, 0x20 }, // s   0X73 
....................     { 0x04, 0x3f, 0x44, 0x40, 0x20 }, // t   0X74 
....................     { 0x3c, 0x40, 0x40, 0x20, 0x7c }, // u   0X75 
....................     { 0x1c, 0x20, 0x40, 0x20, 0x1c }, // v   0X76 
....................     { 0x3c, 0x40, 0x30, 0x40, 0x3c }, // w   0X77 
....................     { 0x44, 0x28, 0x10, 0x28, 0x44 }, // x   0X78 
....................     { 0x0c, 0x50, 0x50, 0x50, 0x3c }, // y   0X79 
....................     { 0x44, 0x64, 0x54, 0x4c, 0x44 }, // z   0X7A 
....................     { 0x00, 0x08, 0x36, 0x41, 0x00 }, // {   0X7B 
....................     { 0x00, 0x00, 0x7f, 0x00, 0x00 }, // |   0X7C 
....................     { 0x00, 0x41, 0x36, 0x08, 0x00 }, // }   0X7D 
....................     { 0x08, 0x08, 0x2a, 0x1c, 0x08 }, //   0X7E 
....................     { 0x08, 0x1c, 0x2a, 0x08, 0x08 }, //   0X7F 
.................... 	{ 0x04, 0x02, 0xff, 0x02, 0x04 }, //   0x80 // 0x80`0x9Fo^\ 
.................... 	{ 0x20, 0x40, 0xff, 0x40, 0x20 }, //   0x81		  
.................... 	{ 0x2c, 0x32, 0x02, 0x32, 0x2c }, //   0x82 
.................... 	{ 0x44, 0x3c, 0x04, 0x7c, 0x44 }, //   0x83	     
.................... 	{ 0x63, 0x55, 0x49, 0x41, 0x41 }, //   0x84 
.................... 	{ 0x14, 0x14, 0x7c, 0x14, 0x12 }, //   0x85		  
.................... 	{ 0x44, 0x3c, 0x14, 0x14, 0x74 }, //   0x86 
.................... 	{ 0x7c, 0x14, 0x1c, 0x14, 0x7c }, // ~  0x87	     
.................... 	{ 0x10, 0x10, 0x54, 0x10, 0x10 }, //   0x88 
.................... 	{ 0x7f, 0x7f, 0x7f, 0x7f, 0x7f }, //   0x89		  
.................... 	{ 0x05, 0x05, 0x7d, 0x05, 0x05 }, //   0x8A 
.................... 	{ 0x72, 0x8d, 0x8a, 0x88, 0x10 }, //   0x8B	     
.................... 	{ 0x44, 0x44, 0x5f, 0x44, 0x44 }, // }  0x8C 
.................... 	{ 0x00, 0x00, 0x00, 0x00, 0x00 }, //     0x8D		  
.................... 	{ 0x00, 0x00, 0x00, 0x00, 0x00 }, //     0x8E 
.................... 	{ 0x00, 0x00, 0x00, 0x00, 0x00 }, //     0x8F	     
.................... 	{ 0x00, 0x00, 0x00, 0x00, 0x00 }, //     0x90 
.................... 	{ 0x00, 0x00, 0x00, 0x00, 0x00 }, //     0x91		  
.................... 	{ 0x00, 0x00, 0x00, 0x00, 0x00 }, //     0x92 
.................... 	{ 0x00, 0x00, 0x00, 0x00, 0x00 }, //     0x93	     
.................... 	{ 0x00, 0x00, 0x00, 0x00, 0x00 }, //     0x94 
.................... 	{ 0x00, 0x00, 0x00, 0x00, 0x00 }, //     0x95		  
.................... 	{ 0x00, 0x00, 0x00, 0x00, 0x00 }, //     0x96 
.................... 	{ 0x00, 0x00, 0x00, 0x00, 0x00 }, //     0x97	     
.................... 	{ 0x00, 0x00, 0x00, 0x00, 0x00 }, //     0x98 
.................... 	{ 0x00, 0x00, 0x00, 0x00, 0x00 }, //     0x99		  
.................... 	{ 0x00, 0x00, 0x00, 0x00, 0x00 }, //     0x9A 
.................... 	{ 0x00, 0x00, 0x00, 0x00, 0x00 }, //     0x9B	     
.................... 	{ 0x00, 0x00, 0x00, 0x00, 0x00 }, //     0x9C 
.................... 	{ 0x00, 0x00, 0x00, 0x00, 0x00 }, //     0x9D		  
.................... 	{ 0x00, 0x00, 0x00, 0x00, 0x00 }, //     0x9E 
.................... 	{ 0x00, 0x00, 0x00, 0x00, 0x00 }, //     0x9F 
.................... 	{ 0x00, 0x00, 0x00, 0x00, 0x00 }, //     0xA0 
.................... 	{ 0x70, 0x50, 0x70, 0x00, 0x00 }, //  .  0xA1		  
.................... 	{ 0x00, 0x00, 0x0f, 0x01, 0x01 }, // u  0xA2 
.................... 	{ 0x40, 0x40, 0x78, 0x00, 0x00 }, //  v 0xA3	     
.................... 	{ 0x10, 0x20, 0x40, 0x00, 0x00 }, //  ,  0xA4 
.................... 	{ 0x00, 0x18, 0x18, 0x00, 0x00 }, //  .  0xA5		  
.................... 	{ 0x0a, 0x0a, 0x4a, 0x2a, 0x1e }, // wo  0xA6 
.................... 	{ 0x04, 0x24, 0x34, 0x14, 0x0c }, // a   0xA7	     
.................... 	{ 0x20, 0x10, 0x78, 0x04, 0x00 }, // i   0xA8 
.................... 	{ 0x18, 0x08, 0x4c, 0x48, 0x38 }, // u   0xA9		  
.................... 	{ 0x48, 0x48, 0x78, 0x48, 0x48 }, // e   0xAA 
.................... 	{ 0x48, 0x28, 0x18, 0x7c, 0x08 }, // o   0xAB	     
.................... 	{ 0x08, 0x7c, 0x08, 0x28, 0x18 }, // ya  0xAC 
.................... 	{ 0x40, 0x48, 0x48, 0x78, 0x40 }, // yu  0xAD		  
.................... 	{ 0x54, 0x54, 0x54, 0x7c, 0x00 }, // yo  0xAE 
.................... 	{ 0x18, 0x00, 0x58, 0x40, 0x38 }, // tu  0xAF		 
.................... 	{ 0x08, 0x08, 0x08, 0x08, 0x08 }, //  -  0xB0 
.................... 	{ 0x01, 0x41, 0x3d, 0x09, 0x07 }, //  a  0xB1		  
.................... 	{ 0x20, 0x10, 0x7c, 0x02, 0x01 }, //  i  0xB2 
.................... 	{ 0x0e, 0x02, 0x43, 0x22, 0x1e }, //  u  0xB3	     
.................... 	{ 0x42, 0x42, 0x7e, 0x42, 0x42 }, //  e  0xB4 
.................... 	{ 0x22, 0x12, 0x0a, 0x7f, 0x02 }, //  o  0xB5		  
.................... 	{ 0x42, 0x3f, 0x02, 0x42, 0x3e }, // ka  0xB6 
.................... 	{ 0x0a, 0x0a, 0x7f, 0x0a, 0x0a }, // ki  0xB7	     
.................... 	{ 0x08, 0x46, 0x42, 0x22, 0x1e }, // ku  0xB8 
.................... 	{ 0x04, 0x03, 0x42, 0x3e, 0x04 }, // ke  0xB9		  
.................... 	{ 0x42, 0x42, 0x42, 0x42, 0x7e }, // ko  0xBA 
.................... 	{ 0x02, 0x4f, 0x22, 0x1f, 0x02 }, // sa  0xBB	     
.................... 	{ 0x4a, 0x4a, 0x40, 0x20, 0x1c }, // si  0xBC 
.................... 	{ 0x42, 0x22, 0x12, 0x2a, 0x46 }, // su  0xBD		  
.................... 	{ 0x02, 0x3f, 0x42, 0x4a, 0x46 }, // se  0xBE 
.................... 	{ 0x06, 0x48, 0x40, 0x20, 0x1e }, // so  0xBF 
.................... 	{ 0x08, 0x46, 0x4a, 0x32, 0x1e }, // ta  0xC0 
.................... 	{ 0x0a, 0x4a, 0x3e, 0x09, 0x08 }, // ti  0xC1		  
.................... 	{ 0x0e, 0x00, 0x4e, 0x20, 0x1e }, // tu  0xC2 
.................... 	{ 0x04, 0x45, 0x3d, 0x05, 0x04 }, // te  0xC3	     
.................... 	{ 0x00, 0x7f, 0x08, 0x10, 0x00 }, // to  0xC4 
.................... 	{ 0x44, 0x24, 0x1f, 0x04, 0x04 }, // na  0xC5		  
.................... 	{ 0x40, 0x42, 0x42, 0x42, 0x40 }, // ni  0xC6 
.................... 	{ 0x42, 0x2a, 0x12, 0x2a, 0x06 }, // nu  0xC7	     
.................... 	{ 0x22, 0x12, 0x7b, 0x16, 0x22 }, // ne  0xC8 
.................... 	{ 0x00, 0x40, 0x20, 0x1f, 0x00 }, // no  0xC9		  
.................... 	{ 0x78, 0x00, 0x02, 0x04, 0x78 }, // ha  0xCA 
.................... 	{ 0x3f, 0x44, 0x44, 0x44, 0x44 }, // hi  0xCB	     
.................... 	{ 0x02, 0x42, 0x42, 0x22, 0x1e }, // hu  0xCC 
.................... 	{ 0x04, 0x02, 0x04, 0x08, 0x30 }, // he  0xCD		  
.................... 	{ 0x32, 0x02, 0x7f, 0x02, 0x32 }, // ho  0xCE 
.................... 	{ 0x02, 0x12, 0x22, 0x52, 0x0e }, // ma  0xCF		 
.................... 	{ 0x00, 0x2a, 0x2a, 0x2a, 0x40 }, // mi  0xD0 
.................... 	{ 0x38, 0x24, 0x22, 0x20, 0x70 }, // mu  0xD1		  
.................... 	{ 0x40, 0x28, 0x10, 0x28, 0x06 }, // me  0xD2 
.................... 	{ 0x0a, 0x3e, 0x4a, 0x4a, 0x4a }, // mo  0xD3	     
.................... 	{ 0x04, 0x7f, 0x04, 0x14, 0x0c }, // ya  0xD4 
.................... 	{ 0x40, 0x42, 0x42, 0x7e, 0x40 }, // yu  0xD5		  
.................... 	{ 0x4a, 0x4a, 0x4a, 0x4a, 0x7e }, // yo  0xD6 
.................... 	{ 0x04, 0x05, 0x45, 0x25, 0x1c }, // ra  0xD7	     
.................... 	{ 0x0f, 0x40, 0x20, 0x1f, 0x00 }, // ri  0xD8 
.................... 	{ 0x7c, 0x00, 0x7e, 0x80, 0x30 }, // ru  0xD9		  
.................... 	{ 0x7e, 0x40, 0x20, 0x10, 0x08 }, // re  0xDA 
.................... 	{ 0x7e, 0x42, 0x42, 0x42, 0x7e }, // ro  0xDB	     
.................... 	{ 0x0e, 0x02, 0x42, 0x22, 0x1e }, // wa  0xDC 
.................... 	{ 0x42, 0x42, 0x40, 0x20, 0x18 }, // n   0xDD		  
.................... 	{ 0x02, 0x04, 0x01, 0x02, 0x00 }, // "   0xDE 
.................... 	{ 0x07, 0x05, 0x07, 0x00, 0x00 }  // K  0xDF 
.................... 		    	     
.................... }; 
....................  
....................  
....................  
.................... #include "image_data.c"//C[Wf[^ 
....................  
.................... //8rbgf[^LCD128x32 
.................... // Image:Name=img1,Width=128,Hight=32  
.................... //const int lcd_image8[512] = {0,0,0,0,0,0,0,0,0,0,0,0,30,30,30,30,30,30,30,158,254,254,254,254,254,126,62,0,0,0,254,254,254,254,254,254,30,30,30,30,30,30,30,30,30,0,0,0,0,0,128,240,254,254,254,254,126,254,254,254,240,128,0,0,0,0,0,30,30,30,30,30,254,254,254,254,254,254,30,30,30,30,30,0,0,0,254,254,254,254,254,30,30,30,30,30,30,30,30,30,0,0,0,0,224,248,252,252,254,62,30,30,30,30,62,126,124,124,120,112,0,0,0,0,0,0,0,0, 
.................... //0,0,0,0,0,0,0,0,0,0,0,192,224,240,248,248,252,254,191,159,143,135,131,129,128,128,128,128,0,0,255,255,255,255,255,255,135,135,135,135,135,135,135,135,128,0,0,0,224,252,255,255,255,255,247,240,240,243,255,255,255,255,254,240,128,0,0,0,0,0,0,0,255,255,255,255,255,255,0,0,0,0,0,0,0,0,255,255,255,255,255,143,135,135,135,135,135,135,135,135,128,0,0,15,127,255,255,255,255,192,128,128,128,128,192,224,240,240,240,224,32,0,0,0,0,0,0,0, 
.................... //0,0,0,0,0,0,0,0,192,0,0,7,7,7,7,199,199,7,7,135,199,7,7,7,7,7,7,7,0,0,7,7,7,7,199,7,7,199,7,7,7,7,7,7,7,0,0,7,7,7,7,7,3,0,0,0,0,0,0,1,7,7,7,7,7,4,0,0,0,0,0,0,7,7,7,7,7,7,0,0,0,0,0,0,0,0,7,7,7,7,199,199,7,7,7,7,7,7,7,7,7,0,0,0,0,1,3,3,7,7,71,71,7,7,7,7,7,3,1,0,0,192,0,0,0,0,0,0, 
.................... //0,0,0,0,0,0,0,0,31,3,1,31,31,0,1,31,31,17,1,31,31,17,0,127,127,17,25,31,14,0,27,27,0,30,1,16,15,0,1,15,30,31,7,31,28,31,3,0,7,31,28,15,7,30,31,7,0,1,15,30,31,7,31,28,31,3,0,24,24,0,25,29,31,19,16,0,15,31,21,31,31,0,8,29,21,21,31,31,0,1,31,31,17,6,31,31,21,31,14,0,14,31,17,17,27,8,0,24,24,64,127,127,0,0,127,27,17,31,15,0,28,3,0,0,0,0,0,0}; 
....................  
.................... //8rbgf[^LCD132x32 
.................... //const int lcd_image8[528] = {0,0,0,0,0,0,0,0,0,0,0,0,0,0,30,30,30,30,30,30,30,158,254,254,254,254,254,126,62,0,0,0,254,254,254,254,254,254,30,30,30,30,30,30,30,30,30,0,0,0,0,0,128,240,254,254,254,254,126,254,254,254,240,128,0,0,0,0,0,30,30,30,30,30,254,254,254,254,254,254,30,30,30,30,30,0,0,0,254,254,254,254,254,30,30,30,30,30,30,30,30,30,0,0,0,0,224,248,252,252,254,62,30,30,30,30,62,126,124,124,120,112,0,0,0,0,0,0,0,0,0,0, 
.................... //0,0,0,0,0,0,0,0,0,0,0,0,0,192,224,240,248,248,252,254,191,159,143,135,131,129,128,128,128,128,0,0,255,255,255,255,255,255,135,135,135,135,135,135,135,135,128,0,0,0,224,252,255,255,255,255,247,240,240,243,255,255,255,255,254,240,128,0,0,0,0,0,0,0,255,255,255,255,255,255,0,0,0,0,0,0,0,0,255,255,255,255,255,143,135,135,135,135,135,135,135,135,128,0,0,15,127,255,255,255,255,192,128,128,128,128,192,224,240,240,240,224,32,0,0,0,0,0,0,0,0,0, 
.................... //0,0,0,0,0,0,0,0,0,0,192,0,0,7,7,7,7,199,199,7,7,135,199,7,7,7,7,7,7,7,0,0,7,7,7,7,199,7,7,199,7,7,7,7,7,7,7,0,0,7,7,7,7,7,3,0,0,0,0,0,0,1,7,7,7,7,7,4,0,0,0,0,0,0,7,7,7,7,7,7,0,0,0,0,0,0,0,0,7,7,7,7,199,199,7,7,7,7,7,7,7,7,7,0,0,0,0,1,3,3,7,7,71,71,7,7,7,7,7,3,1,0,0,192,0,0,0,0,0,0,0,0, 
.................... //0,0,0,0,0,0,0,0,0,0,31,3,1,31,31,0,1,31,31,17,1,31,31,17,0,127,127,17,25,31,14,0,27,27,0,30,1,16,15,0,1,15,30,31,7,31,28,31,3,0,7,31,28,15,7,30,31,7,0,1,15,30,31,7,31,28,31,3,0,24,24,0,25,29,31,19,16,0,15,31,21,31,31,0,8,29,21,21,31,31,0,1,31,31,17,6,31,31,21,31,14,0,14,31,17,17,27,8,0,24,24,64,127,127,0,0,127,27,17,31,15,0,28,3,0,0,0,0,0,0,0,0}; 
....................  
.................... //8rbgf[^LCD128x64 
.................... //f[^ NlAuOtBbNc[(BMPtoHex.exe)v 
.................... const int lcd_image8[1024] = { 
.................... 0x0,0x8C,0x2,0x22,0x22,0x22,0xDC,0x0,0x20,0xFF,0x20,0x0,0x0,0x0,0x0,0x0, 
.................... 0x0,0x0,0x0,0x0,0x0,0x0,0x0,0x0,0x0,0x0,0x0,0x20,0x70,0x20,0x0,0x0, 
.................... 0x0,0x0,0x0,0x0,0x0,0x0,0x0,0x0,0x0,0x0,0x0,0x0,0x0,0x0,0x0,0x0, 
.................... 0x0,0x0,0x0,0x0,0x0,0x20,0x70,0x20,0x0,0x0,0x0,0x0,0x0,0x0,0x0,0x0, 
.................... 0x0,0x0,0x0,0x0,0x0,0x0,0x0,0x0,0x0,0x0,0x83,0xC3,0xE3,0x33,0x1F,0xF, 
.................... 0x7,0x0,0x0,0xFF,0xFF,0xFF,0x33,0x33,0x33,0x33,0x0,0x80,0xFC,0xFF,0xFF,0xC7, 
.................... 0xFF,0xFF,0xFC,0x80,0x0,0x3,0x3,0x3,0xFF,0xFF,0xFF,0x3,0x3,0x3,0x0,0xFF, 
.................... 0xFF,0xFF,0x33,0x33,0x33,0x33,0x0,0x0,0xFC,0xFE,0xFF,0x3,0x3,0xC7,0xC6,0x84, 
.................... 0x0,0x1,0x2,0x2,0x2,0x2,0x1,0x0,0x20,0xFF,0x20,0x0,0x0,0x0,0x0,0x0, 
.................... 0x0,0x0,0x0,0x0,0x0,0x0,0x0,0x0,0x0,0x0,0x0,0x0,0x0,0x0,0x0,0x0, 
.................... 0x0,0x0,0x0,0x0,0x0,0x0,0x0,0x0,0x0,0x0,0x0,0x0,0x0,0x0,0x0,0x0, 
.................... 0x0,0x0,0x0,0x0,0x0,0x0,0x0,0x0,0x0,0x0,0x0,0x0,0x0,0x0,0x0,0x0, 
.................... 0x0,0x0,0x0,0x0,0x0,0x0,0x0,0x0,0x0,0x0,0x3,0x3,0x3,0x3,0x3,0x3, 
.................... 0x3,0x0,0xC0,0x63,0x3,0x3,0x3,0x3,0x3,0x3,0x0,0x83,0x43,0x43,0x40,0x80, 
.................... 0x0,0xC3,0x43,0x43,0x40,0x40,0x40,0x0,0x63,0x93,0x93,0x60,0x80,0x40,0x20,0x23, 
.................... 0x23,0x43,0x83,0x3,0x3,0x3,0x0,0x0,0x0,0x1,0x3,0x3,0x3,0x3,0x1,0x0, 
.................... 0x0,0x18,0x4,0x82,0x42,0x22,0x1C,0x0,0x20,0xFF,0x20,0x0,0x0,0x0,0x0,0x0, 
.................... 0x0,0x0,0x0,0x0,0x0,0x0,0x0,0x0,0x0,0x0,0x0,0x20,0x70,0x20,0x0,0x0, 
.................... 0x0,0x0,0x0,0x0,0x0,0x0,0x0,0x0,0x0,0x0,0x0,0x0,0x0,0x0,0x0,0x0, 
.................... 0x0,0x0,0x0,0x0,0x0,0x20,0x70,0x20,0x0,0x0,0x0,0x0,0x0,0x0,0x0,0x0, 
.................... 0x0,0x0,0x0,0x0,0x0,0x0,0x0,0x0,0x0,0x0,0x0,0x0,0x0,0x0,0x80,0xE0, 
.................... 0x78,0x2F,0x1,0x0,0x0,0x0,0x0,0x0,0x0,0x0,0x43,0x60,0x50,0x48,0x44,0x43, 
.................... 0x0,0x27,0x42,0x42,0x42,0x24,0x18,0x0,0x0,0x0,0x0,0x0,0x1F,0x20,0x40,0x40, 
.................... 0x40,0x20,0x19,0x0,0x0,0x0,0x0,0x0,0x0,0x0,0x0,0x0,0x0,0x0,0x0,0x0, 
.................... 0x0,0x2,0x3,0x2,0x2,0x2,0x2,0x0,0x20,0xFF,0x20,0x0,0x0,0x0,0x0,0x0, 
.................... 0x0,0x0,0x0,0x0,0x0,0x0,0x0,0x0,0x0,0x0,0x0,0x0,0x0,0x0,0x0,0x0, 
.................... 0x0,0x0,0x0,0x0,0x0,0x0,0x0,0x0,0x0,0x0,0x0,0x0,0x0,0x0,0x0,0x0, 
.................... 0x0,0x0,0x0,0x0,0x0,0x0,0x0,0x0,0x0,0x0,0x0,0x0,0x0,0x0,0x0,0x0, 
.................... 0x0,0x0,0x0,0x0,0x0,0x0,0x0,0x0,0x0,0x0,0x80,0xE0,0x38,0xE,0x3,0x0, 
.................... 0x0,0x0,0x0,0x0,0x0,0x0,0x0,0x0,0x0,0x0,0x30,0x8,0x88,0x88,0x88,0x70, 
.................... 0x0,0x0,0x80,0x60,0x18,0xF8,0x0,0x0,0x70,0x88,0xF0,0x40,0xB0,0x8,0x0,0x0, 
.................... 0x0,0x0,0x0,0x0,0x0,0x0,0x0,0x0,0x0,0x0,0x0,0x0,0x0,0x0,0x0,0x0, 
.................... 0x0,0x0,0x4,0x4,0xFE,0x0,0x0,0x0,0x20,0xFF,0x20,0x0,0x0,0x0,0x0,0x0, 
.................... 0x0,0x0,0x80,0xC0,0x40,0x20,0x30,0x10,0x8,0x8,0x8,0x24,0x74,0x22,0x2,0x2, 
.................... 0x2,0x2,0x4,0x4,0x4,0xC,0x8,0x18,0x10,0x20,0x40,0xC0,0x80,0x0,0x0,0x0, 
.................... 0x0,0x0,0x0,0x0,0x0,0x20,0x70,0x20,0x0,0x0,0x0,0x0,0x0,0x0,0x0,0x0, 
.................... 0x0,0x0,0x0,0x0,0x0,0x80,0x40,0x20,0x18,0x6,0x3,0x0,0x0,0x0,0x0,0x20, 
.................... 0x70,0x20,0x0,0x0,0x0,0x0,0x0,0x0,0x0,0x0,0x6,0x8,0x8,0x8,0x8,0x7, 
.................... 0x0,0x3,0x2,0x2,0x2,0xF,0x2,0x0,0x8,0x6,0x1,0x7,0x8,0x7,0x0,0x0, 
.................... 0x0,0x0,0x0,0x0,0x0,0x0,0x0,0x0,0x0,0x0,0x0,0x0,0x0,0x0,0x0,0x0, 
.................... 0x0,0x0,0x0,0x0,0x3,0x0,0x0,0x0,0x20,0xFF,0x20,0xC0,0x60,0x30,0x18,0x6, 
.................... 0x2,0x1,0x1,0x0,0x0,0x0,0x0,0x0,0x0,0x0,0x0,0x0,0x0,0x0,0x0,0x0, 
.................... 0x0,0x0,0x0,0x0,0x0,0x0,0x0,0x0,0x0,0x0,0x0,0x0,0x0,0x1,0x2,0x2, 
.................... 0x4,0x8,0x8,0x10,0x10,0x20,0x20,0x40,0x40,0x40,0x40,0x20,0x20,0x20,0x10,0x10, 
.................... 0x8,0xC,0x4,0x2,0x1,0x0,0x0,0x0,0x0,0x0,0x0,0x0,0x0,0x0,0x0,0x0, 
.................... 0x0,0x0,0x0,0x0,0x0,0x0,0x0,0x0,0x0,0x0,0x0,0x2,0x2,0xFF,0x0,0x0, 
.................... 0x0,0xC,0x82,0x41,0x21,0x11,0xE,0x0,0x7C,0x82,0x1,0x1,0x82,0x7C,0x0,0xF8, 
.................... 0x10,0x8,0x8,0xF0,0x10,0x8,0x8,0xF0,0x0,0xC0,0x70,0x4E,0x41,0x4E,0x70,0xC0, 
.................... 0x0,0xF8,0x4,0x2,0x2,0x4,0xF8,0x0,0x20,0x3F,0x20,0x20,0x20,0x20,0x20,0x20, 
.................... 0x20,0x20,0x20,0x20,0x20,0x20,0x20,0x20,0x20,0xA0,0x20,0x20,0x70,0x20,0x20,0xA0, 
.................... 0xA0,0x20,0x20,0x20,0x20,0x20,0x20,0x20,0x20,0x20,0x20,0x20,0x20,0x20,0x20,0x20, 
.................... 0x20,0x20,0xA0,0xA0,0xA0,0x20,0x70,0x20,0x20,0xA0,0xA0,0x20,0x20,0x20,0x20,0x20, 
.................... 0x20,0x20,0x20,0x20,0x20,0x20,0x20,0x20,0x20,0x20,0x20,0xA0,0xA0,0xA0,0xA0,0x20, 
.................... 0x70,0x20,0x20,0xA0,0xA0,0x20,0x20,0x0,0x0,0x0,0xC0,0x20,0x90,0x91,0x90,0x20, 
.................... 0x0,0x11,0x11,0x11,0x11,0xD1,0x31,0x0,0xE0,0x10,0x11,0x11,0x10,0xE0,0x0,0x81, 
.................... 0x0,0x0,0x0,0x1,0x80,0x0,0x0,0x81,0x80,0x81,0x0,0x0,0x0,0x0,0x0,0x1, 
.................... 0x0,0x0,0x1,0x2,0x2,0x1,0x0,0x0,0x0,0x0,0x0,0x0,0x0,0x0,0x0,0x0, 
.................... 0x0,0x0,0x0,0x0,0x0,0x0,0x0,0x1,0x1,0xFF,0x0,0x0,0x0,0x3E,0x41,0x80, 
.................... 0x80,0x41,0x3E,0x0,0x0,0x0,0x0,0x0,0x0,0x0,0x0,0x0,0x0,0x0,0x0,0x0, 
.................... 0x86,0xC1,0xA0,0x90,0x88,0x87,0x0,0x3E,0x41,0x80,0x80,0x41,0x3E,0x0,0x0,0x0, 
.................... 0x0,0x0,0x0,0x0,0x0,0x0,0x0,0x0,0x0,0x0,0x63,0x80,0x88,0x88,0x88,0x77, 
.................... 0x0,0x3E,0x41,0x80,0x80,0x41,0x3E,0x0,0x0,0x0,0x7,0x9,0x10,0x10,0x10,0xF, 
.................... 0x0,0x0,0x0,0x18,0x7,0x0,0x0,0x0,0xE,0x11,0x11,0x11,0x11,0xE,0x0,0xF, 
.................... 0x10,0x10,0x10,0x8,0x1F,0x0,0x9,0x12,0x14,0x14,0x9,0x0,0x0,0x0,0x0,0x0}; 
....................  
.................... //8rbgf[^LCD320x240 
.................... //const int lcd_image8[] = { 
.................... //0x80,0x00,0x00,0x00,0x00,0x00,0x00,0x00,0x00,0x00,0x00,0x00,0x00,0x00,0x00,0x00,0x00,0x00,0x00,0x00,0x00,0x00,0x00,0x00,0x00,0x00,0x00,0x00,0x00,0x00,0x00,0x00,0x00,0x00,0x00,0x00,0x00,0x00,0x00,0x01,//40byt=320dot 
.................... //0x40,0x00,0x00,0x00,0x00,0x00,0x00,0x00,0x00,0x00,0x00,0x00,0x00,0x00,0x00,0x00,0x00,0x00,0x00,0x00,0x00,0x00,0x00,0x00,0x00,0x00,0x00,0x00,0x00,0x00,0x00,0x00,0x00,0x00,0x00,0x00,0x00,0x00,0x00,0x02, 
.................... //0x20,0x00,0x00,0x00,0x00,0x00,0x00,0x00,0x00,0x00,0x00,0x00,0x00,0x00,0x00,0x00,0x00,0x00,0x00,0x00,0x00,0x00,0x00,0x00,0x00,0x00,0x00,0x00,0x00,0x00,0x00,0x00,0x00,0x00,0x00,0x00,0x00,0x00,0x00,0x04, 
.................... //0x10,0x00,0x00,0x00,0x00,0x00,0x00,0x00,0x00,0x00,0x00,0x00,0x00,0x00,0x00,0x00,0x00,0x00,0x00,0x00,0x00,0x00,0x00,0x00,0x00,0x00,0x00,0x00,0x00,0x00,0x00,0x00,0x00,0x00,0x00,0x00,0x00,0x00,0x00,0x08, 
.................... //0x80,0x00,0x00,0x00,0x00,0x00,0x00,0x00,0x00,0x00,0x00,0x00,0x00,0x00,0x00,0x00,0x00,0x00,0x00,0x00,0x00,0x00,0x00,0x00,0x00,0x00,0x00,0x00,0x00,0x00,0x00,0x00,0x00,0x00,0x00,0x00,0x00,0x00,0x00,0x01, 
.................... //0x40,0x00,0x00,0x00,0x00,0x00,0x00,0x00,0x00,0x00,0x00,0x00,0x00,0x00,0x00,0x00,0x00,0x00,0x00,0x00,0x00,0x00,0x00,0x00,0x00,0x00,0x00,0x00,0x00,0x00,0x00,0x00,0x00,0x00,0x00,0x00,0x00,0x00,0x00,0x02, 
.................... //0x20,0x00,0x00,0x00,0x00,0x00,0x00,0x00,0x00,0x00,0x00,0x00,0x00,0x00,0x00,0x00,0x00,0x00,0x00,0x00,0x00,0x00,0x00,0x00,0x00,0x00,0x00,0x00,0x00,0x00,0x00,0x00,0x00,0x00,0x00,0x00,0x00,0x00,0x00,0x04, 
.................... //0x10,0x00,0x00,0x00,0x00,0x00,0x00,0x00,0x00,0x00,0x00,0x00,0x00,0x00,0x00,0x00,0x00,0x00,0x00,0x00,0x00,0x00,0x00,0x00,0x00,0x00,0x00,0x00,0x00,0x00,0x00,0x00,0x00,0x00,0x00,0x00,0x00,0x00,0x00,0x08, 
.................... //0x80,0x00,0x00,0x00,0x00,0x00,0x00,0x00,0x00,0x00,0x00,0x00,0x00,0x00,0x00,0x00,0x00,0x00,0x00,0x00,0x00,0x00,0x00,0x00,0x00,0x00,0x00,0x00,0x00,0x00,0x00,0x00,0x00,0x00,0x00,0x00,0x00,0x00,0x00,0x01, 
.................... //0x40,0x00,0x00,0x00,0x00,0x00,0x00,0x00,0x00,0x00,0x00,0x00,0x00,0x00,0x00,0x00,0x00,0x00,0x00,0x00,0x00,0x00,0x00,0x00,0x00,0x00,0x00,0x00,0x00,0x00,0x00,0x00,0x00,0x00,0x00,0x00,0x00,0x00,0x00,0x02, 
.................... //0x20,0x00,0x00,0x00,0x00,0x00,0x00,0x00,0x00,0x00,0x00,0x00,0x00,0x00,0x00,0x00,0x00,0x00,0x00,0x00,0x00,0x00,0x00,0x00,0x00,0x00,0x00,0x00,0x00,0x00,0x00,0x00,0x00,0x00,0x00,0x00,0x00,0x00,0x00,0x04, 
.................... //0x10,0x00,0x00,0x00,0x00,0x00,0x00,0x00,0x00,0x00,0x00,0x00,0x00,0x00,0x00,0x00,0x00,0x00,0x00,0x00,0x00,0x00,0x00,0x00,0x00,0x00,0x00,0x00,0x00,0x00,0x00,0x00,0x00,0x00,0x00,0x00,0x00,0x00,0x00,0x08, 
.................... //0x80,0x00,0x00,0x00,0x00,0x00,0x00,0x00,0x00,0x00,0x00,0x00,0x00,0x00,0x00,0x00,0x00,0x00,0x00,0x00,0x00,0x00,0x00,0x00,0x00,0x00,0x00,0x00,0x00,0x00,0x00,0x00,0x00,0x00,0x00,0x00,0x00,0x00,0x00,0x01, 
.................... //0x40,0x00,0x00,0x00,0x00,0x00,0x00,0x00,0x00,0x00,0x00,0x00,0x00,0x00,0x00,0x00,0x00,0x00,0x00,0x00,0x00,0x00,0x00,0x00,0x00,0x00,0x00,0x00,0x00,0x00,0x00,0x00,0x00,0x00,0x00,0x00,0x00,0x00,0x00,0x02, 
.................... //0x20,0x00,0x00,0x00,0x00,0x00,0x00,0x00,0x00,0x00,0x00,0x00,0x00,0x00,0x00,0x00,0x00,0x00,0x00,0x00,0x00,0x00,0x00,0x00,0x00,0x00,0x00,0x00,0x00,0x00,0x00,0x00,0x00,0x00,0x00,0x00,0x00,0x00,0x00,0x04, 
.................... //0x10,0x00,0x00,0x00,0x00,0x00,0x00,0x00,0x00,0x00,0x00,0x00,0x00,0x00,0x00,0x00,0x00,0x00,0x00,0x00,0x00,0x00,0x00,0x00,0x00,0x00,0x00,0x00,0x00,0x00,0x00,0x00,0x00,0x00,0x00,0x00,0x00,0x00,0x00,0x08, 
.................... //0x80,0x00,0x00,0x00,0x00,0x00,0x00,0x00,0x00,0x00,0x00,0x00,0x00,0x00,0x00,0x00,0x00,0x00,0x00,0x00,0x00,0x00,0x00,0x00,0x00,0x00,0x00,0x00,0x00,0x00,0x00,0x00,0x00,0x00,0x00,0x00,0x00,0x00,0x00,0x01, 
.................... //0x40,0x00,0x00,0x00,0x00,0x00,0x00,0x00,0x00,0x00,0x00,0x00,0x00,0x00,0x00,0x00,0x00,0x00,0x00,0x00,0x00,0x00,0x00,0x00,0x00,0x00,0x00,0x00,0x00,0x00,0x00,0x00,0x00,0x00,0x00,0x00,0x00,0x00,0x00,0x02, 
.................... //0x20,0x00,0x00,0x00,0x00,0x00,0x00,0x00,0x00,0x00,0x00,0x00,0x00,0x00,0x00,0x00,0x00,0x00,0x00,0x00,0x00,0x00,0x00,0x00,0x00,0x00,0x00,0x00,0x00,0x00,0x00,0x00,0x00,0x00,0x00,0x00,0x00,0x00,0x00,0x04, 
.................... //0x10,0x00,0x00,0x00,0x00,0x00,0x00,0x00,0x00,0x00,0x00,0x00,0x00,0x00,0x00,0x00,0x00,0x00,0x00,0x00,0x00,0x00,0x00,0x00,0x00,0x00,0x00,0x00,0x00,0x00,0x00,0x00,0x00,0x00,0x00,0x00,0x00,0x00,0x00,0x08, 
.................... //0x80,0x00,0x00,0x00,0x00,0x00,0x00,0x00,0x00,0x00,0x00,0x00,0x00,0x00,0x00,0x00,0x00,0x00,0x00,0x00,0x00,0x00,0x00,0x00,0x00,0x00,0x00,0x00,0x00,0x00,0x00,0x00,0x00,0x00,0x00,0x00,0x00,0x00,0x00,0x01, 
.................... //0x40,0x00,0x00,0x00,0x00,0x00,0x00,0x00,0x00,0x00,0x00,0x00,0x00,0x00,0x00,0x00,0x00,0x00,0x00,0x00,0x00,0x00,0x00,0x00,0x00,0x00,0x00,0x00,0x00,0x00,0x00,0x00,0x00,0x00,0x00,0x00,0x00,0x00,0x00,0x02, 
.................... //0x20,0x00,0x00,0x00,0x00,0x00,0x00,0x00,0x00,0x00,0x00,0x00,0x00,0x00,0x00,0x00,0x00,0x00,0x00,0x00,0x00,0x00,0x00,0x00,0x00,0x00,0x00,0x00,0x00,0x00,0x00,0x00,0x00,0x00,0x00,0x00,0x00,0x00,0x00,0x04, 
.................... //0x10,0x00,0x00,0x00,0x00,0x00,0x00,0x00,0x00,0x00,0x00,0x00,0x00,0x00,0x00,0x00,0x00,0x00,0x00,0x00,0x00,0x00,0x00,0x00,0x00,0x00,0x00,0x00,0x00,0x00,0x00,0x00,0x00,0x00,0x00,0x00,0x00,0x00,0x00,0x08, 
.................... //0x80,0x00,0x00,0x00,0x00,0x00,0x00,0x00,0x00,0x00,0x00,0x00,0x00,0x00,0x00,0x00,0x00,0x00,0x00,0x00,0x00,0x00,0x00,0x00,0x00,0x00,0x00,0x00,0x00,0x00,0x00,0x00,0x00,0x00,0x00,0x00,0x00,0x00,0x00,0x01, 
.................... //0x40,0x00,0x00,0x00,0x00,0x00,0x00,0x00,0x00,0x00,0x00,0x00,0x00,0x00,0x00,0x00,0x00,0x00,0x00,0x00,0x00,0x00,0x00,0x00,0x00,0x00,0x00,0x00,0x00,0x00,0x00,0x00,0x00,0x00,0x00,0x00,0x00,0x00,0x00,0x02, 
.................... //0x20,0x00,0x00,0x00,0x00,0x00,0x00,0x00,0x00,0x00,0x00,0x00,0x00,0x00,0x00,0x00,0x00,0x00,0x00,0x00,0x00,0x00,0x00,0x00,0x00,0x00,0x00,0x00,0x00,0x00,0x00,0x00,0x00,0x00,0x00,0x00,0x00,0x00,0x00,0x04, 
.................... //0x10,0x00,0x00,0x00,0x00,0x00,0x00,0x00,0x00,0x00,0x00,0x00,0x00,0x00,0x00,0x00,0x00,0x00,0x00,0x00,0x00,0x00,0x00,0x00,0x00,0x00,0x00,0x00,0x00,0x00,0x00,0x00,0x00,0x00,0x00,0x00,0x00,0x00,0x00,0x08, 
.................... //0x80,0x00,0x00,0x00,0x00,0x00,0x00,0x00,0x00,0x00,0x00,0x00,0x00,0x00,0x00,0x00,0x00,0x00,0x00,0x00,0x00,0x00,0x00,0x00,0x00,0x00,0x00,0x00,0x00,0x00,0x00,0x00,0x00,0x00,0x00,0x00,0x00,0x00,0x00,0x01, 
.................... //0x40,0x00,0x00,0x00,0x00,0x00,0x00,0x00,0x00,0x00,0x00,0x00,0x00,0x00,0x00,0x00,0x00,0x00,0x00,0x00,0x00,0x00,0x00,0x00,0x00,0x00,0x00,0x00,0x00,0x00,0x00,0x00,0x00,0x00,0x00,0x00,0x00,0x00,0x00,0x02, 
.................... //0x20,0x00,0x00,0x00,0x00,0x00,0x00,0x00,0x00,0x00,0x00,0x00,0x00,0x00,0x00,0x00,0x00,0x00,0x00,0x00,0x00,0x00,0x00,0x00,0x00,0x00,0x00,0x00,0x00,0x00,0x00,0x00,0x00,0x00,0x00,0x00,0x00,0x00,0x00,0x04, 
.................... //0x10,0x00,0x00,0x00,0x00,0x00,0x00,0x00,0x00,0x00,0x00,0x00,0x00,0x00,0x00,0x00,0x00,0x00,0x00,0x00,0x00,0x00,0x00,0x00,0x00,0x00,0x00,0x00,0x00,0x00,0x00,0x00,0x00,0x00,0x00,0x00,0x00,0x00,0x00,0x08, 
.................... //0x80,0x00,0x00,0x00,0x00,0x00,0x00,0x00,0x00,0x00,0x00,0x00,0x00,0x00,0x00,0x00,0x00,0x00,0x00,0x00,0x00,0x00,0x00,0x00,0x00,0x00,0x00,0x00,0x00,0x00,0x00,0x00,0x00,0x00,0x00,0x00,0x00,0x00,0x00,0x01, 
.................... //0x40,0x00,0x00,0x00,0x00,0x00,0x00,0x00,0x00,0x00,0x00,0x00,0x00,0x00,0x00,0x00,0x00,0x00,0x00,0x00,0x00,0x00,0x00,0x00,0x00,0x00,0x00,0x00,0x00,0x00,0x00,0x00,0x00,0x00,0x00,0x00,0x00,0x00,0x00,0x02, 
.................... //0x20,0x00,0x00,0x00,0x00,0x00,0x00,0x00,0x00,0x00,0x00,0x00,0x00,0x00,0x00,0x00,0x00,0x00,0x00,0x00,0x00,0x00,0x00,0x00,0x00,0x00,0x00,0x00,0x00,0x00,0x00,0x00,0x00,0x00,0x00,0x00,0x00,0x00,0x00,0x04, 
.................... //0x10,0x00,0x00,0x00,0x00,0x00,0x00,0x00,0x00,0x00,0x00,0x00,0x00,0x00,0x00,0x00,0x00,0x00,0x00,0x00,0x00,0x00,0x00,0x00,0x00,0x00,0x00,0x00,0x00,0x00,0x00,0x00,0x00,0x00,0x00,0x00,0x00,0x00,0x00,0x08, 
.................... //0x80,0x00,0x00,0x00,0x00,0x00,0x00,0x00,0x00,0x00,0x00,0x00,0x00,0x00,0x00,0x00,0x00,0x00,0x00,0x00,0x00,0x00,0x00,0x00,0x00,0x00,0x00,0x00,0x00,0x00,0x00,0x00,0x00,0x00,0x00,0x00,0x00,0x00,0x00,0x01, 
.................... //0x40,0x00,0x00,0x00,0x00,0x00,0x00,0x00,0x00,0x00,0x00,0x00,0x00,0x00,0x00,0x00,0x00,0x00,0x00,0x00,0x00,0x00,0x00,0x00,0x00,0x00,0x00,0x00,0x00,0x00,0x00,0x00,0x00,0x00,0x00,0x00,0x00,0x00,0x00,0x02, 
.................... //0x20,0x00,0x00,0x00,0x00,0x00,0x00,0x00,0x00,0x00,0x00,0x00,0x00,0x00,0x00,0x00,0x00,0x00,0x00,0x00,0x00,0x00,0x00,0x00,0x00,0x00,0x00,0x00,0x00,0x00,0x00,0x00,0x00,0x00,0x00,0x00,0x00,0x00,0x00,0x04, 
.................... //0x10,0x00,0x00,0x00,0x00,0x00,0x00,0x00,0x00,0x00,0x00,0x00,0x00,0x00,0x00,0x00,0x00,0x00,0x00,0x00,0x00,0x00,0x00,0x00,0x00,0x00,0x00,0x00,0x00,0x00,0x00,0x00,0x00,0x00,0x00,0x00,0x00,0x00,0x00,0x08, 
.................... //0x80,0x00,0x00,0x00,0x00,0x00,0x00,0x00,0x00,0x00,0x00,0x00,0x00,0x00,0x00,0x00,0x00,0x00,0x00,0x00,0x00,0x00,0x00,0x00,0x00,0x00,0x00,0x00,0x00,0x00,0x00,0x00,0x00,0x00,0x00,0x00,0x00,0x00,0x00,0x01, 
.................... //0x40,0x00,0x00,0x00,0x00,0x00,0x00,0x00,0x00,0x00,0x00,0x00,0x00,0x00,0x00,0x00,0x00,0x00,0x00,0x00,0x00,0x00,0x00,0x00,0x00,0x00,0x00,0x00,0x00,0x00,0x00,0x00,0x00,0x00,0x00,0x00,0x00,0x00,0x00,0x02, 
.................... //0x20,0x00,0x00,0x00,0x00,0x00,0x00,0x00,0x00,0x00,0x00,0x00,0x00,0x00,0x00,0x00,0x00,0x00,0x00,0x00,0x00,0x00,0x00,0x00,0x00,0x00,0x00,0x00,0x00,0x00,0x00,0x00,0x00,0x00,0x00,0x00,0x00,0x00,0x00,0x04, 
.................... //0x10,0x00,0x00,0x00,0x00,0x00,0x00,0x00,0x00,0x00,0x00,0x00,0x00,0x00,0x00,0x00,0x00,0x00,0x00,0x00,0x00,0x00,0x00,0x00,0x00,0x00,0x00,0x00,0x00,0x00,0x00,0x00,0x00,0x00,0x00,0x00,0x00,0x00,0x00,0x08}; 
....................  
.................... //@@@@@@@@@@@@ 
.................... //const int32 lcd_image32[132] = { 
.................... //0b01000001000000000000000000000000, 
.................... //0b01111111100000000000000000000000, 
.................... //0b01000000000000000000000000000000, 
.................... //0b00000000000000000000000000000000, 
.................... //0b00011000011000000000000000000000, 
.................... //0b00010100000100000000000000000000, 
.................... //0b00010010000100000000000000000000, 
.................... //0b00010001000100000000000000000000, 
.................... //0b00010000111000000000000000000000, 
.................... //0b00000000000000000000000000000000, 
.................... //0b00000000000000000000000000000000, 
.................... //0b00000000000000000000000000000000, 
.................... //0b00000000000000000000000000000000, 
.................... //0b00000000000000000000000000000000, 
.................... //0b00000000000000000000000000000000, 
.................... //0b00000000000000000000000000000000, 
.................... //0b00000000000000000000000000000000, 
.................... //0b00000000000000000000000000000000, 
.................... //0b00000000000000000000000000000000, 
.................... //0b00000000000000000000000000000000, 
.................... //0b00000000000000000000000000000000, 
.................... //0b00000000000000000000000000000000, 
.................... //0b00000000000000000000000000000000, 
.................... //0b00000000000000000000000000000000, 
.................... //0b00000000111111110000000011111111, 
.................... //0b00000000111111110000000011111111, 
.................... //0b00000000111111110000000011111111, 
.................... //0b00000000111111110000000011111111, 
.................... //0b00000000111111110000000011111111, 
.................... //0b00000000111111110000000011111111, 
.................... //0b00000000000000000000000000000000, 
.................... //0b01010101010101010101010101010101, 
.................... //0b10101010101010101010101010101010, 
.................... //0b01010101010101010101010101010101, 
.................... //0b10101010101010101010101010101010, 
.................... //0b01010101010101010101010101010101, 
.................... //0b10101010101010101010101010101010, 
.................... //0b01010101010101010101010101010101, 
.................... //0b10101010101010101010101010101010, 
.................... //0b01010101010101010101010101010101, 
.................... //0b10101010101010101010101010101010, 
.................... //0b00000000000000000000000000000000, 
.................... //0b00000000111111110000000011111111, 
.................... //0b00000000111111110000000011111111, 
.................... //0b00000000111111110000000011111111, 
.................... //0b00000000111111110000000011111111, 
.................... //0b00000000111111110000000011111111, 
.................... //0b00000000111111110000000011111111, 
.................... //0b00000000111111110000000011111111, 
.................... //0b00000000111111110000000011111111, 
.................... //0b00000000111111110000000011111111, 
.................... //0b00000000111111110000000011111111, 
.................... //0b00000000111111110000000011111111, 
.................... //0b00000000111111110000000011111111, 
.................... //0b00000000111111110000000011111111, 
.................... //0b00000000111111110000000011111111, 
.................... //0b00000000111111110000000011111111, 
.................... //0b00000000111111110000000011111111, 
.................... //0b00000000111111110000000011111111, 
.................... //0b00000000111111110000000011111111, 
.................... //0b00000000111111110000000011111111, 
.................... //0b00000000111111110000000011111111, 
.................... //0b00000000111111110000000011111111, 
.................... //0b00000000111111110000000011111111, 
.................... //0b00000000111111110000000011111111, 
.................... //0b00000000111111110000000011111111, 
.................... //0b00000000111111110000000011111111, 
.................... //0b00000000111111110000000011111111, 
.................... //0b00000000111111110000000011111111, 
.................... //0b00000000111111110000000011111111, 
.................... //0b00000000111111110000000011111111, 
.................... //0b00000000111111110000000011111111, 
.................... //0b00000000111111110000000011111111, 
.................... //0b00000000111111110000000011111111, 
.................... //0b00000000111111110000000011111111, 
.................... //0b00000000111111110000000011111111, 
.................... //0b00000000111111110000000011111111, 
.................... //0b00000000111111110000000011111111, 
.................... //0b00000000111111110000000011111111, 
.................... //0b00000000111111110000000011111111, 
.................... //0b00000000111111110000000011111111, 
.................... //0b00000000111111110000000011111111, 
.................... //0b00000000111111110000000011111111, 
.................... //0b00000000111111110000000011111111, 
.................... //0b00000000111111110000000011111111, 
.................... //0b00000000111111110000000011111111, 
.................... //0b00000000111111110000000011111111, 
.................... //0b00000000111111110000000011111111, 
.................... //0b00000000111111110000000011111111, 
.................... //0b00000000111111110000000011111111, 
.................... //0b00000000111111110000000011111111, 
.................... //0b00000000111111110000000011111111, 
.................... //0b00000000111111110000000011111111, 
.................... //0b00000000111111110000000011111111, 
.................... //0b00000000111111110000000011111111, 
.................... //0b00000000111111110000000011111111, 
.................... //0b00000000111111110000000011111111, 
.................... //0b00000000111111110000000011111111, 
.................... //0b00000000111111110000000011111111, 
.................... //0b00000000111111110000000011111111, 
.................... //0b00000000111111110000000011111111, 
.................... //0b00000000111111110000000011111111, 
.................... //0b00000000111111110000000011111111, 
.................... //0b00000000111111110000000011111111, 
.................... //0b00000000111111110000000011111111, 
.................... //0b00000000111111110000000011111111, 
.................... //0b00000000111111110000000011111111, 
.................... //0b00000000111111110000000011111111, 
.................... //0b00000000111111110000000011111111, 
.................... //0b00000000111111110000000011111111, 
.................... //0b00000000111111110000000011111111, 
.................... //0b00000000111111110000000011111111, 
.................... //0b00000000111111110000000011111111, 
.................... //0b00000000111111110000000011111111, 
.................... //0b00000000111111110000000011111111, 
.................... //0b00000000111111110000000011111111, 
.................... //0b00000000111111110000000011111111, 
.................... //0b00000000111111110000000011111111, 
.................... //0b00000000111111110000000011111111, 
.................... //0b00000000111111110000000011111111, 
.................... //0b00000000111111110000000011111111, 
.................... //0b00000000111111110000000011111111, 
.................... //0b00000000111111110000000011111111, 
.................... //0b00000000000000000000000000000000, 
.................... //0b01111100100010011100000000000000, 
.................... //0b01000000100010010010000000000000, 
.................... //0b01000000110010010001000000000000, 
.................... //0b01111000101010010001000000000000, 
.................... //0b01000000100110010001000000000000, 
.................... //0b01000000100010010010000000000000, 
.................... //0b01111100100010011100010000000000, 
.................... //0b00000000000000000000000000000000 
.................... //}; 
....................  
....................  
....................  
.................... #include "lm6029acw.c"//OtBbNLCDW[ 
.................... /***************************************************************************************** 
.................... OtBbNLCDW[(TOPWAY LM6029acw)pCu 2016/4/1 
....................  
....................  
.................... ZEATEC co.,ltd.  
....................  
.................... p 
.................... ]EfgpBCugpsAe 
.................... CB 
....................  
.................... gp@ 
.................... lcd_ini()X^[gAbvAprLIi0.1secPjsB 
.................... tHgf[^font_data.cCLBC[Wf[^A 
.................... image_data.cf[^CBPoCgPf[^ NlLCD_Image 
.................... B 
....................  
.................... PoCgPrbg}bvf[^	lcd_bitmap8(); 
.................... SoCgPrbg}bvf[^	lcd_bitmap32(); 
.................... eLXgsweLXgMB 
.................... lcd_start(0); 
.................... printf(lcd_char,"///////////////////// "); 
.................... lcd_start(1); 
.................... printf(lcd_char,"/  ZEATEC co.,ltd.  / "); 
.................... lcd_start(2); 
.................... printf(lcd_char,"/             / "); 
.................... lcd_start(3); 
.................... printf(lcd_char,"/                   / "); 
.................... lcd_start(4); 
.................... printf(lcd_char,"/AN0=%04lumV , RA1=%u / ",analog_value,port1_ra1); 
.................... lcd_start(5); 
.................... printf(lcd_char,"/TOPWEY LM6029ACW   / "); 
.................... lcd_start(6); 
.................... printf(lcd_char,"/Dot128x64,Text21x8 / "); 
.................... lcd_start(7); 
.................... printf(lcd_char,"///////////////////// "); 
....................  
.................... @ 
.................... RE0 = DB0 
.................... RE1 = DB1 
.................... RE2 = DB2 
.................... RE3 = DB3 
.................... RE4 = DB4 
.................... RE5 = DB5 
.................... RE6 = DB6 
.................... RE7 = DB7 
.................... RF0 = /WR 
.................... RF1 = RS 
.................... RF2 = /RES 
....................  
.................... LOzLCDW[n[lXVDDVSSB 
.................... /CS1 = Vss 
.................... /RD = VDD 
.................... BLA = Vdd 
....................  
.................... *****************************************************************************************/ 
....................  
.................... #define _WR PIN_C0 
.................... #define RS PIN_C1 
.................... #define _RES PIN_C2 
.................... #define BLA PIN_C5 
....................  
.................... int contrast_lavel = 0x16; 
.................... void lcd_start(int row); 
.................... void lcd_char(char c); 
....................  
.................... //LCDR}hM 
.................... void lcd_cmd(int cmd){ 
....................  
.................... 	output_bit(RS,0);// RS 0:Control data. 
*
03E50:  BCF    F8B.1
03E52:  BCF    F94.1
.................... 	output_d(cmd);// DB0-7 
03E54:  CLRF   F95
03E56:  MOVFF  44E,F8C
.................... 	output_bit(_WR,!1);// /WR 0:Write enable input active. 
03E5A:  BCF    F8B.0
03E5C:  BCF    F94.0
.................... 	//delay_us(1);// 
.................... 	output_bit(_WR,!0);// /WR 0:Write enable input active. 
03E5E:  BSF    F8B.0
03E60:  BCF    F94.0
.................... } 
03E62:  RETURN 0
....................  
.................... //LCDf[^M 
.................... void lcd_data(int cmd){ 
....................  
.................... 	output_bit(RS,1);// RS 1:Display data. 
*
06D6C:  BSF    F8B.1
06D6E:  BCF    F94.1
.................... 	output_d(cmd);// DB0-7 
06D70:  CLRF   F95
06D72:  MOVFF  455,F8C
.................... 	output_bit(_WR,!1);// /WR 0:Write enable input active. 
06D76:  BCF    F8B.0
06D78:  BCF    F94.0
.................... 	//delay_us(1);// 
.................... 	output_bit(_WR,!0);// /WR 0:Write enable input active. 
06D7A:  BSF    F8B.0
06D7C:  BCF    F94.0
.................... } 
06D7E:  RETURN 0
....................  
.................... //LCD 
.................... void lcd_ini(){ 
....................  
.................... 	//l 
.................... 	output_bit(_RES,!0);// /RES 0:stop. 
*
03E64:  BSF    F8B.2
03E66:  BCF    F94.2
.................... 	output_bit(RS,1);// RS 1:Display data. 0:Control data. 
03E68:  BSF    F8B.1
03E6A:  BCF    F94.1
.................... 	output_bit(_WR,!0);// /WR 0:Write enable input active. 
03E6C:  BSF    F8B.0
03E6E:  BCF    F94.0
....................  
.................... 	//hardware reset LCD module 
.................... 	output_bit(_RES,1);// /RES SET 
03E70:  BSF    F8B.2
03E72:  BCF    F94.2
.................... 	output_bit(_RES,0);// /RES RESET 
03E74:  BCF    F8B.2
03E76:  BCF    F94.2
.................... 	delay_ms(5); 
03E78:  MOVLW  05
03E7A:  MOVLB  4
03E7C:  MOVWF  x46
03E7E:  MOVLB  0
03E80:  RCALL  3E26
.................... 	output_bit(_RES,1);// /RES SET 
03E82:  BSF    F8B.2
03E84:  BCF    F94.2
.................... 	delay_us(3); 
03E86:  MOVLW  0F
03E88:  MOVWF  00
03E8A:  DECFSZ 00,F
03E8C:  BRA    3E8A
03E8E:  BRA    3E90
.................... 	 
.................... 	//contrast_lavel = 0x20;//Default Contrast Level 
....................  
.................... 	lcd_cmd(0xaf);//1.Display ON 
03E90:  MOVLW  AF
03E92:  MOVLB  4
03E94:  MOVWF  x4E
03E96:  MOVLB  0
03E98:  RCALL  3E50
.................... 	lcd_cmd(0x40);//2.Set display Start line=0 
03E9A:  MOVLW  40
03E9C:  MOVLB  4
03E9E:  MOVWF  x4E
03EA0:  MOVLB  0
03EA2:  RCALL  3E50
.................... 	lcd_cmd(0xa0);//3.ADC = 0:Normal 1:Reverse 
03EA4:  MOVLW  A0
03EA6:  MOVLB  4
03EA8:  MOVWF  x4E
03EAA:  MOVLB  0
03EAC:  RCALL  3E50
.................... 	lcd_cmd(0xa6);//4.Normal display 
03EAE:  MOVLW  A6
03EB0:  MOVLB  4
03EB2:  MOVWF  x4E
03EB4:  MOVLB  0
03EB6:  RCALL  3E50
.................... 	lcd_cmd(0xa4);//5.Disible display all point 
03EB8:  MOVLW  A4
03EBA:  MOVLB  4
03EBC:  MOVWF  x4E
03EBE:  MOVLB  0
03EC0:  RCALL  3E50
.................... 	lcd_cmd(0xa2);//6.Bais = 0xa2:1/9 0xa3:1/7 
03EC2:  MOVLW  A2
03EC4:  MOVLB  4
03EC6:  MOVWF  x4E
03EC8:  MOVLB  0
03ECA:  RCALL  3E50
.................... 	lcd_cmd(0xc8);//7.SHL Select 0xc8:Flipped in y direction 0xc0:Normal display 
03ECC:  MOVLW  C8
03ECE:  MOVLB  4
03ED0:  MOVWF  x4E
03ED2:  MOVLB  0
03ED4:  RCALL  3E50
.................... 	lcd_cmd(0x2f);//8.Power control = all on 
03ED6:  MOVLW  2F
03ED8:  MOVLB  4
03EDA:  MOVWF  x4E
03EDC:  MOVLB  0
03EDE:  RCALL  3E50
.................... 	 
.................... 	lcd_cmd(0x25);//9.RA/RB setting 
03EE0:  MOVLW  25
03EE2:  MOVLB  4
03EE4:  MOVWF  x4E
03EE6:  MOVLB  0
03EE8:  RCALL  3E50
.................... 	//lcd_cmd(0xf8);//Booster Rabit = 4x 
.................... 	//lcd_cmd(0x00);//(tow byte command) 
.................... 	lcd_cmd(0x81);//10.E-Vol setting 
03EEA:  MOVLW  81
03EEC:  MOVLB  4
03EEE:  MOVWF  x4E
03EF0:  MOVLB  0
03EF2:  RCALL  3E50
.................... 	lcd_cmd(contrast_lavel);//11.(tow byte command) 
03EF4:  MOVFF  43C,44E
03EF8:  RCALL  3E50
....................  
.................... } 
03EFA:  GOTO   4144 (RETURN)
....................  
.................... void lcd_start(int row){ 
.................... 	lcd_cmd(0xb0+row);//select page 0-3 
*
06D44:  MOVLW  B0
06D46:  MOVLB  4
06D48:  ADDWF  x47,W
06D4A:  MOVWF  x48
06D4C:  MOVWF  x4E
06D4E:  MOVLB  0
06D50:  CALL   3E50
.................... 	lcd_cmd(0x10);//start form colum 4 
06D54:  MOVLW  10
06D56:  MOVLB  4
06D58:  MOVWF  x4E
06D5A:  MOVLB  0
06D5C:  CALL   3E50
.................... 	lcd_cmd(0x00);//(tow byte command) 
06D60:  MOVLB  4
06D62:  CLRF   x4E
06D64:  MOVLB  0
06D66:  CALL   3E50
.................... } 
06D6A:  RETURN 0
....................  
.................... void lcd_char(char c){ 
.................... 	lcd_data(font[c-0x20][0]); 
*
06D80:  MOVLW  20
06D82:  MOVLB  4
06D84:  SUBWF  x51,W
06D86:  MOVWF  x53
06D88:  CLRF   x55
06D8A:  MOVWF  x54
06D8C:  CLRF   x57
06D8E:  MOVLW  05
06D90:  MOVWF  x56
06D92:  MOVLB  0
06D94:  CALL   3A1C
06D98:  MOVFF  02,453
06D9C:  MOVFF  01,452
06DA0:  MOVFF  02,03
06DA4:  MOVLB  4
06DA6:  MOVF   01,W
06DA8:  MOVFF  02,FF7
06DAC:  MOVLB  0
06DAE:  CALL   1EE4
06DB2:  MOVLB  4
06DB4:  MOVWF  x54
06DB6:  MOVWF  x55
06DB8:  MOVLB  0
06DBA:  RCALL  6D6C
.................... 	lcd_data(font[c-0x20][1]); 
06DBC:  MOVLW  20
06DBE:  MOVLB  4
06DC0:  SUBWF  x51,W
06DC2:  MOVWF  x53
06DC4:  CLRF   x55
06DC6:  MOVWF  x54
06DC8:  CLRF   x57
06DCA:  MOVLW  05
06DCC:  MOVWF  x56
06DCE:  MOVLB  0
06DD0:  CALL   3A1C
06DD4:  MOVFF  02,453
06DD8:  MOVFF  01,452
06DDC:  MOVLW  01
06DDE:  MOVLB  4
06DE0:  ADDWF  01,W
06DE2:  MOVWF  01
06DE4:  MOVLW  00
06DE6:  ADDWFC 02,W
06DE8:  MOVWF  03
06DEA:  MOVF   01,W
06DEC:  MOVFF  03,FF7
06DF0:  MOVLB  0
06DF2:  CALL   1EE4
06DF6:  MOVLB  4
06DF8:  MOVWF  x52
06DFA:  MOVWF  x55
06DFC:  MOVLB  0
06DFE:  RCALL  6D6C
.................... 	lcd_data(font[c-0x20][2]); 
06E00:  MOVLW  20
06E02:  MOVLB  4
06E04:  SUBWF  x51,W
06E06:  MOVWF  x53
06E08:  CLRF   x55
06E0A:  MOVWF  x54
06E0C:  CLRF   x57
06E0E:  MOVLW  05
06E10:  MOVWF  x56
06E12:  MOVLB  0
06E14:  CALL   3A1C
06E18:  MOVFF  02,453
06E1C:  MOVFF  01,452
06E20:  MOVLW  02
06E22:  MOVLB  4
06E24:  ADDWF  01,W
06E26:  MOVWF  01
06E28:  MOVLW  00
06E2A:  ADDWFC 02,W
06E2C:  MOVWF  03
06E2E:  MOVF   01,W
06E30:  MOVFF  03,FF7
06E34:  MOVLB  0
06E36:  CALL   1EE4
06E3A:  MOVLB  4
06E3C:  MOVWF  x52
06E3E:  MOVWF  x55
06E40:  MOVLB  0
06E42:  RCALL  6D6C
.................... 	lcd_data(font[c-0x20][3]); 
06E44:  MOVLW  20
06E46:  MOVLB  4
06E48:  SUBWF  x51,W
06E4A:  MOVWF  x53
06E4C:  CLRF   x55
06E4E:  MOVWF  x54
06E50:  CLRF   x57
06E52:  MOVLW  05
06E54:  MOVWF  x56
06E56:  MOVLB  0
06E58:  CALL   3A1C
06E5C:  MOVFF  02,453
06E60:  MOVFF  01,452
06E64:  MOVLW  03
06E66:  MOVLB  4
06E68:  ADDWF  01,W
06E6A:  MOVWF  01
06E6C:  MOVLW  00
06E6E:  ADDWFC 02,W
06E70:  MOVWF  03
06E72:  MOVF   01,W
06E74:  MOVFF  03,FF7
06E78:  MOVLB  0
06E7A:  CALL   1EE4
06E7E:  MOVLB  4
06E80:  MOVWF  x52
06E82:  MOVWF  x55
06E84:  MOVLB  0
06E86:  RCALL  6D6C
.................... 	lcd_data(font[c-0x20][4]); 
06E88:  MOVLW  20
06E8A:  MOVLB  4
06E8C:  SUBWF  x51,W
06E8E:  MOVWF  x53
06E90:  CLRF   x55
06E92:  MOVWF  x54
06E94:  CLRF   x57
06E96:  MOVLW  05
06E98:  MOVWF  x56
06E9A:  MOVLB  0
06E9C:  CALL   3A1C
06EA0:  MOVFF  02,453
06EA4:  MOVFF  01,452
06EA8:  MOVLW  04
06EAA:  MOVLB  4
06EAC:  ADDWF  01,W
06EAE:  MOVWF  01
06EB0:  MOVLW  00
06EB2:  ADDWFC 02,W
06EB4:  MOVWF  03
06EB6:  MOVF   01,W
06EB8:  MOVFF  03,FF7
06EBC:  MOVLB  0
06EBE:  CALL   1EE4
06EC2:  MOVLB  4
06EC4:  MOVWF  x52
06EC6:  MOVWF  x55
06EC8:  MOVLB  0
06ECA:  RCALL  6D6C
.................... 	lcd_data(0x00); 
06ECC:  MOVLB  4
06ECE:  CLRF   x55
06ED0:  MOVLB  0
06ED2:  RCALL  6D6C
.................... } 
06ED4:  RETURN 0
....................  
.................... //\f[^M 
.................... void lcd_bitmap8(){ 
....................  
.................... 	int tmp_data; 
.................... 	long i,j; 
....................  
.................... 	for(i=0;i<8;i++){ 
*
074E6:  MOVLB  4
074E8:  CLRF   x49
074EA:  CLRF   x48
074EC:  MOVF   x49,F
074EE:  BNZ   7588
074F0:  MOVF   x48,W
074F2:  SUBLW  07
074F4:  BNC   7588
.................... 		lcd_cmd(0xb0 | i);//select page 0-7 
074F6:  MOVF   x48,W
074F8:  IORLW  B0
074FA:  MOVWF  x4C
074FC:  MOVFF  449,44D
07500:  MOVWF  x4E
07502:  MOVLB  0
07504:  CALL   3E50
.................... 		lcd_cmd(0x10);//start form colum 4 
07508:  MOVLW  10
0750A:  MOVLB  4
0750C:  MOVWF  x4E
0750E:  MOVLB  0
07510:  CALL   3E50
.................... 		lcd_cmd(0x00);//(tow byte command) 
07514:  MOVLB  4
07516:  CLRF   x4E
07518:  MOVLB  0
0751A:  CALL   3E50
.................... 		for(j=0;j<128;j++){ 
0751E:  MOVLB  4
07520:  CLRF   x4B
07522:  CLRF   x4A
07524:  MOVF   x4B,F
07526:  BNZ   7580
07528:  MOVF   x4A,W
0752A:  SUBLW  7F
0752C:  BNC   7580
.................... 			tmp_data = lcd_image8[(i*128)+j]; 
0752E:  RLCF   x48,W
07530:  MOVWF  x4C
07532:  RLCF   x49,W
07534:  MOVWF  x4D
07536:  RLCF   x4C,F
07538:  RLCF   x4D,F
0753A:  RLCF   x4C,F
0753C:  RLCF   x4D,F
0753E:  RLCF   x4C,F
07540:  RLCF   x4D,F
07542:  RLCF   x4C,F
07544:  RLCF   x4D,F
07546:  RLCF   x4C,F
07548:  RLCF   x4D,F
0754A:  RLCF   x4C,F
0754C:  RLCF   x4D,F
0754E:  MOVLW  80
07550:  ANDWF  x4C,F
07552:  MOVF   x4A,W
07554:  ADDWF  x4C,F
07556:  MOVF   x4B,W
07558:  ADDWFC x4D,F
0755A:  MOVFF  44D,03
0755E:  MOVF   x4C,W
07560:  MOVFF  44D,FF7
07564:  MOVLB  0
07566:  CALL   22B2
0756A:  MOVFF  FE8,447
.................... 			lcd_data(tmp_data); 
0756E:  MOVFF  447,455
07572:  CALL   6D6C
.................... 		} 
07576:  MOVLB  4
07578:  INCF   x4A,F
0757A:  BTFSC  FD8.2
0757C:  INCF   x4B,F
0757E:  BRA    7524
.................... 	} 
07580:  INCF   x48,F
07582:  BTFSC  FD8.2
07584:  INCF   x49,F
07586:  BRA    74EC
.................... } 
07588:  MOVLB  0
0758A:  GOTO   7A4C (RETURN)
.................... void lcd_bla(int on){ 
.................... 	output_bit(BLA,on);// 
.................... } 
....................  
....................  
....................  
....................  
....................  
....................  
....................  
.................... //LCD 
.................... void lcd_process(){ 
.................... 	int cursor[10] = {0x20,0x20,0x20,0x20,0x20,0x20,0x20,0x20,0x20}; 
0758E:  MOVLW  20
07590:  MOVLB  4
07592:  MOVWF  x3D
07594:  MOVWF  x3E
07596:  MOVWF  x3F
07598:  MOVWF  x40
0759A:  MOVWF  x41
0759C:  MOVWF  x42
0759E:  MOVWF  x43
075A0:  MOVWF  x44
075A2:  MOVWF  x45
075A4:  CLRF   x46
....................  
.................... 	//OtBbNLCD(lm6029acw) 
.................... 	//teLXg4.438msec(ini),3.932msec(XV) 
.................... 	if(mode == 300){ 
075A6:  MOVLB  1
075A8:  MOVF   x11,W
075AA:  SUBLW  2C
075AC:  BTFSS  FD8.2
075AE:  BRA    7A3E
075B0:  DECFSZ x12,W
075B2:  BRA    7A3E
.................... 		lcd_start(0);	printf(lcd_char,"MODE:Uart        %04lu%c",mode,life_char[life_index]); 
075B4:  MOVLB  4
075B6:  CLRF   x47
075B8:  MOVLB  0
075BA:  CALL   6D44
075BE:  CLRF   03
075C0:  MOVLB  1
075C2:  MOVF   x21,W
075C4:  ADDLW  22
075C6:  MOVWF  FE9
075C8:  MOVLW  01
075CA:  ADDWFC 03,W
075CC:  MOVWF  FEA
075CE:  MOVFF  FEF,447
075D2:  MOVLW  C0
075D4:  MOVWF  FF6
075D6:  MOVLW  26
075D8:  MOVWF  FF7
075DA:  MOVLW  11
075DC:  MOVLB  4
075DE:  MOVWF  x48
075E0:  MOVLB  0
075E2:  RCALL  6ED6
075E4:  MOVLW  09
075E6:  MOVWF  FE9
075E8:  MOVFF  112,449
075EC:  MOVFF  111,448
075F0:  RCALL  6EFE
075F2:  MOVFF  447,451
075F6:  CALL   6D80
.................... 		lcd_start(1);	printf(lcd_char,"----------------------"); 
075FA:  MOVLW  01
075FC:  MOVLB  4
075FE:  MOVWF  x47
07600:  MOVLB  0
07602:  CALL   6D44
07606:  MOVLW  DA
07608:  MOVWF  FF6
0760A:  MOVLW  26
0760C:  MOVWF  FF7
0760E:  RCALL  6FBA
.................... 		lcd_start(2);	printf(lcd_char,"uart1 value=%03u      -",get_command_value_c1); 
07610:  MOVLW  02
07612:  MOVLB  4
07614:  MOVWF  x47
07616:  MOVLB  0
07618:  CALL   6D44
0761C:  MOVLW  F2
0761E:  MOVWF  FF6
07620:  MOVLW  26
07622:  MOVWF  FF7
07624:  MOVLW  0C
07626:  MOVLB  4
07628:  MOVWF  x48
0762A:  MOVLB  0
0762C:  RCALL  6ED6
0762E:  MOVFF  66,447
07632:  MOVLW  03
07634:  MOVLB  4
07636:  MOVWF  x48
07638:  MOVLB  0
0763A:  RCALL  7006
0763C:  MOVLW  02
0763E:  MOVWF  FF6
07640:  MOVLW  27
07642:  MOVWF  FF7
07644:  MOVLW  07
07646:  MOVLB  4
07648:  MOVWF  x48
0764A:  MOVLB  0
0764C:  RCALL  6ED6
.................... 		lcd_start(3);	printf(lcd_char,"%01c%01c%01c%01c%01c%01c%01c%01c%01c%01c%01c%01c%01c%01c%01c%01c%01c%01c%01c%01c%01c-", 
0764E:  MOVLW  03
07650:  MOVLB  4
07652:  MOVWF  x47
07654:  MOVLB  0
07656:  CALL   6D44
.................... 			get_command_c1[0],get_command_c1[1],get_command_c1[2],get_command_c1[3],get_command_c1[4], 
.................... 			get_command_c1[5],get_command_c1[6],get_command_c1[7],get_command_c1[8],get_command_c1[9], 
.................... 			get_command_c1[10],get_command_c1[11],get_command_c1[12],get_command_c1[13],get_command_c1[14], 
.................... 			get_command_c1[15],get_command_c1[16],get_command_c1[17],get_command_c1[18],get_command_c1[19],get_command_c1[20]); 
0765A:  MOVFF  67,451
0765E:  CALL   6D80
07662:  MOVFF  68,451
07666:  CALL   6D80
0766A:  MOVFF  69,451
0766E:  CALL   6D80
07672:  MOVFF  6A,451
07676:  CALL   6D80
0767A:  MOVFF  6B,451
0767E:  CALL   6D80
07682:  MOVFF  6C,451
07686:  CALL   6D80
0768A:  MOVFF  6D,451
0768E:  CALL   6D80
07692:  MOVFF  6E,451
07696:  CALL   6D80
0769A:  MOVFF  6F,451
0769E:  CALL   6D80
076A2:  MOVFF  70,451
076A6:  CALL   6D80
076AA:  MOVFF  71,451
076AE:  CALL   6D80
076B2:  MOVFF  72,451
076B6:  CALL   6D80
076BA:  MOVFF  73,451
076BE:  CALL   6D80
076C2:  MOVFF  74,451
076C6:  CALL   6D80
076CA:  MOVFF  75,451
076CE:  CALL   6D80
076D2:  MOVFF  76,451
076D6:  CALL   6D80
076DA:  MOVFF  77,451
076DE:  CALL   6D80
076E2:  MOVFF  78,451
076E6:  CALL   6D80
076EA:  MOVFF  79,451
076EE:  CALL   6D80
076F2:  MOVFF  7A,451
076F6:  CALL   6D80
076FA:  MOVFF  7B,451
076FE:  CALL   6D80
07702:  MOVLW  2D
07704:  MOVLB  4
07706:  MOVWF  x51
07708:  MOVLB  0
0770A:  CALL   6D80
.................... 		lcd_start(4);	printf(lcd_char,"%01c%01c%01c%01c%01c%01c%01c%01c%01c%01c%01c%01c%01c%01c%01c%01c%01c%01c%01c%01c%01c-", 
0770E:  MOVLW  04
07710:  MOVLB  4
07712:  MOVWF  x47
07714:  MOVLB  0
07716:  CALL   6D44
.................... 			get_command_c1[21],get_command_c1[22],get_command_c1[23],get_command_c1[24],get_command_c1[25], 
.................... 			get_command_c1[26],get_command_c1[27],get_command_c1[28],get_command_c1[29],get_command_c1[30], 
.................... 			get_command_c1[31],get_command_c1[32],get_command_c1[33],get_command_c1[34],get_command_c1[35], 
.................... 			get_command_c1[36],get_command_c1[37],get_command_c1[38],get_command_c1[39],get_command_c1[40],get_command_c1[41]); 
0771A:  MOVFF  7C,451
0771E:  CALL   6D80
07722:  MOVFF  7D,451
07726:  CALL   6D80
0772A:  MOVFF  7E,451
0772E:  CALL   6D80
07732:  MOVFF  7F,451
07736:  CALL   6D80
0773A:  MOVFF  80,451
0773E:  CALL   6D80
07742:  MOVFF  81,451
07746:  CALL   6D80
0774A:  MOVFF  82,451
0774E:  CALL   6D80
07752:  MOVFF  83,451
07756:  CALL   6D80
0775A:  MOVFF  84,451
0775E:  CALL   6D80
07762:  MOVFF  85,451
07766:  CALL   6D80
0776A:  MOVFF  86,451
0776E:  CALL   6D80
07772:  MOVFF  87,451
07776:  CALL   6D80
0777A:  MOVFF  88,451
0777E:  CALL   6D80
07782:  MOVFF  89,451
07786:  CALL   6D80
0778A:  MOVFF  8A,451
0778E:  CALL   6D80
07792:  MOVFF  8B,451
07796:  CALL   6D80
0779A:  MOVFF  8C,451
0779E:  CALL   6D80
077A2:  MOVFF  8D,451
077A6:  CALL   6D80
077AA:  MOVFF  8E,451
077AE:  CALL   6D80
077B2:  MOVFF  8F,451
077B6:  CALL   6D80
077BA:  MOVFF  90,451
077BE:  CALL   6D80
077C2:  MOVLW  2D
077C4:  MOVLB  4
077C6:  MOVWF  x51
077C8:  MOVLB  0
077CA:  CALL   6D80
.................... 		lcd_start(5);	printf(lcd_char,"%02x,%02x,%02x,%02x,%02x,%02x,%02x -", 
077CE:  MOVLW  05
077D0:  MOVLB  4
077D2:  MOVWF  x47
077D4:  MOVLB  0
077D6:  CALL   6D44
.................... 			get_command_c1[0],get_command_c1[1],get_command_c1[2],get_command_c1[3],get_command_c1[4],get_command_c1[5],get_command_c1[6]); 
077DA:  MOVFF  67,447
077DE:  MOVLW  57
077E0:  MOVLB  4
077E2:  MOVWF  x48
077E4:  MOVLB  0
077E6:  RCALL  74A0
077E8:  MOVLW  2C
077EA:  MOVLB  4
077EC:  MOVWF  x51
077EE:  MOVLB  0
077F0:  CALL   6D80
077F4:  MOVFF  68,447
077F8:  MOVLW  57
077FA:  MOVLB  4
077FC:  MOVWF  x48
077FE:  MOVLB  0
07800:  RCALL  74A0
07802:  MOVLW  2C
07804:  MOVLB  4
07806:  MOVWF  x51
07808:  MOVLB  0
0780A:  CALL   6D80
0780E:  MOVFF  69,447
07812:  MOVLW  57
07814:  MOVLB  4
07816:  MOVWF  x48
07818:  MOVLB  0
0781A:  RCALL  74A0
0781C:  MOVLW  2C
0781E:  MOVLB  4
07820:  MOVWF  x51
07822:  MOVLB  0
07824:  CALL   6D80
07828:  MOVFF  6A,447
0782C:  MOVLW  57
0782E:  MOVLB  4
07830:  MOVWF  x48
07832:  MOVLB  0
07834:  RCALL  74A0
07836:  MOVLW  2C
07838:  MOVLB  4
0783A:  MOVWF  x51
0783C:  MOVLB  0
0783E:  CALL   6D80
07842:  MOVFF  6B,447
07846:  MOVLW  57
07848:  MOVLB  4
0784A:  MOVWF  x48
0784C:  MOVLB  0
0784E:  RCALL  74A0
07850:  MOVLW  2C
07852:  MOVLB  4
07854:  MOVWF  x51
07856:  MOVLB  0
07858:  CALL   6D80
0785C:  MOVFF  6C,447
07860:  MOVLW  57
07862:  MOVLB  4
07864:  MOVWF  x48
07866:  MOVLB  0
07868:  RCALL  74A0
0786A:  MOVLW  2C
0786C:  MOVLB  4
0786E:  MOVWF  x51
07870:  MOVLB  0
07872:  CALL   6D80
07876:  MOVFF  6D,447
0787A:  MOVLW  57
0787C:  MOVLB  4
0787E:  MOVWF  x48
07880:  MOVLB  0
07882:  RCALL  74A0
07884:  MOVLW  20
07886:  MOVLB  4
07888:  MOVWF  x51
0788A:  MOVLB  0
0788C:  CALL   6D80
07890:  MOVLW  2D
07892:  MOVLB  4
07894:  MOVWF  x51
07896:  MOVLB  0
07898:  CALL   6D80
.................... 		lcd_start(6);	printf(lcd_char,"%02x,%02x,%02x,%02x,%02x,%02x,%02x -", 
0789C:  MOVLW  06
0789E:  MOVLB  4
078A0:  MOVWF  x47
078A2:  MOVLB  0
078A4:  CALL   6D44
.................... 			get_command_c1[7],get_command_c1[8],get_command_c1[9],get_command_c1[10],get_command_c1[11],get_command_c1[12],get_command_c1[13]); 
078A8:  MOVFF  6E,447
078AC:  MOVLW  57
078AE:  MOVLB  4
078B0:  MOVWF  x48
078B2:  MOVLB  0
078B4:  RCALL  74A0
078B6:  MOVLW  2C
078B8:  MOVLB  4
078BA:  MOVWF  x51
078BC:  MOVLB  0
078BE:  CALL   6D80
078C2:  MOVFF  6F,447
078C6:  MOVLW  57
078C8:  MOVLB  4
078CA:  MOVWF  x48
078CC:  MOVLB  0
078CE:  RCALL  74A0
078D0:  MOVLW  2C
078D2:  MOVLB  4
078D4:  MOVWF  x51
078D6:  MOVLB  0
078D8:  CALL   6D80
078DC:  MOVFF  70,447
078E0:  MOVLW  57
078E2:  MOVLB  4
078E4:  MOVWF  x48
078E6:  MOVLB  0
078E8:  RCALL  74A0
078EA:  MOVLW  2C
078EC:  MOVLB  4
078EE:  MOVWF  x51
078F0:  MOVLB  0
078F2:  CALL   6D80
078F6:  MOVFF  71,447
078FA:  MOVLW  57
078FC:  MOVLB  4
078FE:  MOVWF  x48
07900:  MOVLB  0
07902:  RCALL  74A0
07904:  MOVLW  2C
07906:  MOVLB  4
07908:  MOVWF  x51
0790A:  MOVLB  0
0790C:  CALL   6D80
07910:  MOVFF  72,447
07914:  MOVLW  57
07916:  MOVLB  4
07918:  MOVWF  x48
0791A:  MOVLB  0
0791C:  RCALL  74A0
0791E:  MOVLW  2C
07920:  MOVLB  4
07922:  MOVWF  x51
07924:  MOVLB  0
07926:  CALL   6D80
0792A:  MOVFF  73,447
0792E:  MOVLW  57
07930:  MOVLB  4
07932:  MOVWF  x48
07934:  MOVLB  0
07936:  RCALL  74A0
07938:  MOVLW  2C
0793A:  MOVLB  4
0793C:  MOVWF  x51
0793E:  MOVLB  0
07940:  CALL   6D80
07944:  MOVFF  74,447
07948:  MOVLW  57
0794A:  MOVLB  4
0794C:  MOVWF  x48
0794E:  MOVLB  0
07950:  RCALL  74A0
07952:  MOVLW  20
07954:  MOVLB  4
07956:  MOVWF  x51
07958:  MOVLB  0
0795A:  CALL   6D80
0795E:  MOVLW  2D
07960:  MOVLB  4
07962:  MOVWF  x51
07964:  MOVLB  0
07966:  CALL   6D80
.................... 		lcd_start(7);	printf(lcd_char,"%02x,%02x,%02x,%02x,%02x,%02x,%02x -", 
0796A:  MOVLW  07
0796C:  MOVLB  4
0796E:  MOVWF  x47
07970:  MOVLB  0
07972:  CALL   6D44
.................... 			get_command_c1[14],get_command_c1[15],get_command_c1[16],get_command_c1[17],get_command_c1[18],get_command_c1[19],get_command_c1[20]); 
07976:  MOVFF  75,447
0797A:  MOVLW  57
0797C:  MOVLB  4
0797E:  MOVWF  x48
07980:  MOVLB  0
07982:  RCALL  74A0
07984:  MOVLW  2C
07986:  MOVLB  4
07988:  MOVWF  x51
0798A:  MOVLB  0
0798C:  CALL   6D80
07990:  MOVFF  76,447
07994:  MOVLW  57
07996:  MOVLB  4
07998:  MOVWF  x48
0799A:  MOVLB  0
0799C:  RCALL  74A0
0799E:  MOVLW  2C
079A0:  MOVLB  4
079A2:  MOVWF  x51
079A4:  MOVLB  0
079A6:  CALL   6D80
079AA:  MOVFF  77,447
079AE:  MOVLW  57
079B0:  MOVLB  4
079B2:  MOVWF  x48
079B4:  MOVLB  0
079B6:  RCALL  74A0
079B8:  MOVLW  2C
079BA:  MOVLB  4
079BC:  MOVWF  x51
079BE:  MOVLB  0
079C0:  CALL   6D80
079C4:  MOVFF  78,447
079C8:  MOVLW  57
079CA:  MOVLB  4
079CC:  MOVWF  x48
079CE:  MOVLB  0
079D0:  RCALL  74A0
079D2:  MOVLW  2C
079D4:  MOVLB  4
079D6:  MOVWF  x51
079D8:  MOVLB  0
079DA:  CALL   6D80
079DE:  MOVFF  79,447
079E2:  MOVLW  57
079E4:  MOVLB  4
079E6:  MOVWF  x48
079E8:  MOVLB  0
079EA:  RCALL  74A0
079EC:  MOVLW  2C
079EE:  MOVLB  4
079F0:  MOVWF  x51
079F2:  MOVLB  0
079F4:  CALL   6D80
079F8:  MOVFF  7A,447
079FC:  MOVLW  57
079FE:  MOVLB  4
07A00:  MOVWF  x48
07A02:  MOVLB  0
07A04:  RCALL  74A0
07A06:  MOVLW  2C
07A08:  MOVLB  4
07A0A:  MOVWF  x51
07A0C:  MOVLB  0
07A0E:  CALL   6D80
07A12:  MOVFF  7B,447
07A16:  MOVLW  57
07A18:  MOVLB  4
07A1A:  MOVWF  x48
07A1C:  MOVLB  0
07A1E:  RCALL  74A0
07A20:  MOVLW  20
07A22:  MOVLB  4
07A24:  MOVWF  x51
07A26:  MOVLB  0
07A28:  CALL   6D80
07A2C:  MOVLW  2D
07A2E:  MOVLB  4
07A30:  MOVWF  x51
07A32:  MOVLB  0
07A34:  CALL   6D80
.................... 	}else if(mode == 400){ 
07A38:  GOTO   8326
07A3C:  MOVLB  1
07A3E:  MOVF   x11,W
07A40:  SUBLW  90
07A42:  BNZ   7A52
07A44:  DECFSZ x12,W
07A46:  BRA    7A52
.................... 		//S\ 
.................... 		lcd_bitmap8(); 
07A48:  MOVLB  0
07A4A:  BRA    74E6
.................... 	}else if(mode == 600){ 
07A4C:  GOTO   8326
07A50:  MOVLB  1
07A52:  MOVF   x11,W
07A54:  SUBLW  58
07A56:  BTFSS  FD8.2
07A58:  BRA    7CDE
07A5A:  MOVF   x12,W
07A5C:  SUBLW  02
07A5E:  BTFSS  FD8.2
07A60:  BRA    7CDE
.................... 		cursor[cursor_index] = 0x3e;//> 0x2a;//* 
07A62:  MOVLW  3D
07A64:  ADDWF  x13,W
07A66:  MOVWF  FE9
07A68:  MOVLW  04
07A6A:  ADDWFC x14,W
07A6C:  MOVWF  FEA
07A6E:  MOVLW  3E
07A70:  MOVWF  FEF
.................... 		lcd_start(0);	printf(lcd_char,"MODE:Servo(OUT:A7)%03lu%c",mode,life_char[life_index]); 
07A72:  MOVLB  4
07A74:  CLRF   x47
07A76:  MOVLB  0
07A78:  CALL   6D44
07A7C:  CLRF   03
07A7E:  MOVLB  1
07A80:  MOVF   x21,W
07A82:  ADDLW  22
07A84:  MOVWF  FE9
07A86:  MOVLW  01
07A88:  ADDWFC 03,W
07A8A:  MOVWF  FEA
07A8C:  MOVFF  FEF,447
07A90:  MOVLW  0A
07A92:  MOVWF  FF6
07A94:  MOVLW  27
07A96:  MOVWF  FF7
07A98:  MOVLW  12
07A9A:  MOVLB  4
07A9C:  MOVWF  x48
07A9E:  MOVLB  0
07AA0:  CALL   6ED6
07AA4:  MOVLW  0A
07AA6:  MOVWF  FE9
07AA8:  MOVFF  112,449
07AAC:  MOVFF  111,448
07AB0:  CALL   6EFE
07AB4:  MOVFF  447,451
07AB8:  CALL   6D80
.................... 		lcd_start(1);	printf(lcd_char,"----------------------"); 
07ABC:  MOVLW  01
07ABE:  MOVLB  4
07AC0:  MOVWF  x47
07AC2:  MOVLB  0
07AC4:  CALL   6D44
07AC8:  MOVLW  24
07ACA:  MOVWF  FF6
07ACC:  MOVLW  27
07ACE:  MOVWF  FF7
07AD0:  CALL   6FBA
.................... 		lcd_start(2);	printf(lcd_char,"%01cAngle = %03u %04luus  -",cursor[1],servo_angle,servo_time); 
07AD4:  MOVLW  02
07AD6:  MOVLB  4
07AD8:  MOVWF  x47
07ADA:  MOVLB  0
07ADC:  CALL   6D44
07AE0:  MOVFF  43E,451
07AE4:  CALL   6D80
07AE8:  MOVLW  40
07AEA:  MOVWF  FF6
07AEC:  MOVLW  27
07AEE:  MOVWF  FF7
07AF0:  MOVLW  08
07AF2:  MOVLB  4
07AF4:  MOVWF  x48
07AF6:  MOVLB  0
07AF8:  CALL   6ED6
07AFC:  MOVFF  116,447
07B00:  MOVLW  03
07B02:  MOVLB  4
07B04:  MOVWF  x48
07B06:  MOVLB  0
07B08:  CALL   7006
07B0C:  MOVLW  20
07B0E:  MOVLB  4
07B10:  MOVWF  x51
07B12:  MOVLB  0
07B14:  CALL   6D80
07B18:  MOVLW  09
07B1A:  MOVWF  FE9
07B1C:  MOVFF  11D,449
07B20:  MOVFF  11C,448
07B24:  CALL   6EFE
07B28:  MOVLW  52
07B2A:  MOVWF  FF6
07B2C:  MOVLW  27
07B2E:  MOVWF  FF7
07B30:  MOVLW  05
07B32:  MOVLB  4
07B34:  MOVWF  x48
07B36:  MOVLB  0
07B38:  CALL   6ED6
.................... 		lcd_start(3);	printf(lcd_char,"%01cTargetAngle = %03u   -",cursor[2],servo_target_angle); 
07B3C:  MOVLW  03
07B3E:  MOVLB  4
07B40:  MOVWF  x47
07B42:  MOVLB  0
07B44:  CALL   6D44
07B48:  MOVFF  43F,451
07B4C:  CALL   6D80
07B50:  MOVLW  5C
07B52:  MOVWF  FF6
07B54:  MOVLW  27
07B56:  MOVWF  FF7
07B58:  MOVLW  0E
07B5A:  MOVLB  4
07B5C:  MOVWF  x48
07B5E:  MOVLB  0
07B60:  CALL   6ED6
07B64:  MOVFF  117,447
07B68:  MOVLW  03
07B6A:  MOVLB  4
07B6C:  MOVWF  x48
07B6E:  MOVLB  0
07B70:  CALL   7006
07B74:  MOVLW  6E
07B76:  MOVWF  FF6
07B78:  MOVLW  27
07B7A:  MOVWF  FF7
07B7C:  MOVLW  04
07B7E:  MOVLB  4
07B80:  MOVWF  x48
07B82:  MOVLB  0
07B84:  CALL   6ED6
.................... 		lcd_start(4);	printf(lcd_char,"%01cStepAngle = %03u     -",cursor[3],servo_step_angle); 
07B88:  MOVLW  04
07B8A:  MOVLB  4
07B8C:  MOVWF  x47
07B8E:  MOVLB  0
07B90:  CALL   6D44
07B94:  MOVFF  440,451
07B98:  CALL   6D80
07B9C:  MOVLW  78
07B9E:  MOVWF  FF6
07BA0:  MOVLW  27
07BA2:  MOVWF  FF7
07BA4:  MOVLW  0C
07BA6:  MOVLB  4
07BA8:  MOVWF  x48
07BAA:  MOVLB  0
07BAC:  CALL   6ED6
07BB0:  MOVFF  118,447
07BB4:  MOVLW  03
07BB6:  MOVLB  4
07BB8:  MOVWF  x48
07BBA:  MOVLB  0
07BBC:  CALL   7006
07BC0:  MOVLW  88
07BC2:  MOVWF  FF6
07BC4:  MOVLW  27
07BC6:  MOVWF  FF7
07BC8:  MOVLW  06
07BCA:  MOVLB  4
07BCC:  MOVWF  x48
07BCE:  MOVLB  0
07BD0:  CALL   6ED6
.................... 		lcd_start(5);	printf(lcd_char,"%01cTurn = ",cursor[4]); 
07BD4:  MOVLW  05
07BD6:  MOVLB  4
07BD8:  MOVWF  x47
07BDA:  MOVLB  0
07BDC:  CALL   6D44
07BE0:  MOVFF  441,451
07BE4:  CALL   6D80
07BE8:  MOVLW  94
07BEA:  MOVWF  FF6
07BEC:  MOVLW  27
07BEE:  MOVWF  FF7
07BF0:  MOVLW  07
07BF2:  MOVLB  4
07BF4:  MOVWF  x48
07BF6:  MOVLB  0
07BF8:  CALL   6ED6
.................... 		if(servo_turn == 0){	 
07BFC:  MOVLB  1
07BFE:  MOVF   x19,F
07C00:  BNZ   7C64
.................... 			printf(lcd_char,"OFF          -"); 
07C02:  MOVLW  9C
07C04:  MOVWF  FF6
07C06:  MOVLW  27
07C08:  MOVWF  FF7
07C0A:  MOVLB  0
07C0C:  CALL   6FBA
.................... 			lcd_start(6); 
07C10:  MOVLW  06
07C12:  MOVLB  4
07C14:  MOVWF  x47
07C16:  MOVLB  0
07C18:  CALL   6D44
.................... 			if(servo_position == 0){printf(lcd_char,"%01c [Origin] Target    -",cursor[5]); 
07C1C:  MOVLB  1
07C1E:  MOVF   x1A,F
07C20:  BNZ   7C42
07C22:  MOVFF  442,451
07C26:  MOVLB  0
07C28:  CALL   6D80
07C2C:  MOVLW  B0
07C2E:  MOVWF  FF6
07C30:  MOVLW  27
07C32:  MOVWF  FF7
07C34:  MOVLW  15
07C36:  MOVLB  4
07C38:  MOVWF  x48
07C3A:  MOVLB  0
07C3C:  CALL   6ED6
.................... 			}else{					printf(lcd_char,"%01c  Origin [Target]   -",cursor[5]);} 
07C40:  BRA    7C60
07C42:  MOVFF  442,451
07C46:  MOVLB  0
07C48:  CALL   6D80
07C4C:  MOVLW  CA
07C4E:  MOVWF  FF6
07C50:  MOVLW  27
07C52:  MOVWF  FF7
07C54:  MOVLW  15
07C56:  MOVLB  4
07C58:  MOVWF  x48
07C5A:  MOVLB  0
07C5C:  CALL   6ED6
.................... 		}else{ 
07C60:  BRA    7CC2
07C62:  MOVLB  1
.................... 			printf(lcd_char,"ON           -"); 
07C64:  MOVLW  E0
07C66:  MOVWF  FF6
07C68:  MOVLW  27
07C6A:  MOVWF  FF7
07C6C:  MOVLB  0
07C6E:  CALL   6FBA
.................... 			lcd_start(6); 
07C72:  MOVLW  06
07C74:  MOVLB  4
07C76:  MOVWF  x47
07C78:  MOVLB  0
07C7A:  CALL   6D44
.................... 			if(servo_start == 0){	printf(lcd_char,"%01c [Stop] Start       -",cursor[5]); 
07C7E:  MOVLB  1
07C80:  MOVF   x1B,F
07C82:  BNZ   7CA4
07C84:  MOVFF  442,451
07C88:  MOVLB  0
07C8A:  CALL   6D80
07C8E:  MOVLW  F4
07C90:  MOVWF  FF6
07C92:  MOVLW  27
07C94:  MOVWF  FF7
07C96:  MOVLW  15
07C98:  MOVLB  4
07C9A:  MOVWF  x48
07C9C:  MOVLB  0
07C9E:  CALL   6ED6
.................... 			}else{					printf(lcd_char,"%01c  Stop [Start]      -",cursor[5]);} 
07CA2:  BRA    7CC2
07CA4:  MOVFF  442,451
07CA8:  MOVLB  0
07CAA:  CALL   6D80
07CAE:  MOVLW  0E
07CB0:  MOVWF  FF6
07CB2:  MOVLW  28
07CB4:  MOVWF  FF7
07CB6:  MOVLW  15
07CB8:  MOVLB  4
07CBA:  MOVWF  x48
07CBC:  MOVLB  0
07CBE:  CALL   6ED6
.................... 		} 
.................... 		lcd_start(7);	printf(lcd_char,"<Enter> to next.      -"); 
07CC2:  MOVLW  07
07CC4:  MOVLB  4
07CC6:  MOVWF  x47
07CC8:  MOVLB  0
07CCA:  CALL   6D44
07CCE:  MOVLW  24
07CD0:  MOVWF  FF6
07CD2:  MOVLW  28
07CD4:  MOVWF  FF7
07CD6:  CALL   6FBA
.................... 	}else if(mode == 800){ 
07CDA:  BRA    8326
07CDC:  MOVLB  1
07CDE:  MOVF   x11,W
07CE0:  SUBLW  20
07CE2:  BTFSS  FD8.2
07CE4:  BRA    7DE2
07CE6:  MOVF   x12,W
07CE8:  SUBLW  03
07CEA:  BNZ   7DE2
.................... 		lcd_start(0);	printf(lcd_char,"MODE:Temp&RH     %04lu%c",mode,life_char[life_index]); 
07CEC:  MOVLB  4
07CEE:  CLRF   x47
07CF0:  MOVLB  0
07CF2:  CALL   6D44
07CF6:  CLRF   03
07CF8:  MOVLB  1
07CFA:  MOVF   x21,W
07CFC:  ADDLW  22
07CFE:  MOVWF  FE9
07D00:  MOVLW  01
07D02:  ADDWFC 03,W
07D04:  MOVWF  FEA
07D06:  MOVFF  FEF,447
07D0A:  MOVLW  3C
07D0C:  MOVWF  FF6
07D0E:  MOVLW  28
07D10:  MOVWF  FF7
07D12:  MOVLW  11
07D14:  MOVLB  4
07D16:  MOVWF  x48
07D18:  MOVLB  0
07D1A:  CALL   6ED6
07D1E:  MOVLW  09
07D20:  MOVWF  FE9
07D22:  MOVFF  112,449
07D26:  MOVFF  111,448
07D2A:  CALL   6EFE
07D2E:  MOVFF  447,451
07D32:  CALL   6D80
.................... 		lcd_start(1);	printf(lcd_char,"----------------------"); 
07D36:  MOVLW  01
07D38:  MOVLB  4
07D3A:  MOVWF  x47
07D3C:  MOVLB  0
07D3E:  CALL   6D44
07D42:  MOVLW  56
07D44:  MOVWF  FF6
07D46:  MOVLW  28
07D48:  MOVWF  FF7
07D4A:  CALL   6FBA
.................... 		lcd_start(2);	printf(lcd_char," BME280     AM2320   -"); 
07D4E:  MOVLW  02
07D50:  MOVLB  4
07D52:  MOVWF  x47
07D54:  MOVLB  0
07D56:  CALL   6D44
07D5A:  MOVLW  6E
07D5C:  MOVWF  FF6
07D5E:  MOVLW  28
07D60:  MOVWF  FF7
07D62:  CALL   6FBA
.................... 		lcd_start(3);	printf(lcd_char," AM2322              -"); 
07D66:  MOVLW  03
07D68:  MOVLB  4
07D6A:  MOVWF  x47
07D6C:  MOVLB  0
07D6E:  CALL   6D44
07D72:  MOVLW  86
07D74:  MOVWF  FF6
07D76:  MOVLW  28
07D78:  MOVWF  FF7
07D7A:  CALL   6FBA
.................... 		lcd_start(4);	printf(lcd_char,"                     -"); 
07D7E:  MOVLW  04
07D80:  MOVLB  4
07D82:  MOVWF  x47
07D84:  MOVLB  0
07D86:  CALL   6D44
07D8A:  MOVLW  9E
07D8C:  MOVWF  FF6
07D8E:  MOVLW  28
07D90:  MOVWF  FF7
07D92:  CALL   6FBA
.................... 		lcd_start(5);	printf(lcd_char,"                     -"); 
07D96:  MOVLW  05
07D98:  MOVLB  4
07D9A:  MOVWF  x47
07D9C:  MOVLB  0
07D9E:  CALL   6D44
07DA2:  MOVLW  B6
07DA4:  MOVWF  FF6
07DA6:  MOVLW  28
07DA8:  MOVWF  FF7
07DAA:  CALL   6FBA
.................... 		lcd_start(6);	printf(lcd_char,"   Sorry.            -"); 
07DAE:  MOVLW  06
07DB0:  MOVLB  4
07DB2:  MOVWF  x47
07DB4:  MOVLB  0
07DB6:  CALL   6D44
07DBA:  MOVLW  CE
07DBC:  MOVWF  FF6
07DBE:  MOVLW  28
07DC0:  MOVWF  FF7
07DC2:  CALL   6FBA
.................... 		lcd_start(7);	printf(lcd_char,"   in preparation.   -"); 
07DC6:  MOVLW  07
07DC8:  MOVLB  4
07DCA:  MOVWF  x47
07DCC:  MOVLB  0
07DCE:  CALL   6D44
07DD2:  MOVLW  E6
07DD4:  MOVWF  FF6
07DD6:  MOVLW  28
07DD8:  MOVWF  FF7
07DDA:  CALL   6FBA
.................... 	}else if(mode == 900){ 
07DDE:  BRA    8326
07DE0:  MOVLB  1
07DE2:  MOVF   x11,W
07DE4:  SUBLW  84
07DE6:  BTFSS  FD8.2
07DE8:  BRA    7EE6
07DEA:  MOVF   x12,W
07DEC:  SUBLW  03
07DEE:  BNZ   7EE6
.................... 		lcd_start(0);	printf(lcd_char,"MODE:IR          %04lu%c",mode,life_char[life_index]); 
07DF0:  MOVLB  4
07DF2:  CLRF   x47
07DF4:  MOVLB  0
07DF6:  CALL   6D44
07DFA:  CLRF   03
07DFC:  MOVLB  1
07DFE:  MOVF   x21,W
07E00:  ADDLW  22
07E02:  MOVWF  FE9
07E04:  MOVLW  01
07E06:  ADDWFC 03,W
07E08:  MOVWF  FEA
07E0A:  MOVFF  FEF,447
07E0E:  MOVLW  FE
07E10:  MOVWF  FF6
07E12:  MOVLW  28
07E14:  MOVWF  FF7
07E16:  MOVLW  11
07E18:  MOVLB  4
07E1A:  MOVWF  x48
07E1C:  MOVLB  0
07E1E:  CALL   6ED6
07E22:  MOVLW  09
07E24:  MOVWF  FE9
07E26:  MOVFF  112,449
07E2A:  MOVFF  111,448
07E2E:  CALL   6EFE
07E32:  MOVFF  447,451
07E36:  CALL   6D80
.................... 		lcd_start(1);	printf(lcd_char,"----------------------"); 
07E3A:  MOVLW  01
07E3C:  MOVLB  4
07E3E:  MOVWF  x47
07E40:  MOVLB  0
07E42:  CALL   6D44
07E46:  MOVLW  18
07E48:  MOVWF  FF6
07E4A:  MOVLW  29
07E4C:  MOVWF  FF7
07E4E:  CALL   6FBA
.................... 		lcd_start(2);	printf(lcd_char,"                     -"); 
07E52:  MOVLW  02
07E54:  MOVLB  4
07E56:  MOVWF  x47
07E58:  MOVLB  0
07E5A:  CALL   6D44
07E5E:  MOVLW  30
07E60:  MOVWF  FF6
07E62:  MOVLW  29
07E64:  MOVWF  FF7
07E66:  CALL   6FBA
.................... 		lcd_start(3);	printf(lcd_char,"                     -"); 
07E6A:  MOVLW  03
07E6C:  MOVLB  4
07E6E:  MOVWF  x47
07E70:  MOVLB  0
07E72:  CALL   6D44
07E76:  MOVLW  48
07E78:  MOVWF  FF6
07E7A:  MOVLW  29
07E7C:  MOVWF  FF7
07E7E:  CALL   6FBA
.................... 		lcd_start(4);	printf(lcd_char,"                     -"); 
07E82:  MOVLW  04
07E84:  MOVLB  4
07E86:  MOVWF  x47
07E88:  MOVLB  0
07E8A:  CALL   6D44
07E8E:  MOVLW  60
07E90:  MOVWF  FF6
07E92:  MOVLW  29
07E94:  MOVWF  FF7
07E96:  CALL   6FBA
.................... 		lcd_start(5);	printf(lcd_char,"                     -"); 
07E9A:  MOVLW  05
07E9C:  MOVLB  4
07E9E:  MOVWF  x47
07EA0:  MOVLB  0
07EA2:  CALL   6D44
07EA6:  MOVLW  78
07EA8:  MOVWF  FF6
07EAA:  MOVLW  29
07EAC:  MOVWF  FF7
07EAE:  CALL   6FBA
.................... 		lcd_start(6);	printf(lcd_char,"   Sorry.            -"); 
07EB2:  MOVLW  06
07EB4:  MOVLB  4
07EB6:  MOVWF  x47
07EB8:  MOVLB  0
07EBA:  CALL   6D44
07EBE:  MOVLW  90
07EC0:  MOVWF  FF6
07EC2:  MOVLW  29
07EC4:  MOVWF  FF7
07EC6:  CALL   6FBA
.................... 		lcd_start(7);	printf(lcd_char,"   in preparation.   -"); 
07ECA:  MOVLW  07
07ECC:  MOVLB  4
07ECE:  MOVWF  x47
07ED0:  MOVLB  0
07ED2:  CALL   6D44
07ED6:  MOVLW  A8
07ED8:  MOVWF  FF6
07EDA:  MOVLW  29
07EDC:  MOVWF  FF7
07EDE:  CALL   6FBA
.................... 	}else if(mode >= 1000 && mode < 1100){ 
07EE2:  BRA    8326
07EE4:  MOVLB  1
07EE6:  MOVF   x12,W
07EE8:  SUBLW  02
07EEA:  BTFSC  FD8.0
07EEC:  BRA    8000
07EEE:  XORLW  FF
07EF0:  BNZ   7EFA
07EF2:  MOVF   x11,W
07EF4:  SUBLW  E7
07EF6:  BTFSC  FD8.0
07EF8:  BRA    8000
07EFA:  MOVF   x12,W
07EFC:  SUBLW  04
07EFE:  BTFSS  FD8.0
07F00:  BRA    8000
07F02:  BNZ   7F0A
07F04:  MOVF   x11,W
07F06:  SUBLW  4B
07F08:  BNC   8000
.................... 		lcd_start(0);	printf(lcd_char,"MODE:RFID        %04lu%c",mode,life_char[life_index]); 
07F0A:  MOVLB  4
07F0C:  CLRF   x47
07F0E:  MOVLB  0
07F10:  CALL   6D44
07F14:  CLRF   03
07F16:  MOVLB  1
07F18:  MOVF   x21,W
07F1A:  ADDLW  22
07F1C:  MOVWF  FE9
07F1E:  MOVLW  01
07F20:  ADDWFC 03,W
07F22:  MOVWF  FEA
07F24:  MOVFF  FEF,447
07F28:  MOVLW  C0
07F2A:  MOVWF  FF6
07F2C:  MOVLW  29
07F2E:  MOVWF  FF7
07F30:  MOVLW  11
07F32:  MOVLB  4
07F34:  MOVWF  x48
07F36:  MOVLB  0
07F38:  CALL   6ED6
07F3C:  MOVLW  09
07F3E:  MOVWF  FE9
07F40:  MOVFF  112,449
07F44:  MOVFF  111,448
07F48:  CALL   6EFE
07F4C:  MOVFF  447,451
07F50:  CALL   6D80
.................... 		lcd_start(1);	printf(lcd_char,"----------------------"); 
07F54:  MOVLW  01
07F56:  MOVLB  4
07F58:  MOVWF  x47
07F5A:  MOVLB  0
07F5C:  CALL   6D44
07F60:  MOVLW  DA
07F62:  MOVWF  FF6
07F64:  MOVLW  29
07F66:  MOVWF  FF7
07F68:  CALL   6FBA
.................... 		lcd_start(2);	printf(lcd_char,"                     -"); 
07F6C:  MOVLW  02
07F6E:  MOVLB  4
07F70:  MOVWF  x47
07F72:  MOVLB  0
07F74:  CALL   6D44
07F78:  MOVLW  F2
07F7A:  MOVWF  FF6
07F7C:  MOVLW  29
07F7E:  MOVWF  FF7
07F80:  CALL   6FBA
.................... 		lcd_start(3);	printf(lcd_char,"                     -"); 
07F84:  MOVLW  03
07F86:  MOVLB  4
07F88:  MOVWF  x47
07F8A:  MOVLB  0
07F8C:  CALL   6D44
07F90:  MOVLW  0A
07F92:  MOVWF  FF6
07F94:  MOVLW  2A
07F96:  MOVWF  FF7
07F98:  CALL   6FBA
.................... 		lcd_start(4);	printf(lcd_char,"                     -"); 
07F9C:  MOVLW  04
07F9E:  MOVLB  4
07FA0:  MOVWF  x47
07FA2:  MOVLB  0
07FA4:  CALL   6D44
07FA8:  MOVLW  22
07FAA:  MOVWF  FF6
07FAC:  MOVLW  2A
07FAE:  MOVWF  FF7
07FB0:  CALL   6FBA
.................... 		lcd_start(5);	printf(lcd_char,"                     -"); 
07FB4:  MOVLW  05
07FB6:  MOVLB  4
07FB8:  MOVWF  x47
07FBA:  MOVLB  0
07FBC:  CALL   6D44
07FC0:  MOVLW  3A
07FC2:  MOVWF  FF6
07FC4:  MOVLW  2A
07FC6:  MOVWF  FF7
07FC8:  CALL   6FBA
.................... 		lcd_start(6);	printf(lcd_char,"   Sorry.            -"); 
07FCC:  MOVLW  06
07FCE:  MOVLB  4
07FD0:  MOVWF  x47
07FD2:  MOVLB  0
07FD4:  CALL   6D44
07FD8:  MOVLW  52
07FDA:  MOVWF  FF6
07FDC:  MOVLW  2A
07FDE:  MOVWF  FF7
07FE0:  CALL   6FBA
.................... 		lcd_start(7);	printf(lcd_char,"   in preparation.   -"); 
07FE4:  MOVLW  07
07FE6:  MOVLB  4
07FE8:  MOVWF  x47
07FEA:  MOVLB  0
07FEC:  CALL   6D44
07FF0:  MOVLW  6A
07FF2:  MOVWF  FF6
07FF4:  MOVLW  2A
07FF6:  MOVWF  FF7
07FF8:  CALL   6FBA
.................... 	}else if(mode == 1100){ 
07FFC:  BRA    8326
07FFE:  MOVLB  1
08000:  MOVF   x11,W
08002:  SUBLW  4C
08004:  BTFSS  FD8.2
08006:  BRA    8104
08008:  MOVF   x12,W
0800A:  SUBLW  04
0800C:  BNZ   8104
.................... 		lcd_start(0);	printf(lcd_char,"MODE:MP3         %04lu%c",mode,life_char[life_index]); 
0800E:  MOVLB  4
08010:  CLRF   x47
08012:  MOVLB  0
08014:  CALL   6D44
08018:  CLRF   03
0801A:  MOVLB  1
0801C:  MOVF   x21,W
0801E:  ADDLW  22
08020:  MOVWF  FE9
08022:  MOVLW  01
08024:  ADDWFC 03,W
08026:  MOVWF  FEA
08028:  MOVFF  FEF,447
0802C:  MOVLW  82
0802E:  MOVWF  FF6
08030:  MOVLW  2A
08032:  MOVWF  FF7
08034:  MOVLW  11
08036:  MOVLB  4
08038:  MOVWF  x48
0803A:  MOVLB  0
0803C:  CALL   6ED6
08040:  MOVLW  09
08042:  MOVWF  FE9
08044:  MOVFF  112,449
08048:  MOVFF  111,448
0804C:  CALL   6EFE
08050:  MOVFF  447,451
08054:  CALL   6D80
.................... 		lcd_start(1);	printf(lcd_char,"----------------------"); 
08058:  MOVLW  01
0805A:  MOVLB  4
0805C:  MOVWF  x47
0805E:  MOVLB  0
08060:  CALL   6D44
08064:  MOVLW  9C
08066:  MOVWF  FF6
08068:  MOVLW  2A
0806A:  MOVWF  FF7
0806C:  CALL   6FBA
.................... 		lcd_start(2);	printf(lcd_char," KT403A              -"); 
08070:  MOVLW  02
08072:  MOVLB  4
08074:  MOVWF  x47
08076:  MOVLB  0
08078:  CALL   6D44
0807C:  MOVLW  B4
0807E:  MOVWF  FF6
08080:  MOVLW  2A
08082:  MOVWF  FF7
08084:  CALL   6FBA
.................... 		lcd_start(3);	printf(lcd_char,"                     -"); 
08088:  MOVLW  03
0808A:  MOVLB  4
0808C:  MOVWF  x47
0808E:  MOVLB  0
08090:  CALL   6D44
08094:  MOVLW  CC
08096:  MOVWF  FF6
08098:  MOVLW  2A
0809A:  MOVWF  FF7
0809C:  CALL   6FBA
.................... 		lcd_start(4);	printf(lcd_char,"                     -"); 
080A0:  MOVLW  04
080A2:  MOVLB  4
080A4:  MOVWF  x47
080A6:  MOVLB  0
080A8:  CALL   6D44
080AC:  MOVLW  E4
080AE:  MOVWF  FF6
080B0:  MOVLW  2A
080B2:  MOVWF  FF7
080B4:  CALL   6FBA
.................... 		lcd_start(5);	printf(lcd_char,"                     -"); 
080B8:  MOVLW  05
080BA:  MOVLB  4
080BC:  MOVWF  x47
080BE:  MOVLB  0
080C0:  CALL   6D44
080C4:  MOVLW  FC
080C6:  MOVWF  FF6
080C8:  MOVLW  2A
080CA:  MOVWF  FF7
080CC:  CALL   6FBA
.................... 		lcd_start(6);	printf(lcd_char,"   Sorry.            -"); 
080D0:  MOVLW  06
080D2:  MOVLB  4
080D4:  MOVWF  x47
080D6:  MOVLB  0
080D8:  CALL   6D44
080DC:  MOVLW  14
080DE:  MOVWF  FF6
080E0:  MOVLW  2B
080E2:  MOVWF  FF7
080E4:  CALL   6FBA
.................... 		lcd_start(7);	printf(lcd_char,"   in preparation.   -"); 
080E8:  MOVLW  07
080EA:  MOVLB  4
080EC:  MOVWF  x47
080EE:  MOVLB  0
080F0:  CALL   6D44
080F4:  MOVLW  2C
080F6:  MOVWF  FF6
080F8:  MOVLW  2B
080FA:  MOVWF  FF7
080FC:  CALL   6FBA
.................... 	}else if(mode == 1200){ 
08100:  BRA    8326
08102:  MOVLB  1
08104:  MOVF   x11,W
08106:  SUBLW  B0
08108:  BTFSS  FD8.2
0810A:  BRA    8208
0810C:  MOVF   x12,W
0810E:  SUBLW  04
08110:  BNZ   8208
.................... 		lcd_start(0);	printf(lcd_char,"MODE:Motion     %04lu%c",mode,life_char[life_index]); 
08112:  MOVLB  4
08114:  CLRF   x47
08116:  MOVLB  0
08118:  CALL   6D44
0811C:  CLRF   03
0811E:  MOVLB  1
08120:  MOVF   x21,W
08122:  ADDLW  22
08124:  MOVWF  FE9
08126:  MOVLW  01
08128:  ADDWFC 03,W
0812A:  MOVWF  FEA
0812C:  MOVFF  FEF,447
08130:  MOVLW  44
08132:  MOVWF  FF6
08134:  MOVLW  2B
08136:  MOVWF  FF7
08138:  MOVLW  10
0813A:  MOVLB  4
0813C:  MOVWF  x48
0813E:  MOVLB  0
08140:  CALL   6ED6
08144:  MOVLW  09
08146:  MOVWF  FE9
08148:  MOVFF  112,449
0814C:  MOVFF  111,448
08150:  CALL   6EFE
08154:  MOVFF  447,451
08158:  CALL   6D80
.................... 		lcd_start(1);	printf(lcd_char,"----------------------"); 
0815C:  MOVLW  01
0815E:  MOVLB  4
08160:  MOVWF  x47
08162:  MOVLB  0
08164:  CALL   6D44
08168:  MOVLW  5C
0816A:  MOVWF  FF6
0816C:  MOVLW  2B
0816E:  MOVWF  FF7
08170:  CALL   6FBA
.................... 		lcd_start(2);	printf(lcd_char," BMX055              -"); 
08174:  MOVLW  02
08176:  MOVLB  4
08178:  MOVWF  x47
0817A:  MOVLB  0
0817C:  CALL   6D44
08180:  MOVLW  74
08182:  MOVWF  FF6
08184:  MOVLW  2B
08186:  MOVWF  FF7
08188:  CALL   6FBA
.................... 		lcd_start(3);	printf(lcd_char,"                     -"); 
0818C:  MOVLW  03
0818E:  MOVLB  4
08190:  MOVWF  x47
08192:  MOVLB  0
08194:  CALL   6D44
08198:  MOVLW  8C
0819A:  MOVWF  FF6
0819C:  MOVLW  2B
0819E:  MOVWF  FF7
081A0:  CALL   6FBA
.................... 		lcd_start(4);	printf(lcd_char,"                     -"); 
081A4:  MOVLW  04
081A6:  MOVLB  4
081A8:  MOVWF  x47
081AA:  MOVLB  0
081AC:  CALL   6D44
081B0:  MOVLW  A4
081B2:  MOVWF  FF6
081B4:  MOVLW  2B
081B6:  MOVWF  FF7
081B8:  CALL   6FBA
.................... 		lcd_start(5);	printf(lcd_char,"                     -"); 
081BC:  MOVLW  05
081BE:  MOVLB  4
081C0:  MOVWF  x47
081C2:  MOVLB  0
081C4:  CALL   6D44
081C8:  MOVLW  BC
081CA:  MOVWF  FF6
081CC:  MOVLW  2B
081CE:  MOVWF  FF7
081D0:  CALL   6FBA
.................... 		lcd_start(6);	printf(lcd_char,"   Sorry.            -"); 
081D4:  MOVLW  06
081D6:  MOVLB  4
081D8:  MOVWF  x47
081DA:  MOVLB  0
081DC:  CALL   6D44
081E0:  MOVLW  D4
081E2:  MOVWF  FF6
081E4:  MOVLW  2B
081E6:  MOVWF  FF7
081E8:  CALL   6FBA
.................... 		lcd_start(7);	printf(lcd_char,"   in preparation.   -"); 
081EC:  MOVLW  07
081EE:  MOVLB  4
081F0:  MOVWF  x47
081F2:  MOVLB  0
081F4:  CALL   6D44
081F8:  MOVLW  EC
081FA:  MOVWF  FF6
081FC:  MOVLW  2B
081FE:  MOVWF  FF7
08200:  CALL   6FBA
.................... 	}else{ 
08204:  BRA    8326
08206:  MOVLB  1
.................... 		lcd_start(0);	printf(lcd_char,"MODE:LCD Error   %04lu%c",mode,life_char[life_index]); 
08208:  MOVLB  4
0820A:  CLRF   x47
0820C:  MOVLB  0
0820E:  CALL   6D44
08212:  CLRF   03
08214:  MOVLB  1
08216:  MOVF   x21,W
08218:  ADDLW  22
0821A:  MOVWF  FE9
0821C:  MOVLW  01
0821E:  ADDWFC 03,W
08220:  MOVWF  FEA
08222:  MOVFF  FEF,447
08226:  MOVLW  04
08228:  MOVWF  FF6
0822A:  MOVLW  2C
0822C:  MOVWF  FF7
0822E:  MOVLW  11
08230:  MOVLB  4
08232:  MOVWF  x48
08234:  MOVLB  0
08236:  CALL   6ED6
0823A:  MOVLW  09
0823C:  MOVWF  FE9
0823E:  MOVFF  112,449
08242:  MOVFF  111,448
08246:  CALL   6EFE
0824A:  MOVFF  447,451
0824E:  CALL   6D80
.................... 		lcd_start(1);	printf(lcd_char,"----------------------"); 
08252:  MOVLW  01
08254:  MOVLB  4
08256:  MOVWF  x47
08258:  MOVLB  0
0825A:  CALL   6D44
0825E:  MOVLW  1E
08260:  MOVWF  FF6
08262:  MOVLW  2C
08264:  MOVWF  FF7
08266:  CALL   6FBA
.................... 		lcd_start(2);	printf(lcd_char," cursor_index=%03lu    -",cursor_index); 
0826A:  MOVLW  02
0826C:  MOVLB  4
0826E:  MOVWF  x47
08270:  MOVLB  0
08272:  CALL   6D44
08276:  MOVLW  36
08278:  MOVWF  FF6
0827A:  MOVLW  2C
0827C:  MOVWF  FF7
0827E:  MOVLW  0E
08280:  MOVLB  4
08282:  MOVWF  x48
08284:  MOVLB  0
08286:  CALL   6ED6
0828A:  MOVLW  0A
0828C:  MOVWF  FE9
0828E:  MOVFF  114,449
08292:  MOVFF  113,448
08296:  CALL   6EFE
0829A:  MOVLW  49
0829C:  MOVWF  FF6
0829E:  MOVLW  2C
082A0:  MOVWF  FF7
082A2:  MOVLW  05
082A4:  MOVLB  4
082A6:  MOVWF  x48
082A8:  MOVLB  0
082AA:  CALL   6ED6
.................... 		lcd_start(3);	printf(lcd_char,"                     -"); 
082AE:  MOVLW  03
082B0:  MOVLB  4
082B2:  MOVWF  x47
082B4:  MOVLB  0
082B6:  CALL   6D44
082BA:  MOVLW  50
082BC:  MOVWF  FF6
082BE:  MOVLW  2C
082C0:  MOVWF  FF7
082C2:  CALL   6FBA
.................... 		lcd_start(4);	printf(lcd_char,"                     -"); 
082C6:  MOVLW  04
082C8:  MOVLB  4
082CA:  MOVWF  x47
082CC:  MOVLB  0
082CE:  CALL   6D44
082D2:  MOVLW  68
082D4:  MOVWF  FF6
082D6:  MOVLW  2C
082D8:  MOVWF  FF7
082DA:  CALL   6FBA
.................... 		lcd_start(5);	printf(lcd_char,"                     -"); 
082DE:  MOVLW  05
082E0:  MOVLB  4
082E2:  MOVWF  x47
082E4:  MOVLB  0
082E6:  CALL   6D44
082EA:  MOVLW  80
082EC:  MOVWF  FF6
082EE:  MOVLW  2C
082F0:  MOVWF  FF7
082F2:  CALL   6FBA
.................... 		lcd_start(6);	printf(lcd_char,"   Sorry.            -"); 
082F6:  MOVLW  06
082F8:  MOVLB  4
082FA:  MOVWF  x47
082FC:  MOVLB  0
082FE:  CALL   6D44
08302:  MOVLW  98
08304:  MOVWF  FF6
08306:  MOVLW  2C
08308:  MOVWF  FF7
0830A:  CALL   6FBA
.................... 		lcd_start(7);	printf(lcd_char,"   in preparation.   -"); 
0830E:  MOVLW  07
08310:  MOVLB  4
08312:  MOVWF  x47
08314:  MOVLB  0
08316:  CALL   6D44
0831A:  MOVLW  B0
0831C:  MOVWF  FF6
0831E:  MOVLW  2C
08320:  MOVWF  FF7
08322:  CALL   6FBA
.................... 	} 
....................  
.................... 	//lcd_start(0);	printf(lcd_char,"MODE:LCD Error   %04lu%c",mode,life_char[life_index]); 
.................... 	//lcd_start(1);	printf(lcd_char,"----------------------"); 
.................... 	//lcd_start(2);	printf(lcd_char," cursor_index=%03lu    -",cursor_index); 
.................... 	//lcd_start(3);	printf(lcd_char,"                     -"); 
.................... 	//lcd_start(4);	printf(lcd_char,"                     -"); 
.................... 	//lcd_start(5);	printf(lcd_char,"                     -"); 
.................... 	//lcd_start(6);	printf(lcd_char,"   Sorry.            -"); 
.................... 	//lcd_start(7);	printf(lcd_char,"   in preparation.   -"); 
....................  
.................... 	//float f; 
.................... 	//f=12.345; 
.................... 	//printf(tostring,"\f%6.3f",f); 
.................... } 
08326:  GOTO   8730 (RETURN)
....................  
.................... void modeselect_lcd_process(){ 
.................... //teLXg4.438msec(ini),3.932msec(XV) 
....................  
.................... 	int cursor[20] = {0x20,0x20,0x20,0x20,0x20,	0x20,0x20,0x20,0x20,0x20, 
.................... 					0x20,0x20,0x20,0x20,0x20,	0x20,0x20,0x20,0x20,0x20}; 
.................... 	cursor[cursor_index] = 0x3e;//> 0x2a;//* 
....................  
.................... 	if(mode == 0){ 
.................... 		 
.................... 		lcd_start(0);	printf(lcd_char,"MODE:Opening      %03lu%01c",mode,life_char[life_index]); 
.................... 		lcd_start(1);	printf(lcd_char,"----------------------"); 
.................... 		lcd_start(2);	printf(lcd_char,"This show next time? -"); 
.................... 		lcd_start(3);	printf(lcd_char,"            %01cYes %01cNo -",cursor[1],cursor[2]); 
.................... 		lcd_start(4);	printf(lcd_char,"                     -"); 
.................... 		lcd_start(5);	printf(lcd_char," How to use button.  -"); 
.................... 		lcd_start(6);	printf(lcd_char,"Enter Cancel Up Down -"); 
.................... 		lcd_start(7);	printf(lcd_char,"%01c     %01c      %01c    %01c  -",0x81,0x81,0x81,0x81); 
.................... 	}else if(mode == 10){ 
.................... 		if(cursor_index >= 0 && cursor_index < 9){ 
.................... 			lcd_start(0);	printf(lcd_char,"MODE:ModeSelsct   %03lu%01c",mode,life_char[life_index]); 
.................... 			lcd_start(1);	printf(lcd_char,"----------------------"); 
.................... 			lcd_start(2);	printf(lcd_char,"%01cHardInfo %01cRTC       -",cursor[1],cursor[5]); 
.................... 			lcd_start(3);	printf(lcd_char,"%01cIO       %01cServo     -",cursor[2],cursor[6]); 
.................... 			lcd_start(4);	printf(lcd_char,"%01cUART     %01cIllumiLED -",cursor[3],cursor[7]); 
.................... 			lcd_start(5);	printf(lcd_char,"%01cGraphic  %01cTemp&RH   -",cursor[4],cursor[8]); 
.................... 			lcd_start(6);	printf(lcd_char,"<CANSEL>Back to      -"); 
.................... 			lcd_start(7);	printf(lcd_char,"    this mode select.-"); 
.................... 		}else if(cursor_index >= 9){ 
.................... 			lcd_start(0);	printf(lcd_char,"MODE:ModeSelsct   %03lu%01c",mode,life_char[life_index]); 
.................... 			lcd_start(1);	printf(lcd_char,"----------------------"); 
.................... 			lcd_start(2);	printf(lcd_char,"%01cIR                  -",cursor[9]); 
.................... 			lcd_start(3);	printf(lcd_char,"%01cRFID                -",cursor[10]); 
.................... 			lcd_start(4);	printf(lcd_char,"%01cMP3                 -",cursor[11]); 
.................... 			lcd_start(5);	printf(lcd_char,"%01cMotion              -",cursor[12]); 
.................... 			lcd_start(6);	printf(lcd_char,"<CANSEL>Back to      -"); 
.................... 			lcd_start(7);	printf(lcd_char,"    this mode select.-"); 
.................... 		} 
.................... 	} 
.................... } 
....................  
.................... void hardwareinfo_lcd_process(){ 
.................... 	int cursor[11] = {0x20,0x20,0x20,0x20,0x20,0x20,0x20,0x20,0x20,0x20}; 
.................... 	cursor[cursor_index] = 0x3e;//> 0x2a;//* 
.................... 	if(mode == 100){ 
.................... 		lcd_start(0);	printf(lcd_char,"MODE:HardwareInfo %03lu%c",mode,life_char[life_index]); 
.................... 		lcd_start(1);	printf(lcd_char,"----------------------"); 
.................... 		lcd_start(2);	printf(lcd_char,"CPU=Microchip        -"); 
.................... 		lcd_start(3);	printf(lcd_char,"    PIC18F46K22      -"); 
.................... 		lcd_start(4);	printf(lcd_char,"LCD=TOPWAY LM6029SCW -"); 
.................... 		lcd_start(5);	printf(lcd_char,"Voltage:3.3V         -"); 
.................... 		lcd_start(6);	printf(lcd_char,"Dot:128x64 Text:21x8 -"); 
.................... 		lcd_start(7);	printf(lcd_char,"               %01cNEXT -",cursor[1]); 
.................... 	}else if(mode == 101){ 
.................... 		lcd_start(0);	printf(lcd_char,"MODE:HardwareInfo %03lu%c",mode,life_char[life_index]); 
.................... 		lcd_start(1);	printf(lcd_char,"----------------------"); 
.................... 		lcd_start(2);	printf(lcd_char,"Producer=ZEATEC      -"); 
.................... 		lcd_start(3);	printf(lcd_char,"Template software    -"); 
.................... 		lcd_start(4);	printf(lcd_char,"     Ver=%s-",ver); 
.................... 		lcd_start(5);	printf(lcd_char,"        %01cGoto Opening-",cursor[1]); 
.................... 		lcd_start(6);	printf(lcd_char,"Please software      -"); 
.................... 		lcd_start(7);	printf(lcd_char,"       use it freely!-"); 
.................... 	} 
.................... } 
....................  
.................... void io_lcd_process(){ 
.................... 	if(mode == 200){ 
.................... 		lcd_start(0);	printf(lcd_char,"MODE:IO          %04lu%c",mode,life_char[life_index]); 
.................... 		lcd_start(1);	printf(lcd_char,"----------------------"); 
.................... 		lcd_start(2);	printf(lcd_char,"IO ra7-0=%01u%01u%01u%01u,%01u%01u%01u%01u   -",ra7,ra6,ra5,ra4,ra3,ra2,ra1,ra0); 
.................... 		lcd_start(3);	printf(lcd_char,"OUT rb5-0=%01u%01u%01u%01u%01u%01u     -",rb5,rb4,rb3,rb2,rb1,rb0);//,rb6,rb7 
.................... 		lcd_start(4);	printf(lcd_char,"AN re1-0=%04lu,%04lu   -",re1,re0); 
.................... 		lcd_start(5);	printf(lcd_char,"                     -"); 
.................... 		lcd_start(6);	printf(lcd_char,"                     -"); 
.................... 		lcd_start(7);	printf(lcd_char,"                     -"); 
.................... 	} 
.................... } 
.................... //C~l[VLED 
.................... void illumiled_lcd_process(){ 
....................  
.................... 	int cursor[10] = {0x20,0x20,0x20,0x20,0x20,0x20,0x20,0x20,0x20}; 
*
07082:  MOVLW  20
07084:  MOVLB  4
07086:  MOVWF  x3D
07088:  MOVWF  x3E
0708A:  MOVWF  x3F
0708C:  MOVWF  x40
0708E:  MOVWF  x41
07090:  MOVWF  x42
07092:  MOVWF  x43
07094:  MOVWF  x44
07096:  MOVWF  x45
07098:  CLRF   x46
.................... 	cursor[cursor_index] = 0x3e;//0x3e=">",0x2a="*" 
0709A:  MOVLW  3D
0709C:  MOVLB  1
0709E:  ADDWF  x13,W
070A0:  MOVWF  FE9
070A2:  MOVLW  04
070A4:  ADDWFC x14,W
070A6:  MOVWF  FEA
070A8:  MOVLW  3E
070AA:  MOVWF  FEF
....................  
.................... 	if(mode == 700){ 
070AC:  MOVF   x11,W
070AE:  SUBLW  BC
070B0:  BTFSS  FD8.2
070B2:  BRA    719C
070B4:  MOVF   x12,W
070B6:  SUBLW  02
070B8:  BTFSS  FD8.2
070BA:  BRA    719C
.................... 		lcd_start(0);	printf(lcd_char,"MODE:IllumiLED    %03lu%c",mode,life_char[life_index]); 
070BC:  MOVLB  4
070BE:  CLRF   x47
070C0:  MOVLB  0
070C2:  RCALL  6D44
070C4:  CLRF   03
070C6:  MOVLB  1
070C8:  MOVF   x21,W
070CA:  ADDLW  22
070CC:  MOVWF  FE9
070CE:  MOVLW  01
070D0:  ADDWFC 03,W
070D2:  MOVWF  FEA
070D4:  MOVFF  FEF,447
070D8:  MOVLW  B2
070DA:  MOVWF  FF6
070DC:  MOVLW  31
070DE:  MOVWF  FF7
070E0:  MOVLW  12
070E2:  MOVLB  4
070E4:  MOVWF  x48
070E6:  MOVLB  0
070E8:  RCALL  6ED6
070EA:  MOVLW  0A
070EC:  MOVWF  FE9
070EE:  MOVFF  112,449
070F2:  MOVFF  111,448
070F6:  RCALL  6EFE
070F8:  MOVFF  447,451
070FC:  RCALL  6D80
.................... 		lcd_start(1);	printf(lcd_char,"----------------------"); 
070FE:  MOVLW  01
07100:  MOVLB  4
07102:  MOVWF  x47
07104:  MOVLB  0
07106:  RCALL  6D44
07108:  MOVLW  CC
0710A:  MOVWF  FF6
0710C:  MOVLW  31
0710E:  MOVWF  FF7
07110:  RCALL  6FBA
.................... 		lcd_start(2);	printf(lcd_char,"%01cWS2812b,2811(OUT:A6)-",cursor[1]); 
07112:  MOVLW  02
07114:  MOVLB  4
07116:  MOVWF  x47
07118:  MOVLB  0
0711A:  RCALL  6D44
0711C:  MOVFF  43E,451
07120:  RCALL  6D80
07122:  MOVLW  E8
07124:  MOVWF  FF6
07126:  MOVLW  31
07128:  MOVWF  FF7
0712A:  MOVLW  15
0712C:  MOVLB  4
0712E:  MOVWF  x48
07130:  MOVLB  0
07132:  RCALL  6ED6
.................... 		lcd_start(3);	printf(lcd_char,"                     -"); 
07134:  MOVLW  03
07136:  MOVLB  4
07138:  MOVWF  x47
0713A:  MOVLB  0
0713C:  RCALL  6D44
0713E:  MOVLW  FE
07140:  MOVWF  FF6
07142:  MOVLW  31
07144:  MOVWF  FF7
07146:  RCALL  6FBA
.................... 		lcd_start(4);	printf(lcd_char,"                     -"); 
07148:  MOVLW  04
0714A:  MOVLB  4
0714C:  MOVWF  x47
0714E:  MOVLB  0
07150:  RCALL  6D44
07152:  MOVLW  16
07154:  MOVWF  FF6
07156:  MOVLW  32
07158:  MOVWF  FF7
0715A:  RCALL  6FBA
.................... 		lcd_start(5);	printf(lcd_char,"                     -"); 
0715C:  MOVLW  05
0715E:  MOVLB  4
07160:  MOVWF  x47
07162:  MOVLB  0
07164:  RCALL  6D44
07166:  MOVLW  2E
07168:  MOVWF  FF6
0716A:  MOVLW  32
0716C:  MOVWF  FF7
0716E:  RCALL  6FBA
.................... 		lcd_start(6);	printf(lcd_char,"                     -"); 
07170:  MOVLW  06
07172:  MOVLB  4
07174:  MOVWF  x47
07176:  MOVLB  0
07178:  RCALL  6D44
0717A:  MOVLW  46
0717C:  MOVWF  FF6
0717E:  MOVLW  32
07180:  MOVWF  FF7
07182:  RCALL  6FBA
.................... 		lcd_start(7);	printf(lcd_char,"                     -"); 
07184:  MOVLW  07
07186:  MOVLB  4
07188:  MOVWF  x47
0718A:  MOVLB  0
0718C:  RCALL  6D44
0718E:  MOVLW  5E
07190:  MOVWF  FF6
07192:  MOVLW  32
07194:  MOVWF  FF7
07196:  RCALL  6FBA
.................... 	}else if(mode == 701){ 
07198:  BRA    7498
0719A:  MOVLB  1
0719C:  MOVF   x11,W
0719E:  SUBLW  BD
071A0:  BTFSS  FD8.2
071A2:  BRA    738C
071A4:  MOVF   x12,W
071A6:  SUBLW  02
071A8:  BTFSS  FD8.2
071AA:  BRA    738C
.................... 		lcd_start(0);	printf(lcd_char,"MODE:WS2812b,2811 %03lu%c",mode,life_char[life_index]); 
071AC:  MOVLB  4
071AE:  CLRF   x47
071B0:  MOVLB  0
071B2:  RCALL  6D44
071B4:  CLRF   03
071B6:  MOVLB  1
071B8:  MOVF   x21,W
071BA:  ADDLW  22
071BC:  MOVWF  FE9
071BE:  MOVLW  01
071C0:  ADDWFC 03,W
071C2:  MOVWF  FEA
071C4:  MOVFF  FEF,447
071C8:  MOVLW  76
071CA:  MOVWF  FF6
071CC:  MOVLW  32
071CE:  MOVWF  FF7
071D0:  MOVLW  12
071D2:  MOVLB  4
071D4:  MOVWF  x48
071D6:  MOVLB  0
071D8:  RCALL  6ED6
071DA:  MOVLW  0A
071DC:  MOVWF  FE9
071DE:  MOVFF  112,449
071E2:  MOVFF  111,448
071E6:  RCALL  6EFE
071E8:  MOVFF  447,451
071EC:  RCALL  6D80
.................... 		lcd_start(1);	printf(lcd_char,"----------------------");		 
071EE:  MOVLW  01
071F0:  MOVLB  4
071F2:  MOVWF  x47
071F4:  MOVLB  0
071F6:  RCALL  6D44
071F8:  MOVLW  90
071FA:  MOVWF  FF6
071FC:  MOVLW  32
071FE:  MOVWF  FF7
07200:  RCALL  6FBA
.................... 		lcd_start(2);	printf(lcd_char," led_value=%03lu       -",ws281x_led_value); 
07202:  MOVLW  02
07204:  MOVLB  4
07206:  MOVWF  x47
07208:  MOVLB  0
0720A:  RCALL  6D44
0720C:  MOVLW  A8
0720E:  MOVWF  FF6
07210:  MOVLW  32
07212:  MOVWF  FF7
07214:  MOVLW  0B
07216:  MOVLB  4
07218:  MOVWF  x48
0721A:  MOVLB  0
0721C:  RCALL  6ED6
0721E:  MOVLW  0A
07220:  MOVWF  FE9
07222:  MOVFF  438,449
07226:  MOVFF  437,448
0722A:  RCALL  6EFE
0722C:  MOVLW  B8
0722E:  MOVWF  FF6
07230:  MOVLW  32
07232:  MOVWF  FF7
07234:  MOVLW  08
07236:  MOVLB  4
07238:  MOVWF  x48
0723A:  MOVLB  0
0723C:  RCALL  6ED6
.................... 		lcd_start(3);	printf(lcd_char,"%01ccolor_set=%02u        -",cursor[1],Illumi_color_set); 
0723E:  MOVLW  03
07240:  MOVLB  4
07242:  MOVWF  x47
07244:  MOVLB  0
07246:  RCALL  6D44
07248:  MOVFF  43E,451
0724C:  RCALL  6D80
0724E:  MOVLW  C6
07250:  MOVWF  FF6
07252:  MOVLW  32
07254:  MOVWF  FF7
07256:  MOVLW  0A
07258:  MOVLB  4
0725A:  MOVWF  x48
0725C:  MOVLB  0
0725E:  RCALL  6ED6
07260:  MOVFF  12E,447
07264:  MOVLW  01
07266:  MOVLB  4
07268:  MOVWF  x48
0726A:  MOVLB  0
0726C:  RCALL  7006
0726E:  MOVLW  D4
07270:  MOVWF  FF6
07272:  MOVLW  32
07274:  MOVWF  FF7
07276:  MOVLW  09
07278:  MOVLB  4
0727A:  MOVWF  x48
0727C:  MOVLB  0
0727E:  RCALL  6ED6
.................... 		lcd_start(4);	printf(lcd_char,"%01cmode_set=%02u         -",cursor[2],Illumi_mode_set); 
07280:  MOVLW  04
07282:  MOVLB  4
07284:  MOVWF  x47
07286:  MOVLB  0
07288:  RCALL  6D44
0728A:  MOVFF  43F,451
0728E:  RCALL  6D80
07290:  MOVLW  E2
07292:  MOVWF  FF6
07294:  MOVLW  32
07296:  MOVWF  FF7
07298:  MOVLW  09
0729A:  MOVLB  4
0729C:  MOVWF  x48
0729E:  MOVLB  0
072A0:  RCALL  6ED6
072A2:  MOVFF  12F,447
072A6:  MOVLW  01
072A8:  MOVLB  4
072AA:  MOVWF  x48
072AC:  MOVLB  0
072AE:  RCALL  7006
072B0:  MOVLW  EF
072B2:  MOVWF  FF6
072B4:  MOVLW  32
072B6:  MOVWF  FF7
072B8:  MOVLW  0A
072BA:  MOVLB  4
072BC:  MOVWF  x48
072BE:  MOVLB  0
072C0:  RCALL  6ED6
.................... 		lcd_start(5);	printf(lcd_char,"%01cspeed=%02u            -",cursor[3],Illumi_speed); 
072C2:  MOVLW  05
072C4:  MOVLB  4
072C6:  MOVWF  x47
072C8:  MOVLB  0
072CA:  RCALL  6D44
072CC:  MOVFF  440,451
072D0:  RCALL  6D80
072D2:  MOVLW  FE
072D4:  MOVWF  FF6
072D6:  MOVLW  32
072D8:  MOVWF  FF7
072DA:  MOVLW  06
072DC:  MOVLB  4
072DE:  MOVWF  x48
072E0:  MOVLB  0
072E2:  RCALL  6ED6
072E4:  MOVFF  130,447
072E8:  MOVLW  01
072EA:  MOVLB  4
072EC:  MOVWF  x48
072EE:  MOVLB  0
072F0:  RCALL  7006
072F2:  MOVLW  08
072F4:  MOVWF  FF6
072F6:  MOVLW  33
072F8:  MOVWF  FF7
072FA:  MOVLW  0D
072FC:  MOVLB  4
072FE:  MOVWF  x48
07300:  MOVLB  0
07302:  RCALL  6ED6
.................... 		lcd_start(6);	printf(lcd_char,"%01csignaltype=%02u       -",cursor[4],Illumi_signaltype); 
07304:  MOVLW  06
07306:  MOVLB  4
07308:  MOVWF  x47
0730A:  MOVLB  0
0730C:  RCALL  6D44
0730E:  MOVFF  441,451
07312:  RCALL  6D80
07314:  MOVLW  1A
07316:  MOVWF  FF6
07318:  MOVLW  33
0731A:  MOVWF  FF7
0731C:  MOVLW  0B
0731E:  MOVLB  4
07320:  MOVWF  x48
07322:  MOVLB  0
07324:  RCALL  6ED6
07326:  MOVFF  131,447
0732A:  MOVLW  01
0732C:  MOVLB  4
0732E:  MOVWF  x48
07330:  MOVLB  0
07332:  RCALL  7006
07334:  MOVLW  29
07336:  MOVWF  FF6
07338:  MOVLW  33
0733A:  MOVWF  FF7
0733C:  MOVLW  08
0733E:  MOVLB  4
07340:  MOVWF  x48
07342:  MOVLB  0
07344:  RCALL  6ED6
.................... 		lcd_start(7);	printf(lcd_char,"%01ctiming=%02u           -",cursor[5],Illumi_timing); 
07346:  MOVLW  07
07348:  MOVLB  4
0734A:  MOVWF  x47
0734C:  MOVLB  0
0734E:  RCALL  6D44
07350:  MOVFF  442,451
07354:  RCALL  6D80
07356:  MOVLW  36
07358:  MOVWF  FF6
0735A:  MOVLW  33
0735C:  MOVWF  FF7
0735E:  MOVLW  07
07360:  MOVLB  4
07362:  MOVWF  x48
07364:  MOVLB  0
07366:  RCALL  6ED6
07368:  MOVFF  132,447
0736C:  MOVLW  01
0736E:  MOVLB  4
07370:  MOVWF  x48
07372:  MOVLB  0
07374:  RCALL  7006
07376:  MOVLW  41
07378:  MOVWF  FF6
0737A:  MOVLW  33
0737C:  MOVWF  FF7
0737E:  MOVLW  0C
07380:  MOVLB  4
07382:  MOVWF  x48
07384:  MOVLB  0
07386:  RCALL  6ED6
.................... 	}else if(mode == 702){ 
07388:  BRA    7498
0738A:  MOVLB  1
0738C:  MOVF   x11,W
0738E:  SUBLW  BE
07390:  BTFSS  FD8.2
07392:  BRA    749A
07394:  MOVF   x12,W
07396:  SUBLW  02
07398:  BTFSS  FD8.2
0739A:  BRA    749A
.................... 		lcd_start(0);	printf(lcd_char,"MODE:WS2812b,2811 %03lu%c",mode,life_char[life_index]); 
0739C:  MOVLB  4
0739E:  CLRF   x47
073A0:  MOVLB  0
073A2:  RCALL  6D44
073A4:  CLRF   03
073A6:  MOVLB  1
073A8:  MOVF   x21,W
073AA:  ADDLW  22
073AC:  MOVWF  FE9
073AE:  MOVLW  01
073B0:  ADDWFC 03,W
073B2:  MOVWF  FEA
073B4:  MOVFF  FEF,447
073B8:  MOVLW  4E
073BA:  MOVWF  FF6
073BC:  MOVLW  33
073BE:  MOVWF  FF7
073C0:  MOVLW  12
073C2:  MOVLB  4
073C4:  MOVWF  x48
073C6:  MOVLB  0
073C8:  RCALL  6ED6
073CA:  MOVLW  0A
073CC:  MOVWF  FE9
073CE:  MOVFF  112,449
073D2:  MOVFF  111,448
073D6:  RCALL  6EFE
073D8:  MOVFF  447,451
073DC:  RCALL  6D80
.................... 		lcd_start(1);	printf(lcd_char,"----------------------");		 
073DE:  MOVLW  01
073E0:  MOVLB  4
073E2:  MOVWF  x47
073E4:  MOVLB  0
073E6:  RCALL  6D44
073E8:  MOVLW  68
073EA:  MOVWF  FF6
073EC:  MOVLW  33
073EE:  MOVWF  FF7
073F0:  RCALL  6FBA
.................... 		lcd_start(2);	printf(lcd_char,"%01cbrightness=%03u      -",cursor[6],Illumi_brightness); 
073F2:  MOVLW  02
073F4:  MOVLB  4
073F6:  MOVWF  x47
073F8:  MOVLB  0
073FA:  RCALL  6D44
073FC:  MOVFF  443,451
07400:  RCALL  6D80
07402:  MOVLW  84
07404:  MOVWF  FF6
07406:  MOVLW  33
07408:  MOVWF  FF7
0740A:  MOVLW  0B
0740C:  MOVLB  4
0740E:  MOVWF  x48
07410:  MOVLB  0
07412:  RCALL  6ED6
07414:  MOVFF  133,447
07418:  MOVLW  03
0741A:  MOVLB  4
0741C:  MOVWF  x48
0741E:  MOVLB  0
07420:  RCALL  7006
07422:  MOVLW  93
07424:  MOVWF  FF6
07426:  MOVLW  33
07428:  MOVWF  FF7
0742A:  MOVLW  07
0742C:  MOVLB  4
0742E:  MOVWF  x48
07430:  MOVLB  0
07432:  RCALL  6ED6
.................... 		lcd_start(3);	printf(lcd_char,"                     -"); 
07434:  MOVLW  03
07436:  MOVLB  4
07438:  MOVWF  x47
0743A:  MOVLB  0
0743C:  RCALL  6D44
0743E:  MOVLW  9C
07440:  MOVWF  FF6
07442:  MOVLW  33
07444:  MOVWF  FF7
07446:  RCALL  6FBA
.................... 		lcd_start(4);	printf(lcd_char,"                     -"); 
07448:  MOVLW  04
0744A:  MOVLB  4
0744C:  MOVWF  x47
0744E:  MOVLB  0
07450:  RCALL  6D44
07452:  MOVLW  B4
07454:  MOVWF  FF6
07456:  MOVLW  33
07458:  MOVWF  FF7
0745A:  RCALL  6FBA
.................... 		lcd_start(5);	printf(lcd_char,"                     -"); 
0745C:  MOVLW  05
0745E:  MOVLB  4
07460:  MOVWF  x47
07462:  MOVLB  0
07464:  RCALL  6D44
07466:  MOVLW  CC
07468:  MOVWF  FF6
0746A:  MOVLW  33
0746C:  MOVWF  FF7
0746E:  RCALL  6FBA
.................... 		lcd_start(6);	printf(lcd_char,"                     -"); 
07470:  MOVLW  06
07472:  MOVLB  4
07474:  MOVWF  x47
07476:  MOVLB  0
07478:  RCALL  6D44
0747A:  MOVLW  E4
0747C:  MOVWF  FF6
0747E:  MOVLW  33
07480:  MOVWF  FF7
07482:  RCALL  6FBA
.................... 		lcd_start(7);	printf(lcd_char,"                     -"); 
07484:  MOVLW  07
07486:  MOVLB  4
07488:  MOVWF  x47
0748A:  MOVLB  0
0748C:  RCALL  6D44
0748E:  MOVLW  FC
07490:  MOVWF  FF6
07492:  MOVLW  33
07494:  MOVWF  FF7
07496:  RCALL  6FBA
07498:  MOVLB  1
.................... 	} 
.................... } 
0749A:  MOVLB  0
0749C:  GOTO   8720 (RETURN)
....................  
.................... void rtc_lcd_process(){ 
....................  
.................... 	char *tmp_week[] = {"SUN","MON","TUE","WED","THU","FRI","SAT","xxx"}; 
.................... 	 
.................... 	lcd_start(0);	printf(lcd_char,"MODE:RTC(RX8900)  %03lu%c",mode,life_char[life_index]); 
.................... 	lcd_start(1);	printf(lcd_char,"Add:W/R=0x64/0x65    -"); 
.................... 	if(mode == 500){ 
.................... 		lcd_start(2);	printf(lcd_char,"DATE:20%02x/%02x/%02x ",year,month,day); 
.................... 		printf(lcd_char,"%s  -",tmp_week[week2index(week)]); 
.................... 		lcd_start(3);	printf(lcd_char,"TIME:%02x:%02x:%02x        -",hour,min,sec); 
.................... 		lcd_start(6);	printf(lcd_char,"                     -"); 
.................... 		lcd_start(7);	printf(lcd_char,"<Enter> to TimeEdit. -"); 
.................... 	}else if(mode == 501){ 
.................... 		lcd_start(2); 
.................... 		//NW 
.................... 		if(flicker_500 == 0){	printf(lcd_char,"DATE:    /%02x/%02x ",month,day);//_ 
.................... 		}else{					printf(lcd_char,"DATE:20%02x/%02x/%02x ",year,month,day);} 
.................... 		printf(lcd_char,"%s  -",tmp_week[week2index(week)]); 
.................... 		lcd_start(3);	printf(lcd_char,"TIME:%02x:%02x:%02x        -",hour,min,sec); 
.................... 		lcd_start(6);	printf(lcd_char,"                     -"); 
.................... 		lcd_start(7);	printf(lcd_char,"<Enter> to Next.     -"); 
.................... 	}else if(mode == 502){ 
.................... 		lcd_start(2); 
.................... 		//W 
.................... 		if(flicker_500 == 0){	printf(lcd_char,"DATE:20%02x/  /%02x ",year,day);//_ 
.................... 		}else{					printf(lcd_char,"DATE:20%02x/%02x/%02x ",year,month,day);} 
.................... 		printf(lcd_char,"%s  -",tmp_week[week2index(week)]); 
.................... 		lcd_start(3);	printf(lcd_char,"TIME:%02x:%02x:%02x        -",hour,min,sec); 
.................... 		lcd_start(6);	printf(lcd_char,"                     -"); 
.................... 		lcd_start(7);	printf(lcd_char,"<Enter> to Next.     -"); 
.................... 	}else if(mode == 503){ 
.................... 		lcd_start(2); 
.................... 		//W 
.................... 		if(flicker_500 == 0){	printf(lcd_char,"DATE:20%02x/%02x/   ",year,month);//_ 
.................... 		}else{					printf(lcd_char,"DATE:20%02x/%02x/%02x ",year,month,day);} 
.................... 		printf(lcd_char,"%s  -",tmp_week[week2index(week)]); 
.................... 		lcd_start(3);	printf(lcd_char,"TIME:%02x:%02x:%02x        -",hour,min,sec); 
.................... 		lcd_start(6);	printf(lcd_char,"                     -"); 
.................... 		lcd_start(7);	printf(lcd_char,"<Enter> to Next.     -"); 
.................... 	}else if(mode == 504){ 
.................... 		lcd_start(2); 
.................... 		//jW 
.................... 		printf(lcd_char,"DATE:20%02x/%02x/%02x ",year,month,day); 
.................... 		if(flicker_500 == 0){	printf(lcd_char,"     -");//_ 
.................... 		}else{					printf(lcd_char,"%s  -",tmp_week[week2index(week)]);} 
.................... 		lcd_start(3);	printf(lcd_char,"TIME:%02x:%02x:%02x        -",hour,min,sec); 
.................... 		lcd_start(6);	printf(lcd_char,"                     -"); 
.................... 		lcd_start(7);	printf(lcd_char,"<Enter> to Next.     -"); 
.................... 	}else if(mode == 505){ 
.................... 		lcd_start(2); 
.................... 		//W 
.................... 		printf(lcd_char,"DATE:20%02x/%02x/%02x ",year,month,day); 
.................... 		printf(lcd_char,"%s  -",tmp_week[week2index(week)]); 
.................... 		lcd_start(3); 
.................... 		if(flicker_500 == 0){	printf(lcd_char,"TIME:  :%02x:%02x        -",min,sec);//_ 
.................... 		}else{					printf(lcd_char,"TIME:%02x:%02x:%02x        -",hour,min,sec);} 
.................... 		lcd_start(6);	printf(lcd_char,"                     -"); 
.................... 		lcd_start(7);	printf(lcd_char,"<Enter> to Next.     -"); 
.................... 	}else if(mode == 506){ 
.................... 		lcd_start(2); 
.................... 		//W 
.................... 		printf(lcd_char,"DATE:20%02x/%02x/%02x ",year,month,day); 
.................... 		printf(lcd_char,"%s  -",tmp_week[week2index(week)]); 
.................... 		lcd_start(3); 
.................... 		if(flicker_500 == 0){	printf(lcd_char,"TIME:%02x:  :%02x        -",hour,sec);//_ 
.................... 		}else{					printf(lcd_char,"TIME:%02x:%02x:%02x        -",hour,min,sec);} 
.................... 		lcd_start(6);	printf(lcd_char,"                     -"); 
.................... 		lcd_start(7);	printf(lcd_char,"<Enter> to Next.     -"); 
.................... 	}else if(mode == 507){ 
.................... 		lcd_start(2); 
.................... 		//bW 
.................... 		printf(lcd_char,"DATE:20%02x/%02x/%02x ",year,month,day); 
.................... 		printf(lcd_char,"%s  -",tmp_week[week2index(week)]); 
.................... 		lcd_start(3); 
.................... 		if(flicker_500 == 0){	printf(lcd_char,"TIME:%02x:%02x:          -",hour,min);//_ 
.................... 		}else{					printf(lcd_char,"TIME:%02x:%02x:%02x        -",hour,min,sec);} 
.................... 		lcd_start(6);	printf(lcd_char,"                     -"); 
.................... 		lcd_start(7);	printf(lcd_char,"<Enter> to Next.     -"); 
.................... 	}else if(mode == 510){ 
.................... 		lcd_start(6);	printf(lcd_char,"Save?                -"); 
.................... 		lcd_start(7);	printf(lcd_char,"<Enter> or <Cancel>  -"); 
.................... 	} 
.................... 	lcd_start(4);	printf(lcd_char,"                     -"); 
.................... 	lcd_start(5);	printf(lcd_char,"                     -"); 
.................... } 
....................  
.................... //#include "process_lcd16x2txt.c" 
....................  
.................... //#include "am2321.c"//xExZT[ 
.................... //#include "lm13232afw.c"//OtBbNLCDW[ 
.................... //#include "tc74hc595.c"//oWbNIC 
.................... //#include "sw_process.c"//XCb` 
.................... //#include "tc74hc165.c"//WbNIC 
....................  
.................... //VA 
.................... #int_rda 
.................... void isr_rcv(){ 
.................... 	while(kbhit(c1)){  // }CRMobt@f[^SM 
*
0388C:  BTFSS  F9E.5
0388E:  BRA    38D6
.................... 		get_command_c1[get_command_value_c1] = fgetc(c1);//Mf[^o 
03890:  CLRF   03
03892:  MOVF   x66,W
03894:  ADDLW  67
03896:  MOVWF  FE9
03898:  MOVLW  00
0389A:  ADDWFC 03,W
0389C:  MOVWF  FEA
0389E:  MOVFF  FEA,45C
038A2:  MOVFF  FE9,45B
038A6:  BRA    3874
038A8:  MOVFF  45C,FEA
038AC:  MOVFF  45B,FE9
038B0:  MOVFF  01,FEF
.................... 		fprintf(c1,"%c",get_command_c1[get_command_value_c1]); 
038B4:  CLRF   03
038B6:  MOVF   x66,W
038B8:  ADDLW  67
038BA:  MOVWF  FE9
038BC:  MOVLW  00
038BE:  ADDWFC 03,W
038C0:  MOVWF  FEA
038C2:  MOVFF  FEF,459
038C6:  MOVLB  4
038C8:  MOVF   x59,W
038CA:  BTFSS  F9E.4
038CC:  BRA    38CA
038CE:  MOVWF  FAD
.................... 		get_command_value_c1++;//CfbNX{P 
038D0:  MOVLB  0
038D2:  INCF   x66,F
.................... 	} 
038D4:  BRA    388C
.................... } 
....................  
038D6:  BCF    F9E.5
038D8:  GOTO   006C
.................... #int_timer0 
.................... void int_timer(){ 
.................... 	//10msec 
....................  
.................... 	set_timer0(timer0_value);//^C}[lZbg 
038DC:  MOVFF  120,FD7
038E0:  MOVFF  11F,FD6
.................... 	 
.................... 	flicker_10 = !flicker_10; 
038E4:  MOVF   2E,F
038E6:  BZ    38EC
038E8:  MOVLW  00
038EA:  BRA    38EE
038EC:  MOVLW  01
038EE:  MOVWF  2E
.................... 	flicker_10_one = 1;	 
038F0:  MOVLW  01
038F2:  MOVWF  2F
.................... 	step_one = 1; 
038F4:  MOVLB  1
038F6:  MOVWF  x15
.................... 	input_process_one = 1; 
038F8:  MOVWF  40
.................... 	//ws2812_process_one = 1; 
.................... 	servo_process_one = 1; 
038FA:  MOVWF  41
....................  
.................... 	lcd_process_one++; 
038FC:  INCF   3E,F
.................... 	if(lcd_process_one == 1){ 
038FE:  DECFSZ 3E,W
03900:  BRA    3904
.................... 		//LCD{I20msecALCD 
....................  
.................... 		//C~l[VptO 
.................... 		//10msecXVLCDC~O 
.................... 		illumiled_process_one++; 
03902:  INCF   42,F
....................  
.................... 	} 
....................  
.................... 	//AiOl 
.................... 	//analog_value[analog_index] = read_adc()*4; 
.................... 	if(analog_index == 0){ 
03904:  MOVF   43,F
03906:  BNZ   392E
.................... 		re0 = read_adc()*2; 
03908:  BSF    FC2.1
0390A:  BTFSC  FC2.1
0390C:  BRA    390A
0390E:  MOVLB  4
03910:  BCF    FD8.0
03912:  RLCF   FC3,W
03914:  MOVWF  56
03916:  RLCF   FC4,W
03918:  MOVWF  57
....................  
.................... 		analog_index = 1; 
0391A:  MOVLW  01
0391C:  MOVWF  43
.................... 		set_adc_channel(6);//RE1(AN6) 
0391E:  MOVLW  18
03920:  MOVWF  01
03922:  MOVF   FC2,W
03924:  ANDLW  83
03926:  IORWF  01,W
03928:  MOVWF  FC2
.................... 	}else if(analog_index == 1){ 
0392A:  BRA    3952
0392C:  MOVLB  1
0392E:  DECFSZ 43,W
03930:  BRA    3954
.................... 		re1 = read_adc()*2; 
03932:  BSF    FC2.1
03934:  BTFSC  FC2.1
03936:  BRA    3934
03938:  MOVLB  4
0393A:  BCF    FD8.0
0393C:  RLCF   FC3,W
0393E:  MOVWF  58
03940:  RLCF   FC4,W
03942:  MOVWF  59
.................... 		 
.................... 		analog_index = 0; 
03944:  CLRF   43
.................... 		set_adc_channel(5);//RE0(AN5) 
03946:  MOVLW  14
03948:  MOVWF  01
0394A:  MOVF   FC2,W
0394C:  ANDLW  83
0394E:  IORWF  01,W
03950:  MOVWF  FC2
03952:  MOVLB  1
.................... 	} 
.................... 	 
.................... 	if(counttimer1 > 9){ 
03954:  MOVF   37,F
03956:  BNZ   395E
03958:  MOVF   36,W
0395A:  SUBLW  09
0395C:  BC    397E
.................... 		//100msecPs 
....................  
.................... 		counttimer1 = 0;//JE^[Zbg 
0395E:  CLRF   37
03960:  CLRF   36
....................  
.................... 		flicker_100 = !flicker_100; 
03962:  MOVF   30,F
03964:  BZ    396A
03966:  MOVLW  00
03968:  BRA    396C
0396A:  MOVLW  01
0396C:  MOVWF  30
.................... 		flicker_100_one = 1; 
0396E:  MOVLW  01
03970:  MOVWF  31
....................  
.................... 		//Ct\p 
.................... 		if(life_index == 3){ 
03972:  MOVF   x21,W
03974:  SUBLW  03
03976:  BNZ   397C
.................... 			life_index = 0; 
03978:  CLRF   x21
.................... 		}else{ 
0397A:  BRA    397E
.................... 			life_index++; 
0397C:  INCF   x21,F
.................... 		} 
.................... 	} 
.................... 	counttimer1++; 
0397E:  INCF   36,F
03980:  BTFSC  FD8.2
03982:  INCF   37,F
....................  
.................... 	if(counttimer2 > 49){ 
03984:  MOVF   39,F
03986:  BNZ   398E
03988:  MOVF   38,W
0398A:  SUBLW  31
0398C:  BC    39A2
.................... 		//500msecPs 
.................... 		 
.................... 		counttimer2 = 0;//JE^[Zbg 
0398E:  CLRF   39
03990:  CLRF   38
....................  
.................... 		flicker_500 = !flicker_500; 
03992:  MOVF   32,F
03994:  BZ    399A
03996:  MOVLW  00
03998:  BRA    399C
0399A:  MOVLW  01
0399C:  MOVWF  32
.................... 		flicker_500_one = 1; 
0399E:  MOVLW  01
039A0:  MOVWF  33
.................... 	} 
.................... 	counttimer2++; 
039A2:  INCF   38,F
039A4:  BTFSC  FD8.2
039A6:  INCF   39,F
....................  
.................... 	if(counttimer3 > 99){ 
039A8:  MOVF   3B,F
039AA:  BNZ   39B2
039AC:  MOVF   3A,W
039AE:  SUBLW  63
039B0:  BC    39C8
.................... 		//1secPs 
.................... 		 
.................... 		counttimer3 = 0;//JE^[Zbg 
039B2:  CLRF   3B
039B4:  CLRF   3A
.................... 		 
.................... 		flicker_1000 = !flicker_1000; 
039B6:  MOVF   34,F
039B8:  BZ    39BE
039BA:  MOVLW  00
039BC:  BRA    39C0
039BE:  MOVLW  01
039C0:  MOVWF  34
.................... 		flicker_1000_one = 1; 
039C2:  MOVLW  01
039C4:  MOVWF  35
....................  
.................... 		//xExv 
.................... 		//QPv 
.................... 		//am2321_read_one = 1; 
....................  
.................... 		//rtc 
.................... 		rtc_process_one = 1; 
039C6:  MOVWF  3F
.................... 	} 
.................... 	counttimer3++; 
039C8:  INCF   3A,F
039CA:  BTFSC  FD8.2
039CC:  INCF   3B,F
.................... 	counttimer4++; 
039CE:  INCF   3C,F
039D0:  BTFSC  FD8.2
039D2:  INCF   3D,F
....................  
.................... } 
....................  
.................... //X^[gAbv 
039D4:  BCF    FF2.2
039D6:  MOVLB  0
039D8:  GOTO   006C
.................... void startup(){ 
....................  
.................... 	//NbN 
.................... 	setup_oscillator(OSC_16MHZ|OSC_PLL_ON); 
*
03EFE:  MOVLW  70
03F00:  MOVWF  FD3
03F02:  BSF    F9B.6
03F04:  BCF    F9B.7
....................  
.................... 	setup_timer_0(RTCC_INTERNAL | RTCC_DIV_256 );// 
03F06:  MOVLW  87
03F08:  MOVWF  FD5
.................... 	enable_interrupts(INT_TIMER0); //^C} 
03F0A:  BSF    FF2.5
.................... 	enable_interrupts(INT_RDA); //VA 
03F0C:  BSF    F9D.5
.................... 	enable_interrupts(GLOBAL); //S 
03F0E:  MOVLW  C0
03F10:  IORWF  FF2,F
.................... 	setup_wdt(WDT_ON); 
03F12:  BSF    FD1.0
....................  
.................... 	//^C}[ 
.................... 	timer0_value = 0xffff - 627; 
03F14:  MOVLW  FD
03F16:  MOVLB  1
03F18:  MOVWF  x20
03F1A:  MOVLW  8C
03F1C:  MOVWF  x1F
.................... 	set_timer0(timer0_value); 
03F1E:  MOVFF  120,FD7
03F22:  MOVFF  11F,FD6
.................... 	//set_timer1(0); 
....................  
.................... 	//AiO|[g 
.................... 	setup_vref(VREF_2v048); 
03F26:  MOVLW  A0
03F28:  MOVLB  F
03F2A:  MOVWF  x42
.................... 	//setup_vref(VREF_4v096); 
.................... 	//setup_vref(VREF_ON|VREF_ADC_4v096); 
.................... 	setup_adc(ADC_CLOCK_INTERNAL); 
03F2C:  MOVF   FC0,W
03F2E:  ANDLW  C0
03F30:  IORLW  07
03F32:  MOVWF  FC0
03F34:  BSF    FC0.7
03F36:  BSF    FC2.0
.................... 	setup_adc_ports(sAN5|sAN6,VSS_FVR);//RE0(AN5),RE1(AN6) 
03F38:  MOVF   FC1,W
03F3A:  ANDLW  F0
03F3C:  IORLW  08
03F3E:  MOVWF  FC1
03F40:  MOVLW  00
03F42:  MOVWF  x38
03F44:  MOVLW  03
03F46:  MOVWF  x3C
03F48:  MOVLW  00
03F4A:  MOVWF  x39
03F4C:  MOVWF  x3A
03F4E:  MOVWF  x3B
.................... 	//setup_adc_ports(sAN12,VSS_FVR);//RB0 
....................  
.................... 	//|[g 0:OUT 1:IN 
.................... 	set_tris_a(0b00001111);//PORT1 
03F50:  MOVLW  0F
03F52:  MOVWF  F92
.................... 	set_tris_b(0b00000000);//PORT 
03F54:  MOVLW  00
03F56:  MOVWF  F93
.................... 	set_tris_c(0b10011000);//UART,I2C,PORT 
03F58:  MOVLW  98
03F5A:  MOVWF  F94
.................... 	set_tris_d(0b00000000);//PORT 
03F5C:  MOVLW  00
03F5E:  MOVWF  F95
.................... 	set_tris_e(0b00000011);//PORT 
03F60:  BSF    F96.0
03F62:  BSF    F96.1
03F64:  BCF    F96.2
03F66:  BCF    F96.3
....................  
.................... 	cpu_startup_case = restart_cause();//N[hL^ 
03F68:  MOVF   FD0,W
03F6A:  ANDLW  0F
03F6C:  BTFSS  FD0.4
03F6E:  MOVLW  00
03F70:  BSF    FD0.0
03F72:  BSF    FD0.1
03F74:  BSF    FD0.4
03F76:  BSF    FD8.3
03F78:  BSF    FD8.4
03F7A:  MOVWF  2D
....................  
.................... 	//l 
.................... 	//C[h 
.................... 	mode = READ_EEPROM(0x00) << 8;	mode = mode + READ_EEPROM(0x01);// 
03F7C:  MOVFF  FF2,43D
03F80:  BCF    FF2.7
03F82:  CLRF   FAA
03F84:  CLRF   FA9
03F86:  BCF    FA6.6
03F88:  BCF    FA6.7
03F8A:  BSF    FA6.0
03F8C:  MOVF   FA8,W
03F8E:  MOVLB  4
03F90:  BTFSC  x3D.7
03F92:  BSF    FF2.7
03F94:  MOVLB  1
03F96:  MOVWF  x12
03F98:  CLRF   x11
03F9A:  MOVFF  FF2,43D
03F9E:  BCF    FF2.7
03FA0:  CLRF   FAA
03FA2:  MOVLW  01
03FA4:  MOVWF  FA9
03FA6:  BCF    FA6.6
03FA8:  BCF    FA6.7
03FAA:  BSF    FA6.0
03FAC:  MOVF   FA8,W
03FAE:  MOVLB  4
03FB0:  BTFSC  x3D.7
03FB2:  BSF    FF2.7
03FB4:  MOVLB  1
03FB6:  ADDWF  x11,F
03FB8:  MOVLW  00
03FBA:  ADDWFC x12,F
.................... 	if(mode == 0xffff){		mode = 701;}//ftHgl 
03FBC:  INCFSZ x11,W
03FBE:  BRA    3FCC
03FC0:  INCFSZ x12,W
03FC2:  BRA    3FCC
03FC4:  MOVLW  02
03FC6:  MOVWF  x12
03FC8:  MOVLW  BD
03FCA:  MOVWF  x11
.................... 	//C~l[V 
.................... 	Illumi_color_set = 	READ_EEPROM(0x10);	if(Illumi_color_set == 0xff){Illumi_color_set = 3;} 
03FCC:  MOVFF  FF2,43D
03FD0:  BCF    FF2.7
03FD2:  CLRF   FAA
03FD4:  MOVLW  10
03FD6:  MOVWF  FA9
03FD8:  BCF    FA6.6
03FDA:  BCF    FA6.7
03FDC:  BSF    FA6.0
03FDE:  MOVF   FA8,W
03FE0:  MOVLB  4
03FE2:  BTFSC  x3D.7
03FE4:  BSF    FF2.7
03FE6:  MOVLB  1
03FE8:  MOVWF  x2E
03FEA:  INCFSZ x2E,W
03FEC:  BRA    3FF2
03FEE:  MOVLW  03
03FF0:  MOVWF  x2E
.................... 	Illumi_mode_set = 	READ_EEPROM(0x11);	if(Illumi_mode_set == 0xff){Illumi_mode_set = 1;} 
03FF2:  MOVFF  FF2,43D
03FF6:  BCF    FF2.7
03FF8:  CLRF   FAA
03FFA:  MOVLW  11
03FFC:  MOVWF  FA9
03FFE:  BCF    FA6.6
04000:  BCF    FA6.7
04002:  BSF    FA6.0
04004:  MOVF   FA8,W
04006:  MOVLB  4
04008:  BTFSC  x3D.7
0400A:  BSF    FF2.7
0400C:  MOVLB  1
0400E:  MOVWF  x2F
04010:  INCFSZ x2F,W
04012:  BRA    4018
04014:  MOVLW  01
04016:  MOVWF  x2F
.................... 	Illumi_speed = 		READ_EEPROM(0x12);	if(Illumi_speed == 0xff){Illumi_speed = 1;} 
04018:  MOVFF  FF2,43D
0401C:  BCF    FF2.7
0401E:  CLRF   FAA
04020:  MOVLW  12
04022:  MOVWF  FA9
04024:  BCF    FA6.6
04026:  BCF    FA6.7
04028:  BSF    FA6.0
0402A:  MOVF   FA8,W
0402C:  MOVLB  4
0402E:  BTFSC  x3D.7
04030:  BSF    FF2.7
04032:  MOVLB  1
04034:  MOVWF  x30
04036:  INCFSZ x30,W
04038:  BRA    403E
0403A:  MOVLW  01
0403C:  MOVWF  x30
.................... 	Illumi_signaltype = READ_EEPROM(0x13);	if(Illumi_signaltype == 0xff){Illumi_signaltype = 0;}//0=grb,1=rgb 
0403E:  MOVFF  FF2,43D
04042:  BCF    FF2.7
04044:  CLRF   FAA
04046:  MOVLW  13
04048:  MOVWF  FA9
0404A:  BCF    FA6.6
0404C:  BCF    FA6.7
0404E:  BSF    FA6.0
04050:  MOVF   FA8,W
04052:  MOVLB  4
04054:  BTFSC  x3D.7
04056:  BSF    FF2.7
04058:  MOVLB  1
0405A:  MOVWF  x31
0405C:  INCFSZ x31,W
0405E:  BRA    4062
04060:  CLRF   x31
.................... 	Illumi_timing = 	READ_EEPROM(0x14);	if(Illumi_timing == 0xff){Illumi_timing = 0;}//^C~Op^[ 
04062:  MOVFF  FF2,43D
04066:  BCF    FF2.7
04068:  CLRF   FAA
0406A:  MOVLW  14
0406C:  MOVWF  FA9
0406E:  BCF    FA6.6
04070:  BCF    FA6.7
04072:  BSF    FA6.0
04074:  MOVF   FA8,W
04076:  MOVLB  4
04078:  BTFSC  x3D.7
0407A:  BSF    FF2.7
0407C:  MOVLB  1
0407E:  MOVWF  x32
04080:  INCFSZ x32,W
04082:  BRA    4086
04084:  CLRF   x32
.................... 	Illumi_brightness = READ_EEPROM(0x15);	if(Illumi_brightness == 0xff){Illumi_brightness = 10;}// 
04086:  MOVFF  FF2,43D
0408A:  BCF    FF2.7
0408C:  CLRF   FAA
0408E:  MOVLW  15
04090:  MOVWF  FA9
04092:  BCF    FA6.6
04094:  BCF    FA6.7
04096:  BSF    FA6.0
04098:  MOVF   FA8,W
0409A:  MOVLB  4
0409C:  BTFSC  x3D.7
0409E:  BSF    FF2.7
040A0:  MOVLB  1
040A2:  MOVWF  x33
040A4:  INCFSZ x33,W
040A6:  BRA    40AC
040A8:  MOVLW  0A
040AA:  MOVWF  x33
....................  
.................... 	//C[hLCD[hf 
.................... 	//lcd_mode = mode; 
....................  
.................... 	if(mode == 0){ 
040AC:  MOVF   x11,F
040AE:  BNZ   40BC
040B0:  MOVF   x12,F
040B2:  BNZ   40BC
.................... 		cursor_index = 1; 
040B4:  CLRF   x14
040B6:  MOVLW  01
040B8:  MOVWF  x13
.................... 	}else if(mode == 10){					cursor_index = 1; 
040BA:  BRA    413E
040BC:  MOVF   x11,W
040BE:  SUBLW  0A
040C0:  BNZ   40CE
040C2:  MOVF   x12,F
040C4:  BNZ   40CE
040C6:  CLRF   x14
040C8:  MOVLW  01
040CA:  MOVWF  x13
.................... 	}else if(mode >= 100 && mode < 199){	cursor_index = 1; 
040CC:  BRA    413E
040CE:  MOVF   x12,F
040D0:  BNZ   40D8
040D2:  MOVF   x11,W
040D4:  SUBLW  63
040D6:  BC    40EA
040D8:  MOVF   x12,F
040DA:  BNZ   40EA
040DC:  MOVF   x11,W
040DE:  SUBLW  C6
040E0:  BNC   40EA
040E2:  CLRF   x14
040E4:  MOVLW  01
040E6:  MOVWF  x13
.................... 	}else if(mode == 600){					cursor_index = 1; 
040E8:  BRA    413E
040EA:  MOVF   x11,W
040EC:  SUBLW  58
040EE:  BNZ   40FE
040F0:  MOVF   x12,W
040F2:  SUBLW  02
040F4:  BNZ   40FE
040F6:  CLRF   x14
040F8:  MOVLW  01
040FA:  MOVWF  x13
.................... 	}else if(mode == 701){ 
040FC:  BRA    413E
040FE:  MOVF   x11,W
04100:  SUBLW  BD
04102:  BNZ   411C
04104:  MOVF   x12,W
04106:  SUBLW  02
04108:  BNZ   411C
.................... 		cursor_index = 1; 
0410A:  CLRF   x14
0410C:  MOVLW  01
0410E:  MOVWF  x13
.................... 		ws281x_color_set(Illumi_color_set); 
04110:  MOVFF  12E,441
04114:  MOVLB  0
04116:  RCALL  3BA6
.................... 	}else if(mode == 702){ 
04118:  BRA    4140
0411A:  MOVLB  1
0411C:  MOVF   x11,W
0411E:  SUBLW  BE
04120:  BNZ   413A
04122:  MOVF   x12,W
04124:  SUBLW  02
04126:  BNZ   413A
.................... 		cursor_index = 6; 
04128:  CLRF   x14
0412A:  MOVLW  06
0412C:  MOVWF  x13
.................... 		ws281x_color_set(Illumi_color_set); 
0412E:  MOVFF  12E,441
04132:  MOVLB  0
04134:  RCALL  3BA6
.................... 	}else{				cursor_index = 0;} 
04136:  BRA    4140
04138:  MOVLB  1
0413A:  CLRF   x14
0413C:  CLRF   x13
0413E:  MOVLB  0
....................  
.................... 	//dAeW[N 
.................... 	//delay_ms(100); 
.................... 	//delay_ms(500); 
....................  
.................... 	//EHb`hbO^C}[Zbg 
.................... 	restart_wdt(); 
04140:  CLRWDT
....................  
.................... 	//LCD 
.................... 	lcd_ini(); 
04142:  BRA    3E64
.................... 	//AQM1602AAQM0802Agpdw 
.................... 	 
.................... 	//X^[gXebv 
.................... 	//step = 0; 
.................... 	//delay_ms(100); 
.................... 	//lcd_start(1);	printf(lcd_char,"Hello!               -"); 
.................... 	//lcd_start(0);	printf(lcd_char,"Mode=%03lu             -",mode); 
.................... 	//lcd_start(2);	printf(lcd_char,"cursor_index=%03lu     -",cursor_index); 
.................... 	//lcd_start(3);	printf(lcd_char,"                     -"); 
.................... 	//lcd_start(4);	printf(lcd_char,"                     -"); 
.................... 	//lcd_start(5);	printf(lcd_char,"                     -"); 
.................... 	//lcd_start(6);	printf(lcd_char,"                     -"); 
.................... 	//lcd_start(7);	printf(lcd_char,"                     -"); 
.................... 	//delay_ms(500); 
.................... } 
04144:  GOTO   86E2 (RETURN)
....................  
.................... //C 
.................... void main(){ 
*
08410:  CLRF   FF8
08412:  BCF    FD0.7
08414:  BSF    07.7
08416:  CLRF   FEA
08418:  CLRF   FE9
0841A:  MOVLW  70
0841C:  MOVWF  FD3
0841E:  BSF    F9B.6
08420:  BCF    F9B.7
08422:  CLRF   1F
08424:  BSF    FB8.3
08426:  MOVLW  40
08428:  MOVWF  FAF
0842A:  MOVLW  03
0842C:  MOVWF  FB0
0842E:  MOVLW  A6
08430:  MOVWF  FAC
08432:  MOVLW  90
08434:  MOVWF  FAB
08436:  BSF    F94.3
08438:  BSF    F94.4
0843A:  BCF    FCB.0
0843C:  BCF    FCB.1
0843E:  BCF    FCB.3
08440:  MOVLW  7F
08442:  MOVWF  FC8
08444:  MOVLW  28
08446:  MOVWF  FC6
08448:  BSF    FC7.7
0844A:  BCF    FC7.6
0844C:  SETF   F77
0844E:  CLRF   2D
08450:  CLRF   2E
08452:  CLRF   2F
08454:  CLRF   30
08456:  CLRF   31
08458:  CLRF   32
0845A:  CLRF   33
0845C:  CLRF   34
0845E:  CLRF   35
08460:  CLRF   37
08462:  CLRF   36
08464:  CLRF   39
08466:  CLRF   38
08468:  CLRF   3B
0846A:  CLRF   3A
0846C:  CLRF   3D
0846E:  CLRF   3C
08470:  CLRF   3E
08472:  CLRF   3F
08474:  CLRF   40
08476:  CLRF   41
08478:  CLRF   42
0847A:  CLRF   43
0847C:  CLRF   48
0847E:  CLRF   49
08480:  CLRF   4A
08482:  CLRF   4B
08484:  CLRF   4C
08486:  CLRF   4D
08488:  CLRF   4E
0848A:  CLRF   4F
0848C:  CLRF   50
0848E:  CLRF   51
08490:  CLRF   52
08492:  CLRF   53
08494:  CLRF   54
08496:  CLRF   55
08498:  CLRF   57
0849A:  CLRF   56
0849C:  CLRF   59
0849E:  CLRF   58
084A0:  CLRF   5A
084A2:  CLRF   5B
084A4:  CLRF   5C
084A6:  CLRF   5D
084A8:  CLRF   5E
084AA:  CLRF   5F
084AC:  CLRF   x60
084AE:  CLRF   x61
084B0:  CLRF   x63
084B2:  CLRF   x62
084B4:  CLRF   x66
084B6:  MOVLB  1
084B8:  CLRF   x12
084BA:  MOVLW  0A
084BC:  MOVWF  x11
084BE:  CLRF   x14
084C0:  CLRF   x13
084C2:  CLRF   x15
084C4:  CLRF   x16
084C6:  CLRF   x17
084C8:  CLRF   x18
084CA:  CLRF   x19
084CC:  CLRF   x1A
084CE:  CLRF   x1B
084D0:  CLRF   x1D
084D2:  CLRF   x1C
084D4:  CLRF   x1E
084D6:  CLRF   x20
084D8:  CLRF   x1F
084DA:  CLRF   x21
084DC:  CLRF   x27
084DE:  CLRF   x28
084E0:  CLRF   x29
084E2:  MOVLW  01
084E4:  MOVWF  x2A
084E6:  MOVWF  x2B
084E8:  MOVWF  x2C
084EA:  MOVLW  19
084EC:  MOVWF  x2D
084EE:  CLRF   x2E
084F0:  CLRF   x2F
084F2:  MOVLW  01
084F4:  MOVWF  x30
084F6:  CLRF   x31
084F8:  CLRF   x32
084FA:  MOVLW  64
084FC:  MOVWF  x33
084FE:  MOVLW  01
08500:  MOVLB  4
08502:  MOVWF  x38
08504:  CLRF   x37
08506:  MOVLW  0A
08508:  MOVWF  x39
0850A:  CLRF   x3A
0850C:  CLRF   x3B
0850E:  MOVLW  16
08510:  MOVWF  x3C
08512:  MOVLB  1
08514:  CLRF   x88
08516:  MOVF   FC1,W
08518:  ANDLW  F0
0851A:  MOVWF  FC1
0851C:  MOVLW  00
0851E:  MOVLB  F
08520:  MOVWF  x38
08522:  MOVWF  x3C
08524:  MOVWF  x39
08526:  MOVWF  x3A
08528:  MOVWF  x3B
0852A:  CLRF   F77
0852C:  CLRF   F78
0852E:  CLRF   F79
08530:  CLRF   19
08532:  CLRF   1A
08534:  MOVLW  32
08536:  MOVWF  20
08538:  MOVLW  30
0853A:  MOVWF  21
0853C:  MOVLW  32
0853E:  MOVWF  22
08540:  MOVLW  30
08542:  MOVWF  23
08544:  MOVWF  24
08546:  MOVLW  35
08548:  MOVWF  25
0854A:  MOVLW  32
0854C:  MOVWF  26
0854E:  MOVLW  34
08550:  MOVWF  27
08552:  MOVLW  30
08554:  MOVWF  28
08556:  MOVLW  35
08558:  MOVWF  29
0855A:  MOVLW  31
0855C:  MOVWF  2A
0855E:  MOVLW  37
08560:  MOVWF  2B
08562:  CLRF   2C
08564:  CLRF   44
08566:  CLRF   45
08568:  CLRF   46
0856A:  CLRF   47
0856C:  MOVLW  2C
0856E:  MOVLB  0
08570:  MOVWF  x64
08572:  CLRF   x65
08574:  CLRF   x67
08576:  CLRF   x68
08578:  CLRF   x69
0857A:  CLRF   x6A
0857C:  CLRF   x6B
0857E:  CLRF   x6C
08580:  CLRF   x6D
08582:  CLRF   x6E
08584:  CLRF   x6F
08586:  CLRF   x70
08588:  CLRF   x71
0858A:  CLRF   x72
0858C:  CLRF   x73
0858E:  CLRF   x74
08590:  CLRF   x75
08592:  CLRF   x76
08594:  CLRF   x77
08596:  CLRF   x78
08598:  CLRF   x79
0859A:  CLRF   x7A
0859C:  CLRF   x7B
0859E:  CLRF   x7C
085A0:  CLRF   x7D
085A2:  CLRF   x7E
085A4:  CLRF   x7F
085A6:  CLRF   x80
085A8:  CLRF   x81
085AA:  CLRF   x82
085AC:  CLRF   x83
085AE:  CLRF   x84
085B0:  CLRF   x85
085B2:  CLRF   x86
085B4:  CLRF   x87
085B6:  CLRF   x88
085B8:  CLRF   x89
085BA:  CLRF   x8A
085BC:  CLRF   x8B
085BE:  CLRF   x8C
085C0:  CLRF   x8D
085C2:  CLRF   x8E
085C4:  CLRF   x8F
085C6:  CLRF   x90
085C8:  CLRF   x91
085CA:  CLRF   x92
085CC:  CLRF   x93
085CE:  CLRF   x94
085D0:  CLRF   x95
085D2:  CLRF   x96
085D4:  CLRF   x97
085D6:  CLRF   x98
085D8:  CLRF   x99
085DA:  CLRF   x9A
085DC:  CLRF   x9B
085DE:  CLRF   x9C
085E0:  CLRF   x9D
085E2:  CLRF   x9E
085E4:  CLRF   x9F
085E6:  CLRF   xA0
085E8:  CLRF   xA1
085EA:  CLRF   xA2
085EC:  CLRF   xA3
085EE:  CLRF   xA4
085F0:  CLRF   xA5
085F2:  CLRF   xA6
085F4:  CLRF   xA7
085F6:  CLRF   xA8
085F8:  CLRF   xA9
085FA:  CLRF   xAA
085FC:  CLRF   xAB
085FE:  CLRF   xAC
08600:  CLRF   xAD
08602:  CLRF   xAE
08604:  CLRF   xAF
08606:  CLRF   xB0
08608:  CLRF   xB1
0860A:  CLRF   xB2
0860C:  CLRF   xB3
0860E:  CLRF   xB4
08610:  CLRF   xB5
08612:  CLRF   xB6
08614:  CLRF   xB7
08616:  CLRF   xB8
08618:  CLRF   xB9
0861A:  CLRF   xBA
0861C:  CLRF   xBB
0861E:  CLRF   xBC
08620:  CLRF   xBD
08622:  CLRF   xBE
08624:  CLRF   xBF
08626:  CLRF   xC0
08628:  CLRF   xC1
0862A:  CLRF   xC2
0862C:  CLRF   xC3
0862E:  CLRF   xC4
08630:  CLRF   xC5
08632:  CLRF   xC6
08634:  CLRF   xC7
08636:  CLRF   xC8
08638:  CLRF   xC9
0863A:  CLRF   xCA
0863C:  CLRF   xCB
0863E:  CLRF   xCC
08640:  CLRF   xCD
08642:  CLRF   xCE
08644:  CLRF   xCF
08646:  CLRF   xD0
08648:  CLRF   xD1
0864A:  CLRF   xD2
0864C:  CLRF   xD3
0864E:  CLRF   xD4
08650:  CLRF   xD5
08652:  CLRF   xD6
08654:  CLRF   xD7
08656:  CLRF   xD8
08658:  CLRF   xD9
0865A:  CLRF   xDA
0865C:  CLRF   xDB
0865E:  CLRF   xDC
08660:  CLRF   xDD
08662:  CLRF   xDE
08664:  CLRF   xDF
08666:  CLRF   xE0
08668:  CLRF   xE1
0866A:  CLRF   xE2
0866C:  CLRF   xE3
0866E:  CLRF   xE4
08670:  CLRF   xE5
08672:  CLRF   xE6
08674:  CLRF   xE7
08676:  CLRF   xE8
08678:  CLRF   xE9
0867A:  CLRF   xEA
0867C:  CLRF   xEB
0867E:  CLRF   xEC
08680:  CLRF   xED
08682:  CLRF   xEE
08684:  CLRF   xEF
08686:  CLRF   xF0
08688:  CLRF   xF1
0868A:  CLRF   xF2
0868C:  CLRF   xF3
0868E:  CLRF   xF4
08690:  CLRF   xF5
08692:  CLRF   xF6
08694:  CLRF   xF7
08696:  CLRF   xF8
08698:  CLRF   xF9
0869A:  CLRF   xFA
0869C:  CLRF   xFB
0869E:  CLRF   xFC
086A0:  CLRF   xFD
086A2:  CLRF   xFE
086A4:  CLRF   xFF
086A6:  MOVLB  1
086A8:  CLRF   x00
086AA:  CLRF   x01
086AC:  CLRF   x02
086AE:  CLRF   x03
086B0:  CLRF   x04
086B2:  CLRF   x05
086B4:  CLRF   x06
086B6:  CLRF   x07
086B8:  CLRF   x08
086BA:  CLRF   x09
086BC:  CLRF   x0A
086BE:  CLRF   x0B
086C0:  CLRF   x0C
086C2:  CLRF   x0D
086C4:  CLRF   x0E
086C6:  CLRF   x0F
086C8:  CLRF   x10
086CA:  MOVLW  2F
086CC:  MOVWF  x22
086CE:  MOVLW  2D
086D0:  MOVWF  x23
086D2:  MOVLW  5F
086D4:  MOVWF  x24
086D6:  MOVLW  2E
086D8:  MOVWF  x25
086DA:  CLRF   x26
....................  
.................... 	//X^[gAbv 
.................... 	startup(); 
086DC:  MOVLB  0
086DE:  GOTO   3EFE
....................  
.................... 	while(true){ 
....................  
.................... 		restart_wdt();// WDT timer reset 
086E2:  CLRWDT
....................  
.................... 		// 
.................... 		if(input_process_one != 0){ 
086E4:  MOVF   40,F
086E6:  BZ    86EE
.................... 			input_process_one = 0; 
086E8:  CLRF   40
....................  
.................... 			input_process(); 
086EA:  GOTO   4148
.................... 		} 
....................  
.................... 		//xv 
.................... 		//if(am2321_read_one != 0){ 
.................... 		//	am2321_read_one = 0; 
....................  
.................... 		//	am2321_read(); 
.................... 		//} 
....................  
.................... 		if(mode >= 700 && mode < 800){ 
086EE:  MOVLB  1
086F0:  MOVF   x12,W
086F2:  SUBLW  01
086F4:  BC    8724
086F6:  XORLW  FF
086F8:  BNZ   8700
086FA:  MOVF   x11,W
086FC:  SUBLW  BB
086FE:  BC    8724
08700:  MOVF   x12,W
08702:  SUBLW  03
08704:  BNC   8724
08706:  BNZ   870E
08708:  MOVF   x11,W
0870A:  SUBLW  1F
0870C:  BNC   8724
.................... 			//modeselect_process(); 
....................  
.................... 			//C~l[VLED 
.................... 			illumiled_process(); 
0870E:  MOVLB  0
08710:  GOTO   684A
.................... 			if(lcd_process_one > 1){	lcd_process_one = 0;	illumiled_lcd_process();} 
08714:  MOVF   3E,W
08716:  SUBLW  01
08718:  BC    8720
0871A:  CLRF   3E
0871C:  GOTO   7082
.................... 		}else{ 
08720:  BRA    8730
08722:  MOVLB  1
.................... 			//LCD 
.................... 			//LCD 
.................... 			if(lcd_process_one > 0){	lcd_process_one = 0;	lcd_process();	} 
08724:  MOVF   3E,F
08726:  BZ    8732
08728:  CLRF   3E
0872A:  MOVLB  0
0872C:  GOTO   758E
08730:  MOVLB  1
.................... 		} 
....................  
.................... 		//o 
.................... 		output_process(); 
08732:  MOVLB  0
08734:  BRA    832A
.................... 	} 
08736:  BRA    86E2
.................... } 
....................  
.................... //void lcd_process(){ 
.................... // 
.................... //	aqmxx02a_setcursor(0,0); 
.................... //	printf(aqmxx02a_puts,"20191006 2132  e"); 
.................... //	aqmxx02a_setcursor(0,1); 
.................... //	printf(aqmxx02a_puts,"zeatec.jp      %c",life_char[life_index]); 
.................... // 
.................... //	//AQM1602A 
.................... //	//aqmxx02a_setcursor(0,0); 
.................... //	//printf(aqmxx02a_puts,"analog=%04lu,%04lu",analog_value[0],analog_value[1]); 
.................... //	//aqmxx02a_setcursor(0,1); 
.................... //	//printf(aqmxx02a_puts,"zeatec.jp      %c",life_char[life_index]); 
.................... // 
.................... //	//lcd_start(1);printf(lcd_char,"ZEATEC co.,ltd. "); 
.................... //	//lcd_start(2);printf(lcd_char," PIC16F46K22+LCD"); 
.................... // 
.................... //	//float f; 
.................... //	//f=12.345; 
.................... //	//printf(tostring,"\f%6.3f",f); 
.................... //} 
....................  
.................... //|[g 
.................... void input_process(){ 
.................... 	//10msec 
08738:  SLEEP 
....................  
.................... 	ra0 = !input(PIN_A0);sw1 = ra0; 
*
04148:  BSF    F92.0
0414A:  CLRF   48
0414C:  BTFSS  F80.0
0414E:  INCF   48,F
04150:  MOVFF  48,5A
.................... 	ra1 = !input(PIN_A1);sw2 = ra1; 
04154:  BSF    F92.1
04156:  CLRF   49
04158:  BTFSS  F80.1
0415A:  INCF   49,F
0415C:  MOVFF  49,5C
.................... 	ra2 = !input(PIN_A2);sw3 = ra2; 
04160:  BSF    F92.2
04162:  CLRF   4A
04164:  BTFSS  F80.2
04166:  INCF   4A,F
04168:  MOVFF  4A,5E
.................... 	ra3 = !input(PIN_A3);sw4 = ra3; 
0416C:  BSF    F92.3
0416E:  CLRF   4B
04170:  BTFSS  F80.3
04172:  INCF   4B,F
04174:  MOVFF  4B,60
.................... 	//ra4 = !input(PIN_A4); 
.................... 	//ra5 = !input(PIN_A5); 
.................... 	//ra6 = !input(PIN_A6); 
.................... 	//ra7 = !input(PIN_A7); 
....................  
.................... 	//I^lCg 
.................... 	//ra0 = !input(PIN_A0);	if(ra0_re != ra0 && ra0 == 0){	sw1 = 1;}	ra1_re = ra1; 
.................... 	//ra1 = !input(PIN_A1);	if(ra1_re != ra1 && ra1 == 0){	sw2 = 1;}	ra2_re = ra2; 
.................... 	//ra2 = !input(PIN_A2);	if(ra2_re != ra2 && ra2 == 0){	sw3 = 1;}	ra3_re = ra3;	 
.................... 	//ra3 = !input(PIN_A3);	if(ra3_re != ra3 && ra3 == 0){	sw4 = 1;}	ra4_re = ra4; 
....................  
.................... 	if(sw1 == 0){ 
04178:  MOVF   5A,F
0417A:  BNZ   4182
.................... 		sw1_count_longpress = 0; 
0417C:  CLRF   x63
0417E:  CLRF   x62
.................... 	}else if(sw1 == 1 && sw1_count_longpress < 100){ 
04180:  BRA    41AE
04182:  DECFSZ 5A,W
04184:  BRA    4198
04186:  MOVF   x63,F
04188:  BNZ   4198
0418A:  MOVF   x62,W
0418C:  SUBLW  63
0418E:  BNC   4198
.................... 		sw1_count_longpress++; 
04190:  INCF   x62,F
04192:  BTFSC  FD8.2
04194:  INCF   x63,F
.................... 	}else if(sw1 == 1 && sw1_count_longpress == 100){ 
04196:  BRA    41AE
04198:  DECFSZ 5A,W
0419A:  BRA    41AE
0419C:  MOVF   x62,W
0419E:  SUBLW  64
041A0:  BNZ   41AE
041A2:  MOVF   x63,F
041A4:  BNZ   41AE
.................... 		mode = 10; 
041A6:  MOVLB  1
041A8:  CLRF   x12
041AA:  MOVLW  0A
041AC:  MOVWF  x11
041AE:  MOVLB  0
.................... 		 
.................... 	} 
....................  
.................... } 
041B0:  GOTO   86EE (RETURN)
....................  
.................... //o|[g 
.................... void output_process(){ 
....................  
.................... 	//output_bit(PIN_A0,!0); 
.................... 	//output_bit(PIN_A1,!0); 
.................... 	//output_bit(PIN_A2,!0); 
.................... 	//output_bit(PIN_A3,!0); 
.................... 	ra4 = 0;output_bit(PIN_A4,!ra4); 
*
0832A:  CLRF   4C
0832C:  MOVF   4C,F
0832E:  BZ    8334
08330:  BCF    F89.4
08332:  BRA    8336
08334:  BSF    F89.4
08336:  BCF    F92.4
.................... 	ra5 = 0;output_bit(PIN_A5,!ra5); 
08338:  CLRF   4D
0833A:  BZ    8340
0833C:  BCF    F89.5
0833E:  BRA    8342
08340:  BSF    F89.5
08342:  BCF    F92.5
.................... 	//ra6 = 0;output_bit(PIN_A6,!ra6);//C~l[VLEDgp 
.................... 	//output_bit(PIN_A7,!flicker_10);//T[{vZXgp 
....................  
.................... 	output_bit(PIN_B0,!0);//rb0//flicker_500 
08344:  BSF    F8A.0
08346:  BCF    F93.0
.................... 	output_bit(PIN_B1,!0);//rb1//flicker_500 
08348:  BSF    F8A.1
0834A:  BCF    F93.1
.................... 	output_bit(PIN_B2,!flicker_100);//rb2 
0834C:  MOVF   30,F
0834E:  BZ    8354
08350:  BCF    F8A.2
08352:  BRA    8356
08354:  BSF    F8A.2
08356:  BCF    F93.2
.................... 	output_bit(PIN_B3,!flicker_500);//rb3 
08358:  MOVF   32,F
0835A:  BZ    8360
0835C:  BCF    F8A.3
0835E:  BRA    8362
08360:  BSF    F8A.3
08362:  BCF    F93.3
.................... 	output_bit(PIN_B4,!flicker_1000);//rb4 
08364:  MOVF   34,F
08366:  BZ    836C
08368:  BCF    F8A.4
0836A:  BRA    836E
0836C:  BSF    F8A.4
0836E:  BCF    F93.4
.................... 	output_bit(PIN_B5,!flicker_10);//rb5 
08370:  MOVF   2E,F
08372:  BZ    8378
08374:  BCF    F8A.5
08376:  BRA    837A
08378:  BSF    F8A.5
0837A:  BCF    F93.5
....................  
.................... 	// 
.................... 	//output_bit(PIN_C0,!flicker_10); 
.................... 	//output_bit(PIN_C1,!flicker_1000); 
.................... 	//output_bit(PIN_C2,!flicker_10); 
.................... 	//output_bit(PIN_C5,flicker_1000); 
....................  
.................... 	//output_bit(PIN_D0,!flicker_10); 
.................... 	//output_bit(PIN_D1,!flicker_1000); 
.................... 	//output_bit(PIN_D2,!flicker_10); 
.................... 	//output_bit(PIN_D3,!flicker_1000); 
.................... 	//output_bit(PIN_D4,!flicker_10); 
.................... 	//output_bit(PIN_D5,!flicker_1000); 
.................... 	//output_bit(PIN_D6,!flicker_10); 
.................... 	//output_bit(PIN_D7,!flicker_1000); 
....................  
.................... 	//output_bit(PIN_E0,!flicker_100);//flicker_1000 
.................... 	//output_bit(PIN_E1,!flicker_500);//flicker_1000 
.................... 	//output_bit(PIN_E2,!flicker_100); 
....................  
.................... 	switch(cpu_startup_case){ 
0837C:  MOVF   2D,W
0837E:  XORLW  07
08380:  BZ    839C
08382:  XORLW  0C
08384:  BZ    83AA
08386:  XORLW  04
08388:  BZ    83B8
0838A:  XORLW  03
0838C:  BZ    83C6
0838E:  XORLW  02
08390:  BZ    83D4
08392:  XORLW  0D
08394:  BZ    83E2
08396:  XORLW  03
08398:  BZ    83F0
0839A:  BRA    83FE
.................... 		//restart list. 
.................... 		//WDT_TIMEOUT       7 
.................... 		//MCLR_FROM_SLEEP  11 
.................... 		//MCLR_FROM_RUN    15 
.................... 		//NORMAL_POWER_UP  12 
.................... 		//BROWNOUT_RESTART 14 
.................... 		//WDT_FROM_SLEEP    3 
.................... 		//RESET_INSTRUCTION 0 
.................... 		case WDT_TIMEOUT:		output_bit(PIN_E2,!flicker_10);		break; 
0839C:  MOVF   2E,F
0839E:  BZ    83A4
083A0:  BCF    F8D.2
083A2:  BRA    83A6
083A4:  BSF    F8D.2
083A6:  BCF    F96.2
083A8:  BRA    840C
.................... 		case MCLR_FROM_SLEEP:	output_bit(PIN_E2,!flicker_100);	break; 
083AA:  MOVF   30,F
083AC:  BZ    83B2
083AE:  BCF    F8D.2
083B0:  BRA    83B4
083B2:  BSF    F8D.2
083B4:  BCF    F96.2
083B6:  BRA    840C
.................... 		case MCLR_FROM_RUN:		output_bit(PIN_E2,!flicker_100);	break;		 
083B8:  MOVF   30,F
083BA:  BZ    83C0
083BC:  BCF    F8D.2
083BE:  BRA    83C2
083C0:  BSF    F8D.2
083C2:  BCF    F96.2
083C4:  BRA    840C
.................... 		case NORMAL_POWER_UP:	output_bit(PIN_E2,!flicker_1000);	break; 
083C6:  MOVF   34,F
083C8:  BZ    83CE
083CA:  BCF    F8D.2
083CC:  BRA    83D0
083CE:  BSF    F8D.2
083D0:  BCF    F96.2
083D2:  BRA    840C
.................... 		case BROWNOUT_RESTART:	output_bit(PIN_E2,!flicker_100);	break;		 
083D4:  MOVF   30,F
083D6:  BZ    83DC
083D8:  BCF    F8D.2
083DA:  BRA    83DE
083DC:  BSF    F8D.2
083DE:  BCF    F96.2
083E0:  BRA    840C
.................... 		case WDT_FROM_SLEEP:	output_bit(PIN_E2,!flicker_100);	break; 
083E2:  MOVF   30,F
083E4:  BZ    83EA
083E6:  BCF    F8D.2
083E8:  BRA    83EC
083EA:  BSF    F8D.2
083EC:  BCF    F96.2
083EE:  BRA    840C
.................... 		case RESET_INSTRUCTION:	output_bit(PIN_E2,!flicker_100);	break; 
083F0:  MOVF   30,F
083F2:  BZ    83F8
083F4:  BCF    F8D.2
083F6:  BRA    83FA
083F8:  BSF    F8D.2
083FA:  BCF    F96.2
083FC:  BRA    840C
.................... 		default:				output_bit(PIN_E2,!flicker_500);	break; 
083FE:  MOVF   32,F
08400:  BZ    8406
08402:  BCF    F8D.2
08404:  BRA    8408
08406:  BSF    F8D.2
08408:  BCF    F96.2
0840A:  BRA    840C
.................... 	} 
....................  
.................... 	//PORT1 
....................  
.................... 	//PORT2 
....................  
.................... 	//PORT3 
....................  
.................... } 
0840C:  GOTO   8736 (RETURN)
....................  
.................... //XCb`(ev[g) 
.................... /* void sw_process(){ 
.................... 	int tmp_sw1_true = 0,tmp_sw2_true = 0,tmp_sw3_true = 0,tmp_sw4_true = 0; 
....................  
.................... 	//XCb` 
.................... 	if(sw1_re != sw1 && sw1 == 0){	tmp_sw1_true = 1;}	sw1_re = sw1; 
.................... 	if(sw2_re != sw2 && sw2 == 0){	tmp_sw2_true = 1;}	sw2_re = sw2; 
.................... 	if(sw3_re != sw3 && sw3 == 0){	tmp_sw3_true = 1;}	sw3_re = sw3; 
.................... 	if(sw4_re != sw4 && sw4 == 0){	tmp_sw4_true = 1;}	sw4_re = sw4; 
....................  
.................... 	//enter 
.................... 	if(tmp_sw1_true != 0){tmp_sw1_true = 0; 
.................... 	} 
....................  
.................... 	//cansel 
.................... 	if(tmp_sw2_true != 0){tmp_sw2_true = 0; 
.................... 	} 
....................  
.................... 	// 
.................... 	if(tmp_sw3_true != 0){tmp_sw3_true = 0; 
.................... 	} 
.................... 	// 
.................... 	if(tmp_sw4_true != 0){tmp_sw4_true = 0; 
.................... 	} 
.................... } 
....................  */ 
....................  
.................... //[hZNg 
.................... /* void modeselect_process(){ 
.................... 	int tmp_sw1_true = 0,tmp_sw2_true = 0,tmp_sw3_true = 0,tmp_sw4_true = 0; 
....................  
.................... 	//XCb` 
.................... 	if(sw1_re != sw1 && sw1 == 0){	tmp_sw1_true = 1;}	sw1_re = sw1; 
.................... 	if(sw2_re != sw2 && sw2 == 0){	tmp_sw2_true = 1;}	sw2_re = sw2; 
.................... 	if(sw3_re != sw3 && sw3 == 0){	tmp_sw3_true = 1;}	sw3_re = sw3; 
.................... 	if(sw4_re != sw4 && sw4 == 0){	tmp_sw4_true = 1;}	sw4_re = sw4; 
....................  
.................... 	//enter 
.................... 	if(tmp_sw1_true != 0){tmp_sw1_true = 0; 
....................  
.................... 		if(mode <10){ 
.................... 			//I[vjO 
....................  
.................... 			mode = 10;	 
.................... 			if(cursor_index == 1){ 
.................... 				//\ 
.................... 				save_mode(0); 
.................... 			}else if(cursor_index == 2){ 
.................... 				//\[ 
.................... 				save_mode(mode); 
.................... 			} 
.................... 			cursor_index = 1; 
.................... 		}else if(mode >= 10 && mode <100){ 
.................... 			//[hI 
....................  
.................... 			mode = cursor_index*100; 
.................... 			//lcd_mode = mode; 
....................  
.................... 			save_mode(mode);//[ 
....................  
.................... 			//y[WJ[\ 
.................... 			if(cursor_index == 1){			cursor_index = 1;//n[hEFACtH 
.................... 			}else if(cursor_index == 2){ 
.................... 			}else if(cursor_index == 6){	cursor_index = 1;//T[{ 
.................... 			}else if(cursor_index == 7){	cursor_index = 1;//C~l[VLED 
.................... 			}else{							cursor_index = 0;	} 
.................... 		} 
....................  
.................... 	} 
....................  
.................... 	//cansel 
.................... 	if(tmp_sw2_true != 0){tmp_sw2_true = 0;	} 
....................  
.................... 	//up 
.................... 	if(tmp_sw3_true != 0){tmp_sw3_true = 0; 
.................... 		//J[\ 
.................... 		if(mode < 10){						if(cursor_index > 1){	cursor_index--;	} 
.................... 		}else if(mode >= 10 && mode <100){	if(cursor_index > 1){	cursor_index--;	}} 
.................... 	} 
.................... 	//down 
.................... 	if(tmp_sw4_true != 0){tmp_sw4_true = 0; 
.................... 		//J[\ 
.................... 		if(mode <10){						if(cursor_index < 2){	cursor_index++;	} 
.................... 		}else if(mode >= 10 && mode <100){	if(cursor_index < 12){	cursor_index++;	}} 
.................... 	} 
.................... } */ 
....................  
.................... //VA|[gR}h 
.................... void serial_process1(){ 
.................... 	int tmp1 = 0; 
.................... 	char *command; 
.................... 	//long long_param1; 
.................... 	//char *str_param1; 
.................... 	//char *str_param2; 
.................... 	//int rdata = 0; 
.................... 	//int tmp_alarm_id = 0; 
....................  
.................... 	if(get_command_c1[get_command_value_c1-1]==0xd){ 
.................... 		//R}hp[^ 
.................... 		command = strtok(get_command_c1,punctuate); 
.................... 		//param1 = atoi(strtok(null,punctuate)); 
.................... 		//param1 = strtok(null,punctuate); 
....................  
.................... 		fprintf(c1,"\r\n"); 
....................  
.................... 		//wv 
.................... 		strcpy(compare_command_c1,"?\r"); 
.................... 		if(strcmp(command,compare_command_c1)==0){ 
.................... 			fprintf(c1,"ZT-****-SOFT Ver.0.90 UART1\r\n"); 
.................... 			fprintf(c1,"analog_value=%04ldmV\r\n",analog_value); 
.................... 			fprintf(c1,"ra1=%d\r\n",ra1); 
.................... 			//fprintf(c1,"temperature=%ld\r\n",temperature);//x 
.................... 			//fprintf(c1,"humidity=%ld\r\n",humidity);//x 
.................... 			//fprintf(c1,"0=SUN,1=mon,2=tue,3=wed,4=thu,5=fri,6=sat,7=all,8=week,9=off,\r\n"); 
.................... 			 
.................... 		} 
....................  
.................... 		//strcpy(compare_command_c1,"p"); 
.................... 		//if(strcmp(command,compare_command_c1)==0){ 
.................... 		//	//p[^ 
.................... 		//	//up,1v1param1 
.................... 		//	fprintf(c1,"param1_u=%u ok.\r\n",param1); 
.................... 		//} 
....................  
.................... 		//SNA 
.................... 		for(tmp1=0;tmp1<80;++tmp1){ 
.................... 			get_command_c1[tmp1] = 0x0; 
.................... 		} 
.................... 		get_command_value_c1 = 0; 
....................  
.................... 		//QpR}hNA 
.................... 		for(tmp1=0;tmp1<10;++tmp1){ 
.................... 			compare_command_c1[tmp1] = 0x0; 
.................... 		} 
.................... 	} 
.................... } 
....................  
.................... //[[h 
.................... void save_mode(long save_mode){ 
*
041B4:  MOVLB  4
041B6:  CLRF   x44
041B8:  MOVLW  0A
041BA:  MOVWF  x43
.................... 	long tmp_mode = 10; 
.................... 	tmp_mode = save_mode; 
041BC:  MOVFF  442,444
041C0:  MOVFF  441,443
.................... 	write_eeprom(0x01,tmp_mode);	tmp_mode = tmp_mode >> 8; 
041C4:  CLRF   FAA
041C6:  MOVLW  01
041C8:  MOVWF  FA9
041CA:  MOVFF  443,FA8
041CE:  BCF    FA6.6
041D0:  BCF    FA6.7
041D2:  BSF    FA6.2
041D4:  MOVF   FF2,W
041D6:  MOVWF  00
041D8:  BCF    FF2.7
041DA:  MOVLB  F
041DC:  MOVLW  55
041DE:  MOVWF  FA7
041E0:  MOVLW  AA
041E2:  MOVWF  FA7
041E4:  BSF    FA6.1
041E6:  BTFSC  FA6.1
041E8:  BRA    41E6
041EA:  BCF    FA6.2
041EC:  MOVF   00,W
041EE:  IORWF  FF2,F
041F0:  MOVFF  444,443
041F4:  MOVLB  4
041F6:  CLRF   x44
.................... 	write_eeprom(0x00,tmp_mode); 
041F8:  CLRF   FAA
041FA:  CLRF   FA9
041FC:  MOVFF  443,FA8
04200:  BCF    FA6.6
04202:  BCF    FA6.7
04204:  BSF    FA6.2
04206:  MOVF   FF2,W
04208:  MOVWF  00
0420A:  BCF    FF2.7
0420C:  MOVLB  F
0420E:  MOVLW  55
04210:  MOVWF  FA7
04212:  MOVLW  AA
04214:  MOVWF  FA7
04216:  BSF    FA6.1
04218:  BTFSC  FA6.1
0421A:  BRA    4218
0421C:  BCF    FA6.2
0421E:  MOVF   00,W
04220:  IORWF  FF2,F
.................... } 
04222:  MOVLB  0
04224:  RETURN 0

Configuration Fuses:
   Word  1: F800   INTRC_IO PLLEN PRIMARY_ON FCMEN IESO
   Word  2: 1A18   PUT NOBROWNOUT BORV19 WDT_SW WDT64
   Word  3: BF00   CCP2C1 PBADEN CCP3B5 HFOFST TIMER3C0 CCP2D2 MCLR
   Word  4: 0081   STVREN NOLVP NOXINST NODEBUG
   Word  5: C000   PROTECT NOCPB NOCPD
   Word  6: E00F   NOWRT NOWRTC NOWRTB NOWRTD
   Word  7: 400F   NOEBTR NOEBTRB
