CCS PCH C Compiler, Version 4.132, 64318               14-6-20 17:56

               Filename: C:\Users\user\Desktop\ZT-PIC18F46K2201_Signboard\main.lst

               ROM used: 21246 bytes (32%)
                         Largest free fragment is 44286
               RAM used: 1080 (28%) at main() level
                         1109 (28%) worst case
               Stack:    7 worst case (5 in main + 2 for interrupts)

*
00000:  GOTO   4FE4
*
00008:  MOVWF  04
0000A:  MOVFF  FD8,05
0000E:  MOVFF  FE0,06
00012:  MOVLB  0
00014:  MOVFF  FE9,0C
00018:  MOVFF  FEA,07
0001C:  MOVFF  FE1,08
00020:  MOVFF  FE2,09
00024:  MOVFF  FD9,0A
00028:  MOVFF  FDA,0B
0002C:  MOVFF  FF3,12
00030:  MOVFF  FF4,13
00034:  MOVFF  FFA,14
00038:  MOVFF  FF5,15
0003C:  MOVFF  FF6,16
00040:  MOVFF  FF7,17
00044:  MOVFF  00,0E
00048:  MOVFF  01,0F
0004C:  MOVFF  02,10
00050:  MOVFF  03,11
00054:  BTFSS  FF2.5
00056:  GOTO   0060
0005A:  BTFSC  FF2.2
0005C:  GOTO   328A
00060:  BTFSS  F9D.5
00062:  GOTO   006C
00066:  BTFSC  F9E.5
00068:  GOTO   323A
0006C:  MOVFF  0E,00
00070:  MOVFF  0F,01
00074:  MOVFF  10,02
00078:  MOVFF  11,03
0007C:  MOVFF  0C,FE9
00080:  MOVFF  07,FEA
00084:  BSF    07.7
00086:  MOVFF  08,FE1
0008A:  MOVFF  09,FE2
0008E:  MOVFF  0A,FD9
00092:  MOVFF  0B,FDA
00096:  MOVFF  12,FF3
0009A:  MOVFF  13,FF4
0009E:  MOVFF  14,FFA
000A2:  MOVFF  15,FF5
000A6:  MOVFF  16,FF6
000AA:  MOVFF  17,FF7
000AE:  MOVF   04,W
000B0:  MOVFF  06,FE0
000B4:  MOVFF  05,FD8
000B8:  RETFIE 0
.................... #include <18f46k22.h> 
.................... //////// Standard Header file for the PIC18F46K22 device //////////////// 
.................... #device PIC18F46K22 
.................... #list 
....................  
.................... #device ADC=10 
.................... #include <string.h> 
.................... //////////////////////////////////////////////////////////////////////////// 
.................... ////        (C) Copyright 1996,2008 Custom Computer Services            //// 
.................... //// This source code may only be used by licensed users of the CCS C   //// 
.................... //// compiler.  This source code may only be distributed to other       //// 
.................... //// licensed users of the CCS C compiler.  No other use, reproduction  //// 
.................... //// or distribution is permitted without written permission.           //// 
.................... //// Derivative programs created using this software in object code     //// 
.................... //// form are not restricted in any way.                                //// 
.................... //////////////////////////////////////////////////////////////////////////// 
....................  
.................... #ifndef _STRING 
.................... #define _STRING 
.................... #include <stddef.h> 
.................... /////////////////////////////////////////////////////////////////////////// 
.................... ////        (C) Copyright 1996,2003 Custom Computer Services           //// 
.................... //// This source code may only be used by licensed users of the CCS C  //// 
.................... //// compiler.  This source code may only be distributed to other      //// 
.................... //// licensed users of the CCS C compiler.  No other use, reproduction //// 
.................... //// or distribution is permitted without written permission.          //// 
.................... //// Derivative programs created using this software in object code    //// 
.................... //// form are not restricted in any way.                               //// 
.................... /////////////////////////////////////////////////////////////////////////// 
....................  
.................... #ifndef _STDDEF 
....................  
.................... #define _STDDEF 
....................  
.................... #if sizeof(unsigned int8 *)==1 
.................... #define ptrdiff_t unsigned int8 
.................... #else 
.................... #define ptrdiff_t unsigned int16 
.................... #endif 
....................  
.................... #if defined(__PCB__) 
.................... #define size_t unsigned int8 
.................... #else 
.................... #define size_t unsigned int16 
.................... #endif 
.................... #define wchar_t char 
.................... #define NULL 0 
....................  
.................... #define offsetof(s,f) (offsetofbit(s,f)/8) 
....................  
.................... #endif 
....................  
.................... #include <ctype.h> 
.................... //////////////////////////////////////////////////////////////////////////// 
.................... ////        (C) Copyright 1996,2003 Custom Computer Services            //// 
.................... //// This source code may only be used by licensed users of the CCS C   //// 
.................... //// compiler.  This source code may only be distributed to other       //// 
.................... //// licensed users of the CCS C compiler.  No other use, reproduction  //// 
.................... //// or distribution is permitted without written permission.           //// 
.................... //// Derivative programs created using this software in object code     //// 
.................... //// form are not restricted in any way.                                //// 
.................... //////////////////////////////////////////////////////////////////////////// 
....................  
.................... #ifndef _CTYPE 
.................... #define _CTYPE 
....................  
.................... #define islower(x)  isamong(x,"abcdefghijklmnopqrstuvwxyz") 
.................... #define isupper(x)  isamong(x,"ABCDEFGHIJKLMNOPQRSTUVWXYZ") 
.................... #define isalnum(x)  isamong(x,"0123456789ABCDEFGHIJKLMNOPQRSTUVWXYZabcdefghijklmnopqrstuvwxyz") 
.................... #define isalpha(x)  isamong(x,"ABCDEFGHIJKLMNOPQRSTUVWXYZabcdefghijklmnopqrstuvwxyz") 
.................... #define isdigit(x)  isamong(x,"0123456789") 
.................... #define isspace(x)  ((x)==' ') 
.................... #define isxdigit(x) isamong(x,"0123456789ABCDEFabcdef") 
.................... #define iscntrl(x)  ((x)<' ') 
.................... #define isprint(x)  ((x)>=' ') 
.................... #define isgraph(x)  ((x)>' ') 
.................... #define ispunct(x)  (((x)>' ')&&!isalnum(x)) 
....................  
.................... #endif 
....................  
....................  
....................  
....................  
....................  
.................... ////////////////////////////////////////////// 
.................... //// Uncomment the following define to    //// 
.................... //// allow some functions to use a        //// 
.................... //// quicker algorithm, but use more ROM  //// 
.................... ////                                      //// 
.................... //// #define FASTER_BUT_MORE_ROM          //// 
.................... ////////////////////////////////////////////// 
....................  
....................  
....................  
.................... /*Copying functions*/ 
.................... /* standard template: 
....................    void *memmove(void *s1, void *s2, size_t n). 
....................    Copies max of n characters safely (not following ending '\0') 
....................    from s2 in s1; if s2 has less than n characters, appends 0 */ 
....................  
.................... char *memmove(void *s1,char *s2,size_t n) 
.................... { 
....................    char *sc1; 
....................    char *sc2; 
....................    sc1=s1; 
....................    sc2=s2; 
....................    if(sc2<sc1 && sc1 <sc2 +n) 
....................       for(sc1+=n,sc2+=n;0<n;--n) 
....................          *--sc1=*--sc2; 
....................    else 
....................       for(;0<n;--n) 
....................          *sc1++=*sc2++; 
....................   return s1; 
....................   } 
....................  
.................... /* Standard template: char *strcpy(char *s1, const char *s2) 
....................    copies the string s2 including the null character to s1. 
....................    This is a compiler built in to handle the different address 
....................    spaces */ 
....................  
.................... #define strcopy strcpy 
....................  
.................... /* standard template: 
....................    char *strncpy(char *s1, const char *s2, size_t n). 
....................    Copies max of n characters (not following ending '\0') 
....................    from s2 in s1; if s2 has less than n characters, appends 0 */ 
....................  
.................... char *strncpy(char *s1, char *s2, size_t n) 
.................... { 
....................   char *s; 
....................  
....................   for (s = s1; n > 0 && *s2 != '\0'; n--) 
....................      *s++ = *s2++; 
....................   for (; n > 0; n--) 
....................      *s++ = '\0'; 
....................  
....................   return(s1); 
.................... } 
.................... /***********************************************************/ 
....................  
.................... /*concatenation functions*/ 
.................... /* standard template: char *strcat(char *s1, const char *s2) 
.................... appends s2 to s1*/ 
....................  
.................... char *strcat(char *s1, char *s2) 
.................... { 
....................    char *s; 
....................  
....................    for (s = s1; *s != '\0'; ++s); 
....................    while(*s2 != '\0') 
....................    { 
....................       *s = *s2; 
....................       ++s; 
....................       ++s2; 
....................    } 
....................  
....................    *s = '\0'; 
....................    return(s1); 
.................... } 
.................... /* standard template: char *strncat(char *s1, char *s2,size_t n) 
.................... appends not more than n characters from s2 to s1*/ 
....................  
.................... char *strncat(char *s1, char *s2, size_t n) 
.................... { 
....................    char *s; 
....................  
....................    for (s = s1; *s != '\0'; ++s); 
....................    while(*s2 != '\0' && 0<n) 
....................    { 
....................       *s = *s2; 
....................       ++s; 
....................       ++s2; 
....................       --n; 
....................    } 
....................  
....................    *s = '\0'; 
....................    return(s1); 
.................... } 
....................  
.................... /***********************************************************/ 
....................  
....................  
.................... /*comparison functions*/ 
.................... /* standard template: signed int memcmp(void *s1, void *s2). 
....................    Compares s1 & s2; returns -1 if s1<s2, 0 if s1=s2, 1 if s1>s2 */ 
....................  
.................... signed int8 memcmp(void * s1,char *s2,size_t n) 
.................... { 
.................... char *su1, *su2; 
.................... for(su1=s1, su2=s2; 0<n; ++su1, ++su2, --n) 
.................... { 
....................    if(*su1!=*su2) 
....................       return ((*su1<*su2)?-1:+1); 
.................... } 
.................... return 0; 
.................... } 
....................  
.................... /* standard template: int strcmp(const char *s1, const char *s2). 
....................    Compares s1 & s2; returns -1 if s1<s2, 0 if s1=s2, 1 if s1>s2 */ 
....................  
.................... signed int8 strcmp(char *s1, char *s2) 
.................... { 
....................    for (; *s1 == *s2; s1++, s2++) 
....................       if (*s1 == '\0') 
....................          return(0); 
....................    return((*s1 < *s2) ? -1: 1); 
.................... } 
.................... /* standard template: int strcoll(const char *s1, const char *s2). 
....................    Compares s1 & s2; returns -1 if s1<s2, 0 if s1=s2, 1 if s1>s2 */ 
....................  
.................... signed int8 strcoll(char *s1, char *s2) 
.................... { 
....................    for (; *s1 == *s2; s1++, s2++) 
....................       if (*s1 == '\0') 
....................          return(0); 
....................    return((*s1 < *s2) ? -1: 1); 
.................... } 
....................  
.................... /* standard template: 
....................    int strncmp(const char *s1, const char *s2, size_t n). 
....................    Compares max of n characters (not following 0) from s1 to s2; 
....................    returns same as strcmp */ 
....................  
.................... signed int8 strncmp(char *s1, char *s2, size_t n) 
.................... { 
....................    for (; n > 0; s1++, s2++, n--) 
....................       if (*s1 != *s2) 
....................          return((*s1 <*s2) ? -1: 1); 
....................       else if (*s1 == '\0') 
....................          return(0); 
....................    return(0); 
.................... } 
.................... /* standard template: 
....................    int strxfrm(const char *s1, const char *s2, size_t n). 
....................    transforms maximum of n characters from s2 and places them into s1*/ 
.................... size_t strxfrm(char *s1, char *s2, size_t n) 
.................... { 
....................   char *s; 
....................   unsigned int8 n1; 
....................   n1=n; 
....................   for (s = s1; n > 0 && *s2 != '\0'; n--) 
....................      *s++ = *s2++; 
....................   for (; n > 0; n--) 
....................      *s++ = '\0'; 
....................  
....................   return(n1); 
.................... } 
....................  
....................  
....................  
....................  
....................  
.................... /***********************************************************/ 
.................... /*Search functions*/ 
.................... /* standard template: void *memchr(const char *s, int c). 
....................    Finds first occurrence of c in n characters of s */ 
....................  
.................... char *memchr(void *s,unsigned int8 c,size_t n) 
.................... { 
....................    char uc; 
....................    char *su; 
....................    uc=c; 
....................    for(su=s;0<n;++su,--n) 
....................       if(*su==uc) 
....................       return su; 
....................    return NULL; 
.................... } 
....................  
.................... /* standard template: char *strchr(const char *s, int c). 
....................    Finds first occurrence of c in s */ 
....................  
.................... char *strchr(char *s, unsigned int8 c) 
.................... { 
....................    for (; *s != c; s++) 
....................       if (*s == '\0') 
....................          return(0); 
....................    return(s); 
.................... } 
.................... /* standard template: 
....................    size_t strcspn(const char *s1, const char *s2). 
....................    Computes length of max initial segment of s1 that 
....................    consists entirely of characters NOT from s2*/ 
....................  
.................... unsigned int8  strcspn(char *s1, char *s2) 
.................... { 
....................    char *sc1, *sc2; 
....................  
....................    for (sc1 = s1; *sc1 != 0; sc1++) 
....................       for (sc2 = s2; *sc2 != 0; sc2++) 
....................          if (*sc1 == *sc2) 
....................             return(sc1 - s1); 
....................    return(sc1 - s1); 
.................... } 
.................... /* standard template: 
....................    char *strpbrk(const char *s1, const char *s2). 
....................    Locates first occurence of any character from s2 in s1; 
....................    returns s1 if s2 is empty string */ 
....................  
.................... char *strpbrk(char *s1, char *s2) 
.................... { 
....................    char *sc1, *sc2; 
....................  
....................    for (sc1 = s1; *sc1 != 0; sc1++) 
....................       for (sc2 = s2; *sc2 != 0; sc2++) 
....................          if (*sc1 == *sc2) 
....................             return(sc1); 
....................    return(0); 
.................... } 
....................  
....................  
.................... /* standard template: char *strrchr(const char *s, int c). 
....................    Finds last occurrence of c in s */ 
....................  
.................... char *strrchr(char *s, unsigned int8 c) 
.................... { 
....................    char *p; 
....................  
....................    for (p = 0; ; s++) 
....................    { 
....................       if (*s == c) 
....................          p = s; 
....................       if (*s == '\0') 
....................          return(p); 
....................    } 
.................... } 
.................... /* computes length of max initial segment of s1 consisting 
....................    entirely of characters from s2 */ 
....................  
.................... unsigned int8  strspn(char *s1, char *s2) 
.................... { 
....................    char *sc1, *sc2; 
....................  
....................    for (sc1 = s1; *sc1 != 0; sc1++) 
....................       for (sc2 = s2; ; sc2++) 
....................     if (*sc2 == '\0') 
....................        return(sc1 - s1); 
....................          else if (*sc1 == *sc2) 
....................             break; 
....................    return(sc1 - s1); 
.................... } 
.................... /* standard template: 
....................    char *strstr(const char *s1, const char *s2); 
....................    Locates first occurence of character sequence s2 in s1; 
....................    returns 0 if s2 is empty string 
....................  
....................    Uncomment #define FASTER_BUT_MORE_ROM at the top of the 
....................    file to use the faster algorithm */ 
.................... char *strstr(char *s1, char *s2) 
.................... { 
....................    char *s, *t; 
....................  
....................    #ifdef FASTER_BUT_MORE_ROM 
....................    if (*s2 == '\0') 
....................          return(s1); 
....................    #endif 
....................  
....................    while (*s1) 
....................    { 
....................       for(s = s1, t = s2; *t && (*s == *t); ++s, ++t); 
....................  
....................       if (*t == '\0') 
....................          return s1; 
....................       ++s1; 
....................       #ifdef FASTER_BUT_MORE_ROM 
....................          while(*s1 != '\0' && *s1 != *s2) 
....................             ++s1; 
....................       #endif 
....................    } 
....................    return 0; 
.................... } 
....................  
.................... /* standard template: char *strtok(char *s1, const char *s2). 
....................  
....................    Finds next token in s1 delimited by a character from separator 
....................    string s2 (which can be different from call to call).  First call 
....................    starts at beginning of s1 searching for first character NOT 
....................    contained in s2; returns 0 if none is found. 
....................    If one is found, it is the start of first token (return value). 
....................    Function then searches from there for a character contained in s2. 
....................    If none is found, current token extends to end of s1, and subsequent 
....................    searches for a token will return 0.  If one is found, it is 
....................    overwritten by '\0', which terminates current token.  Function saves 
....................    pointer to following character from which next search will start. 
....................    Each subsequent call, with 0 as first argument, starts searching 
....................    from saved pointer */ 
....................  
.................... char *strtok(char *s1, char *s2) 
.................... { 
....................    char *beg, *end; 
....................    static char *save; 
....................  
....................    beg = (s1)? s1: save; 
....................    beg += strspn(beg, s2); 
....................    if (*beg == '\0') 
....................    { 
....................       *save = ' '; 
....................       return(0); 
....................    } 
....................    end = strpbrk(beg, s2); 
....................    if (*end != '\0') 
....................    { 
....................       *end = '\0'; 
....................       end++; 
....................    } 
....................    save = end; 
....................    return(beg); 
.................... } 
....................  
.................... /*****************************************************************/ 
.................... /*Miscellaneous functions*/ 
.................... /* standard template 
.................... maps error number in errnum to an error message string 
.................... Returns: Pointer to string 
.................... */ 
.................... #ifdef _ERRNO 
.................... char * strerror(unsigned int8 errnum) 
.................... { 
.................... static char s[13]; 
.................... switch( errnum) 
.................... { 
.................... case 0: 
....................    strcpy(s,"no errors"); 
....................    return s; 
.................... case EDOM : 
....................    strcpy(s,"domain error"); 
....................    return s; 
.................... case ERANGE: 
....................    strcpy(s,"range error"); 
....................    return s; 
.................... } 
.................... } 
.................... #ENDIF 
.................... /* standard template: size_t strlen(const char *s). 
....................    Computes length of s1 (preceding terminating 0) */ 
....................  
.................... unsigned int8 strlen(char *s) 
.................... { 
....................    char *sc; 
....................  
....................    for (sc = s; *sc != 0; sc++); 
....................    return(sc - s); 
.................... } 
....................  
.................... /* standard template: size_t stricmp(const char *s1, const char *s2). 
....................    Compares s1 to s2 ignoring case (upper vs. lower) */ 
....................  
.................... signed int8 stricmp(char *s1, char *s2) 
.................... { 
....................  for(; *s1==*s2||(isalpha(*s1)&&isalpha(*s2)&&(*s1==*s2+32||*s2==*s1+32)); 
....................     s1++, s2++) 
....................     if (*s1 == '\0') 
....................        return(0); 
....................  return((*s1 < *s2) ? -1: 1); 
.................... } 
....................  
....................  
.................... /* standard template: char *strlwr(char *s). 
....................    Replaces uppercase letters by lowercase; 
....................    returns pointer to new string s */ 
....................  
.................... char *strlwr(char *s) 
.................... { 
....................    char *p; 
....................  
....................    for (p = s; *p != '\0'; p++) 
....................       if (*p >= 'A' && *p <='Z') 
....................          *p += 'a' - 'A'; 
....................    return(s); 
.................... } 
....................  
.................... /* standard template: char *strupr(char *s). 
....................    Replaces lowercase letters by upercase; 
....................    returns pointer to new string s */ 
....................  
.................... char *strupr(char *s) 
.................... { 
....................    char *p; 
....................  
....................    for (p = s; *p != '\0'; p++) 
....................       if (*p >= 'a' && *p <='z') 
....................          *p -= 'a' - 'A'; 
....................    return(s); 
.................... } 
....................  
....................  
.................... /************************************************************/ 
....................  
....................  
.................... #endif 
....................  
.................... #include <stdlib.h> 
.................... /////////////////////////////////////////////////////////////////////////// 
.................... ////        (C) Copyright 1996,2007 Custom Computer Services           //// 
.................... //// This source code may only be used by licensed users of the CCS C  //// 
.................... //// compiler.  This source code may only be distributed to other      //// 
.................... //// licensed users of the CCS C compiler.  No other use, reproduction //// 
.................... //// or distribution is permitted without written permission.          //// 
.................... //// Derivative programs created using this software in object code    //// 
.................... //// form are not restricted in any way.                               //// 
.................... /////////////////////////////////////////////////////////////////////////// 
....................  
.................... #ifndef _STDLIB 
.................... #define _STDLIB 
....................  
.................... //--------------------------------------------------------------------------- 
.................... // Definitions and types 
.................... //--------------------------------------------------------------------------- 
....................  
.................... #ifndef RAND_MAX 
.................... #define RAND_MAX  32767    // The value of which is the maximum value 
....................                            // ... returned by the rand function 
.................... #endif 
....................  
....................  
.................... #IF (sizeof(int16*)>1) 
.................... #DEFINE LONG_POINTERS 1 
.................... #ELSE  
.................... #DEFINE LONG_POINTERS 0 
.................... #ENDIF 
....................  
.................... typedef struct { 
....................    signed int quot; 
....................    signed int rem; 
.................... } div_t; 
....................  
.................... typedef struct { 
....................    signed long quot; 
....................    signed long rem; 
.................... } ldiv_t; 
....................  
.................... #include <stddef.h> 
.................... /////////////////////////////////////////////////////////////////////////// 
.................... ////        (C) Copyright 1996,2003 Custom Computer Services           //// 
.................... //// This source code may only be used by licensed users of the CCS C  //// 
.................... //// compiler.  This source code may only be distributed to other      //// 
.................... //// licensed users of the CCS C compiler.  No other use, reproduction //// 
.................... //// or distribution is permitted without written permission.          //// 
.................... //// Derivative programs created using this software in object code    //// 
.................... //// form are not restricted in any way.                               //// 
.................... /////////////////////////////////////////////////////////////////////////// 
....................  
.................... #ifndef _STDDEF 
....................  
.................... #define _STDDEF 
....................  
.................... #if sizeof(unsigned int8 *)==1 
.................... #define ptrdiff_t unsigned int8 
.................... #else 
.................... #define ptrdiff_t unsigned int16 
.................... #endif 
....................  
.................... #if defined(__PCB__) 
.................... #define size_t unsigned int8 
.................... #else 
.................... #define size_t unsigned int16 
.................... #endif 
.................... #define wchar_t char 
.................... #define NULL 0 
....................  
.................... #define offsetof(s,f) (offsetofbit(s,f)/8) 
....................  
.................... #endif 
....................  
....................  
.................... //--------------------------------------------------------------------------- 
.................... // String conversion functions 
.................... //--------------------------------------------------------------------------- 
....................  
.................... /* Standard template: signed int  atoi(char * s) 
....................  * converts the initial portion of the string s to a signed int 
....................  * returns the converted value if any, 0 otherwise 
....................  */ 
.................... signed int atoi(char *s); 
....................  
.................... /* Syntax: signed int32  atoi32(char * s) 
....................    converts the initial portion of the string s to a signed int32 
....................    returns the converted value if any, 0 otherwise*/ 
.................... #if (sizeof(long)==4) 
....................  #define atoi32(s) atol(s) 
.................... #else  
....................  signed int32 atoi32(char *s); 
.................... #endif 
....................  
.................... #if defined(__PCD__) 
.................... // The following functions only work on the 24 bit compiler 
.................... // for the 30F, 33F, 24F and 24H parts 
.................... /* Syntax: signed int48  atoi48(char * s) 
....................    converts the initial portion of the string s to a signed int48 
....................    returns the converted value if any, 0 otherwise*/ 
....................     
.................... signed int48 atoi48(char *s); 
....................  
.................... /* Syntax: signed int64  atoi64(char * s) 
....................    converts the initial portion of the string s to a signed int64 
....................    returns the converted value if any, 0 otherwise*/ 
.................... signed int64 atoi64(char *s); 
.................... #endif 
....................  
.................... /* Syntax: char *  itoa(signed int32 num, int8 base, char * s) 
....................    converts the signed int32 to a string and 
....................    returns the converted value if any, 0 otherwise*/ 
.................... char * itoa(signed int32 num, unsigned int base, char * s); 
....................  
.................... /* Standard template: signed int16  atol(char * s) 
....................  * converts the initial portion of the string s to a signed int16 
....................  * returns the converted value if any, 0 otherwise 
....................  */ 
.................... signed long atol(char *s); 
....................  
.................... /* Standard template: int16 strtoul(char * s,char *endptr,signed int base) 
....................  * converts the initial portion of the string s, represented as an 
....................  * integral value of radix base  to a signed long. 
....................  * Returns the converted value if any, 0 otherwise 
....................  * the final string is returned in the endptr, if endptr is not null 
....................  */ 
.................... signed long strtol(char *s,char *endptr, signed int base); 
....................  
.................... /* Standard template: int16 strtoul(char * s,char *endptr,signed int base) 
....................  * converts the initial portion of the string s, represented as an 
....................  * integral value of radix base to a unsigned long. 
....................  * returns the converted value if any, 0 otherwise 
....................  * the final string is returned in the endptr, if endptr is not null 
....................  */ 
.................... unsigned long strtoul(char *s,char *endptr, signed int base); 
....................  
.................... /* Standart template: float strtof(char * s,char *endptr) 
....................                       float48 strtof48(char *s,char *endptr); 
....................                       float64 strtod(char *s,char *endptr); 
....................  * converts the initial portion of the string s to a float32, float48 or float64, 
....................  * returns the converted value if any, 0 otherwise 
....................  * the final string is returned in the endptr, if endptr is not null                    
.................... */ 
.................... float strtof(char *s,char *endptr); 
.................... #if defined(__PCD__) 
.................... float48 strtof48(char *s,char *endptr); 
.................... float64 strtod(char *s,char *endptr); 
.................... #else 
.................... //provided for compatibility 
.................... #define strtof48(s, e) strtof(s, e) 
.................... #define strtod(s, e) strtof(s, e) 
.................... #endif 
....................  
.................... /* Standard template: float32 atof(char * s) 
....................  * converts the initial portion of the string s to a float. 
....................  * returns the converted value if any, 0 otherwise 
....................  */ 
.................... #define atof(s)   strtof(s, 0) 
....................  
.................... #if defined(__PCD__) 
.................... // The following functions only work on the 24 bit compiler 
.................... // for the 30F, 33F, 24F and 24H parts 
....................  
.................... /* Standard template: float48 atof48(char * s) 
....................  * converts the initial portion of the string s to a float. 
....................  * returns the converted value if any, 0 otherwise 
....................  */ 
.................... #define atof48(s) strtof48(s, 0) 
....................  
.................... /* Standard template: float64 atof64(char * s) 
....................  * converts the initial portion of the string s to a float. 
....................  * returns the converted value if any, 0 otherwise 
....................  */ 
.................... #define atof64(s) strtod(s, 0) 
.................... #endif 
....................  
.................... /* Standard template: float32 atoe(char * s) 
....................  * converts the initial portion of the string s to a float. 
....................  * returns the converted value if any, 0 otherwise 
....................  * also handles E format numbers 
....................  */ 
.................... #if !defined(__PCD__) 
.................... float atoe(char * s); 
.................... #endif 
....................  
.................... #if defined(__PCD__) 
.................... float32 atoe(char * s); 
.................... #endif 
....................  
.................... //--------------------------------------------------------------------------- 
.................... // Pseudo-random sequence generation functions 
.................... //--------------------------------------------------------------------------- 
....................  
.................... /* The rand function computes a sequence of pseudo-random integers in 
....................  * the range 0 to RAND_MAX 
....................  * 
....................  * Parameters: 
....................  *       (none) 
....................  * 
....................  * Returns: 
....................  *       The pseudo-random integer 
....................  */ 
.................... unsigned int16 rand(void); 
....................  
.................... /* The srand function uses the argument as a seed for a new sequence of 
....................  * pseudo-random numbers to be returned by subsequent calls to rand. 
....................  * 
....................  * Parameters: 
....................  *       [in] seed: The seed value to start from. You might need to pass 
....................  * 
....................  * Returns: 
....................  *       (none) 
....................  * 
....................  * Remarks 
....................  *          The srand function sets the starting point for generating 
....................  *       a series of pseudorandom integers. To reinitialize the 
....................  *       generator, use 1 as the seed argument. Any other value for 
....................  *       seed sets the generator to a random starting point. rand 
....................  *       retrieves the pseudorandom numbers that are generated. 
....................  *       Calling rand before any call to srand generates the same 
....................  *       sequence as calling srand with seed passed as 1. 
....................  *          Usually, you need to pass a time here from outer source 
....................  *       so that the numbers will be different every time you run. 
....................  */ 
.................... void srand(unsigned int32 seed); 
....................  
.................... //--------------------------------------------------------------------------- 
.................... // Memory management functions 
.................... //--------------------------------------------------------------------------- 
....................  
.................... // Comming soon 
....................  
.................... //--------------------------------------------------------------------------- 
.................... // Communication with the environment 
.................... //--------------------------------------------------------------------------- 
....................  
.................... /* The function returns 0 always 
....................  */ 
.................... signed int8 system(char *string); 
....................  
.................... //--------------------------------------------------------------------------- 
.................... // Searching and sorting utilities 
.................... //--------------------------------------------------------------------------- 
....................  
.................... /* Performs a binary search of a sorted array.. 
....................  * 
....................  * Parameters: 
....................  *       [in] key: Object to search for 
....................  *       [in] base: Pointer to base of search data 
....................  *       [in] num: Number of elements 
....................  *       [in] width: Width of elements 
....................  *       [in] compare: Function that compares two elements 
....................  * 
....................  * Returns: 
....................  *       bsearch returns a pointer to an occurrence of key in the array pointed 
....................  *       to by base. If key is not found, the function returns NULL. If the 
....................  *       array is not in order or contains duplicate records with identical keys, 
....................  *       the result is unpredictable. 
....................  */ 
.................... //void *bsearch(const void *key, const void *base, size_t num, size_t width, 
.................... //              int (*compare)(const void *, const void *)); 
....................  
.................... /* Performs the shell-metzner sort (not the quick sort algorithm). The contents 
....................  * of the array are sorted into ascending order according to a comparison 
....................  * function pointed to by compar. 
....................  * 
....................  * Parameters: 
....................  *       [in] base: Pointer to base of search data 
....................  *       [in] num: Number of elements 
....................  *       [in] width: Width of elements 
....................  *       [in] compare: Function that compares two elements 
....................  * 
....................  * Returns: 
....................  *       (none) 
....................  */ 
.................... //void *qsort(const void *base, size_t num, size_t width, 
.................... //              int (*compare)(const void *, const void *)); 
....................  
.................... //--------------------------------------------------------------------------- 
.................... // Integer arithmetic functions 
.................... //--------------------------------------------------------------------------- 
....................  
.................... #define labs abs 
....................  
.................... div_t div(signed int numer, signed int denom); 
.................... ldiv_t ldiv(signed long numer, signed long denom); 
....................  
.................... //--------------------------------------------------------------------------- 
.................... // Multibyte character functions 
.................... //--------------------------------------------------------------------------- 
....................  
.................... // Not supported 
....................  
.................... //--------------------------------------------------------------------------- 
.................... // Multibyte string functions 
.................... //--------------------------------------------------------------------------- 
....................  
.................... // Not supported 
....................  
....................  
.................... //--------------------------------------------------------------------------- 
.................... // Internal implementation 
.................... //--------------------------------------------------------------------------- 
....................  
.................... #include <stddef.h> 
.................... /////////////////////////////////////////////////////////////////////////// 
.................... ////        (C) Copyright 1996,2003 Custom Computer Services           //// 
.................... //// This source code may only be used by licensed users of the CCS C  //// 
.................... //// compiler.  This source code may only be distributed to other      //// 
.................... //// licensed users of the CCS C compiler.  No other use, reproduction //// 
.................... //// or distribution is permitted without written permission.          //// 
.................... //// Derivative programs created using this software in object code    //// 
.................... //// form are not restricted in any way.                               //// 
.................... /////////////////////////////////////////////////////////////////////////// 
....................  
.................... #ifndef _STDDEF 
....................  
.................... #define _STDDEF 
....................  
.................... #if sizeof(unsigned int8 *)==1 
.................... #define ptrdiff_t unsigned int8 
.................... #else 
.................... #define ptrdiff_t unsigned int16 
.................... #endif 
....................  
.................... #if defined(__PCB__) 
.................... #define size_t unsigned int8 
.................... #else 
.................... #define size_t unsigned int16 
.................... #endif 
.................... #define wchar_t char 
.................... #define NULL 0 
....................  
.................... #define offsetof(s,f) (offsetofbit(s,f)/8) 
....................  
.................... #endif 
....................  
.................... #include <string.h> 
.................... //////////////////////////////////////////////////////////////////////////// 
.................... ////        (C) Copyright 1996,2008 Custom Computer Services            //// 
.................... //// This source code may only be used by licensed users of the CCS C   //// 
.................... //// compiler.  This source code may only be distributed to other       //// 
.................... //// licensed users of the CCS C compiler.  No other use, reproduction  //// 
.................... //// or distribution is permitted without written permission.           //// 
.................... //// Derivative programs created using this software in object code     //// 
.................... //// form are not restricted in any way.                                //// 
.................... //////////////////////////////////////////////////////////////////////////// 
....................  
.................... #ifndef _STRING 
.................... #define _STRING 
.................... #include <stddef.h> 
.................... #include <ctype.h> 
....................  
....................  
....................  
.................... ////////////////////////////////////////////// 
.................... //// Uncomment the following define to    //// 
.................... //// allow some functions to use a        //// 
.................... //// quicker algorithm, but use more ROM  //// 
.................... ////                                      //// 
.................... //// #define FASTER_BUT_MORE_ROM          //// 
.................... ////////////////////////////////////////////// 
....................  
....................  
....................  
.................... /*Copying functions*/ 
.................... /* standard template: 
....................    void *memmove(void *s1, void *s2, size_t n). 
....................    Copies max of n characters safely (not following ending '\0') 
....................    from s2 in s1; if s2 has less than n characters, appends 0 */ 
....................  
.................... char *memmove(void *s1,char *s2,size_t n) 
.................... { 
....................    char *sc1; 
....................    char *sc2; 
....................    sc1=s1; 
....................    sc2=s2; 
....................    if(sc2<sc1 && sc1 <sc2 +n) 
....................       for(sc1+=n,sc2+=n;0<n;--n) 
....................          *--sc1=*--sc2; 
....................    else 
....................       for(;0<n;--n) 
....................          *sc1++=*sc2++; 
....................   return s1; 
....................   } 
....................  
.................... /* Standard template: char *strcpy(char *s1, const char *s2) 
....................    copies the string s2 including the null character to s1. 
....................    This is a compiler built in to handle the different address 
....................    spaces */ 
....................  
.................... #define strcopy strcpy 
....................  
.................... /* standard template: 
....................    char *strncpy(char *s1, const char *s2, size_t n). 
....................    Copies max of n characters (not following ending '\0') 
....................    from s2 in s1; if s2 has less than n characters, appends 0 */ 
....................  
.................... char *strncpy(char *s1, char *s2, size_t n) 
.................... { 
....................   char *s; 
....................  
....................   for (s = s1; n > 0 && *s2 != '\0'; n--) 
....................      *s++ = *s2++; 
....................   for (; n > 0; n--) 
....................      *s++ = '\0'; 
....................  
....................   return(s1); 
.................... } 
.................... /***********************************************************/ 
....................  
.................... /*concatenation functions*/ 
.................... /* standard template: char *strcat(char *s1, const char *s2) 
.................... appends s2 to s1*/ 
....................  
.................... char *strcat(char *s1, char *s2) 
.................... { 
....................    char *s; 
....................  
....................    for (s = s1; *s != '\0'; ++s); 
....................    while(*s2 != '\0') 
....................    { 
....................       *s = *s2; 
....................       ++s; 
....................       ++s2; 
....................    } 
....................  
....................    *s = '\0'; 
....................    return(s1); 
.................... } 
.................... /* standard template: char *strncat(char *s1, char *s2,size_t n) 
.................... appends not more than n characters from s2 to s1*/ 
....................  
.................... char *strncat(char *s1, char *s2, size_t n) 
.................... { 
....................    char *s; 
....................  
....................    for (s = s1; *s != '\0'; ++s); 
....................    while(*s2 != '\0' && 0<n) 
....................    { 
....................       *s = *s2; 
....................       ++s; 
....................       ++s2; 
....................       --n; 
....................    } 
....................  
....................    *s = '\0'; 
....................    return(s1); 
.................... } 
....................  
.................... /***********************************************************/ 
....................  
....................  
.................... /*comparison functions*/ 
.................... /* standard template: signed int memcmp(void *s1, void *s2). 
....................    Compares s1 & s2; returns -1 if s1<s2, 0 if s1=s2, 1 if s1>s2 */ 
....................  
.................... signed int8 memcmp(void * s1,char *s2,size_t n) 
.................... { 
.................... char *su1, *su2; 
.................... for(su1=s1, su2=s2; 0<n; ++su1, ++su2, --n) 
.................... { 
....................    if(*su1!=*su2) 
....................       return ((*su1<*su2)?-1:+1); 
.................... } 
.................... return 0; 
.................... } 
....................  
.................... /* standard template: int strcmp(const char *s1, const char *s2). 
....................    Compares s1 & s2; returns -1 if s1<s2, 0 if s1=s2, 1 if s1>s2 */ 
....................  
.................... signed int8 strcmp(char *s1, char *s2) 
.................... { 
....................    for (; *s1 == *s2; s1++, s2++) 
....................       if (*s1 == '\0') 
....................          return(0); 
....................    return((*s1 < *s2) ? -1: 1); 
.................... } 
.................... /* standard template: int strcoll(const char *s1, const char *s2). 
....................    Compares s1 & s2; returns -1 if s1<s2, 0 if s1=s2, 1 if s1>s2 */ 
....................  
.................... signed int8 strcoll(char *s1, char *s2) 
.................... { 
....................    for (; *s1 == *s2; s1++, s2++) 
....................       if (*s1 == '\0') 
....................          return(0); 
....................    return((*s1 < *s2) ? -1: 1); 
.................... } 
....................  
.................... /* standard template: 
....................    int strncmp(const char *s1, const char *s2, size_t n). 
....................    Compares max of n characters (not following 0) from s1 to s2; 
....................    returns same as strcmp */ 
....................  
.................... signed int8 strncmp(char *s1, char *s2, size_t n) 
.................... { 
....................    for (; n > 0; s1++, s2++, n--) 
....................       if (*s1 != *s2) 
....................          return((*s1 <*s2) ? -1: 1); 
....................       else if (*s1 == '\0') 
....................          return(0); 
....................    return(0); 
.................... } 
.................... /* standard template: 
....................    int strxfrm(const char *s1, const char *s2, size_t n). 
....................    transforms maximum of n characters from s2 and places them into s1*/ 
.................... size_t strxfrm(char *s1, char *s2, size_t n) 
.................... { 
....................   char *s; 
....................   unsigned int8 n1; 
....................   n1=n; 
....................   for (s = s1; n > 0 && *s2 != '\0'; n--) 
....................      *s++ = *s2++; 
....................   for (; n > 0; n--) 
....................      *s++ = '\0'; 
....................  
....................   return(n1); 
.................... } 
....................  
....................  
....................  
....................  
....................  
.................... /***********************************************************/ 
.................... /*Search functions*/ 
.................... /* standard template: void *memchr(const char *s, int c). 
....................    Finds first occurrence of c in n characters of s */ 
....................  
.................... char *memchr(void *s,unsigned int8 c,size_t n) 
.................... { 
....................    char uc; 
....................    char *su; 
....................    uc=c; 
....................    for(su=s;0<n;++su,--n) 
....................       if(*su==uc) 
....................       return su; 
....................    return NULL; 
.................... } 
....................  
.................... /* standard template: char *strchr(const char *s, int c). 
....................    Finds first occurrence of c in s */ 
....................  
.................... char *strchr(char *s, unsigned int8 c) 
.................... { 
....................    for (; *s != c; s++) 
....................       if (*s == '\0') 
....................          return(0); 
....................    return(s); 
.................... } 
.................... /* standard template: 
....................    size_t strcspn(const char *s1, const char *s2). 
....................    Computes length of max initial segment of s1 that 
....................    consists entirely of characters NOT from s2*/ 
....................  
.................... unsigned int8  strcspn(char *s1, char *s2) 
.................... { 
....................    char *sc1, *sc2; 
....................  
....................    for (sc1 = s1; *sc1 != 0; sc1++) 
....................       for (sc2 = s2; *sc2 != 0; sc2++) 
....................          if (*sc1 == *sc2) 
....................             return(sc1 - s1); 
....................    return(sc1 - s1); 
.................... } 
.................... /* standard template: 
....................    char *strpbrk(const char *s1, const char *s2). 
....................    Locates first occurence of any character from s2 in s1; 
....................    returns s1 if s2 is empty string */ 
....................  
.................... char *strpbrk(char *s1, char *s2) 
.................... { 
....................    char *sc1, *sc2; 
....................  
....................    for (sc1 = s1; *sc1 != 0; sc1++) 
....................       for (sc2 = s2; *sc2 != 0; sc2++) 
....................          if (*sc1 == *sc2) 
....................             return(sc1); 
....................    return(0); 
.................... } 
....................  
....................  
.................... /* standard template: char *strrchr(const char *s, int c). 
....................    Finds last occurrence of c in s */ 
....................  
.................... char *strrchr(char *s, unsigned int8 c) 
.................... { 
....................    char *p; 
....................  
....................    for (p = 0; ; s++) 
....................    { 
....................       if (*s == c) 
....................          p = s; 
....................       if (*s == '\0') 
....................          return(p); 
....................    } 
.................... } 
.................... /* computes length of max initial segment of s1 consisting 
....................    entirely of characters from s2 */ 
....................  
.................... unsigned int8  strspn(char *s1, char *s2) 
.................... { 
....................    char *sc1, *sc2; 
....................  
....................    for (sc1 = s1; *sc1 != 0; sc1++) 
....................       for (sc2 = s2; ; sc2++) 
....................     if (*sc2 == '\0') 
....................        return(sc1 - s1); 
....................          else if (*sc1 == *sc2) 
....................             break; 
....................    return(sc1 - s1); 
.................... } 
.................... /* standard template: 
....................    char *strstr(const char *s1, const char *s2); 
....................    Locates first occurence of character sequence s2 in s1; 
....................    returns 0 if s2 is empty string 
....................  
....................    Uncomment #define FASTER_BUT_MORE_ROM at the top of the 
....................    file to use the faster algorithm */ 
.................... char *strstr(char *s1, char *s2) 
.................... { 
....................    char *s, *t; 
....................  
....................    #ifdef FASTER_BUT_MORE_ROM 
....................    if (*s2 == '\0') 
....................          return(s1); 
....................    #endif 
....................  
....................    while (*s1) 
....................    { 
....................       for(s = s1, t = s2; *t && (*s == *t); ++s, ++t); 
....................  
....................       if (*t == '\0') 
....................          return s1; 
....................       ++s1; 
....................       #ifdef FASTER_BUT_MORE_ROM 
....................          while(*s1 != '\0' && *s1 != *s2) 
....................             ++s1; 
....................       #endif 
....................    } 
....................    return 0; 
.................... } 
....................  
.................... /* standard template: char *strtok(char *s1, const char *s2). 
....................  
....................    Finds next token in s1 delimited by a character from separator 
....................    string s2 (which can be different from call to call).  First call 
....................    starts at beginning of s1 searching for first character NOT 
....................    contained in s2; returns 0 if none is found. 
....................    If one is found, it is the start of first token (return value). 
....................    Function then searches from there for a character contained in s2. 
....................    If none is found, current token extends to end of s1, and subsequent 
....................    searches for a token will return 0.  If one is found, it is 
....................    overwritten by '\0', which terminates current token.  Function saves 
....................    pointer to following character from which next search will start. 
....................    Each subsequent call, with 0 as first argument, starts searching 
....................    from saved pointer */ 
....................  
.................... char *strtok(char *s1, char *s2) 
.................... { 
....................    char *beg, *end; 
....................    static char *save; 
....................  
....................    beg = (s1)? s1: save; 
....................    beg += strspn(beg, s2); 
....................    if (*beg == '\0') 
....................    { 
....................       *save = ' '; 
....................       return(0); 
....................    } 
....................    end = strpbrk(beg, s2); 
....................    if (*end != '\0') 
....................    { 
....................       *end = '\0'; 
....................       end++; 
....................    } 
....................    save = end; 
....................    return(beg); 
.................... } 
....................  
.................... /*****************************************************************/ 
.................... /*Miscellaneous functions*/ 
.................... /* standard template 
.................... maps error number in errnum to an error message string 
.................... Returns: Pointer to string 
.................... */ 
.................... #ifdef _ERRNO 
.................... char * strerror(unsigned int8 errnum) 
.................... { 
.................... static char s[13]; 
.................... switch( errnum) 
.................... { 
.................... case 0: 
....................    strcpy(s,"no errors"); 
....................    return s; 
.................... case EDOM : 
....................    strcpy(s,"domain error"); 
....................    return s; 
.................... case ERANGE: 
....................    strcpy(s,"range error"); 
....................    return s; 
.................... } 
.................... } 
.................... #ENDIF 
.................... /* standard template: size_t strlen(const char *s). 
....................    Computes length of s1 (preceding terminating 0) */ 
....................  
.................... unsigned int8 strlen(char *s) 
.................... { 
....................    char *sc; 
....................  
....................    for (sc = s; *sc != 0; sc++); 
....................    return(sc - s); 
.................... } 
....................  
.................... /* standard template: size_t stricmp(const char *s1, const char *s2). 
....................    Compares s1 to s2 ignoring case (upper vs. lower) */ 
....................  
.................... signed int8 stricmp(char *s1, char *s2) 
.................... { 
....................  for(; *s1==*s2||(isalpha(*s1)&&isalpha(*s2)&&(*s1==*s2+32||*s2==*s1+32)); 
....................     s1++, s2++) 
....................     if (*s1 == '\0') 
....................        return(0); 
....................  return((*s1 < *s2) ? -1: 1); 
.................... } 
....................  
....................  
.................... /* standard template: char *strlwr(char *s). 
....................    Replaces uppercase letters by lowercase; 
....................    returns pointer to new string s */ 
....................  
.................... char *strlwr(char *s) 
.................... { 
....................    char *p; 
....................  
....................    for (p = s; *p != '\0'; p++) 
....................       if (*p >= 'A' && *p <='Z') 
....................          *p += 'a' - 'A'; 
....................    return(s); 
.................... } 
....................  
.................... /* standard template: char *strupr(char *s). 
....................    Replaces lowercase letters by upercase; 
....................    returns pointer to new string s */ 
....................  
.................... char *strupr(char *s) 
.................... { 
....................    char *p; 
....................  
....................    for (p = s; *p != '\0'; p++) 
....................       if (*p >= 'a' && *p <='z') 
....................          *p -= 'a' - 'A'; 
....................    return(s); 
.................... } 
....................  
....................  
.................... /************************************************************/ 
....................  
....................  
.................... #endif 
....................  
....................  
.................... div_t div(signed int numer, signed int denom) 
.................... { 
....................    div_t val; 
....................    val.quot = numer / denom; 
....................    val.rem = numer - (denom * val.quot); 
....................    return (val); 
.................... } 
....................  
.................... ldiv_t ldiv(signed long numer, signed long denom) 
.................... { 
....................    ldiv_t val; 
....................  
....................    val.quot = numer / denom; 
....................    val.rem = numer - (denom * val.quot); 
....................    return (val); 
.................... } 
....................  
.................... #if defined(__PCD__) 
.................... float32 atoe(char * s) 
.................... { 
....................    float32 pow10 = 1.0; 
....................    float32 result = 0.0; 
....................    unsigned int8 sign = 0; 
....................    unsigned int8 expsign = 0; 
....................    char c; 
....................    unsigned int8 ptr = 0; 
....................    unsigned int8 i; 
....................    float32 exp = 1.0; 
....................    unsigned int8 expcnt = 0; 
....................  
....................    c = s[ptr++]; 
....................  
....................    if ((c>='0' && c<='9') || c=='+' || c=='-' || c=='.' || c=='E' || c=='e') { 
....................       if(c == '-') { 
....................          sign = 1; 
....................          c = s[ptr++]; 
....................       } 
....................       if(c == '+') 
....................          c = s[ptr++]; 
....................  
....................       while((c >= '0' && c <= '9')) { 
....................          result = 10*result + c - '0'; 
....................          c = s[ptr++]; 
....................       } 
....................  
....................       if (c == '.') { 
....................          c = s[ptr++]; 
....................          while((c >= '0' && c <= '9')) { 
....................              pow10 = pow10*10; 
....................              result += (c - '0')/pow10; 
....................              c = s[ptr++]; 
....................          } 
....................       } 
....................  
....................       // Handling the exponent 
....................       if (c=='e' || c=='E') { 
....................          c = s[ptr++]; 
....................  
....................          if(c == '-') { 
....................             expsign = 1; 
....................             c = s[ptr++]; 
....................          } 
....................          if(c == '+') 
....................             c = s[ptr++]; 
....................  
....................          while((c >= '0' && c <= '9')) { 
....................             expcnt = 10*expcnt + c - '0'; 
....................             c = s[ptr++]; 
....................          } 
....................  
....................          for(i=0;i<expcnt;i++) 
....................             exp*=10; 
....................  
....................          if(expsign==1) 
....................             result/=exp; 
....................          else 
....................             result*=exp; 
....................       } 
....................    } 
....................  
....................    if (sign == 1) 
....................       result = -1*result; 
....................    return(result); 
.................... } 
.................... #endif 
....................  
.................... #if !defined(__PCD__) 
.................... float atoe(char * s) 
.................... { 
....................    float pow10 = 1.0; 
....................    float result = 0.0; 
....................    unsigned int8 sign = 0; 
....................    unsigned int8 expsign = 0; 
....................    char c; 
....................    unsigned int8 ptr = 0; 
....................    unsigned int8 i; 
....................    float exp = 1.0; 
....................    unsigned int8 expcnt = 0; 
....................  
....................    c = s[ptr++]; 
....................  
....................    if ((c>='0' && c<='9') || c=='+' || c=='-' || c=='.' || c=='E' || c=='e') { 
....................       if(c == '-') { 
....................          sign = 1; 
....................          c = s[ptr++]; 
....................       } 
....................       if(c == '+') 
....................          c = s[ptr++]; 
....................  
....................       while((c >= '0' && c <= '9')) { 
....................          result = 10*result + c - '0'; 
....................          c = s[ptr++]; 
....................       } 
....................  
....................       if (c == '.') { 
....................          c = s[ptr++]; 
....................          while((c >= '0' && c <= '9')) { 
....................              pow10 = pow10*10; 
....................              result += (c - '0')/pow10; 
....................              c = s[ptr++]; 
....................          } 
....................       } 
....................  
....................       // Handling the exponent 
....................       if (c=='e' || c=='E') { 
....................          c = s[ptr++]; 
....................  
....................          if(c == '-') { 
....................             expsign = 1; 
....................             c = s[ptr++]; 
....................          } 
....................          if(c == '+') 
....................             c = s[ptr++]; 
....................  
....................          while((c >= '0' && c <= '9')) { 
....................             expcnt = 10*expcnt + c - '0'; 
....................             c = s[ptr++]; 
....................          } 
....................  
....................          for(i=0;i<expcnt;i++) 
....................             exp*=10; 
....................  
....................          if(expsign==1) 
....................             result/=exp; 
....................          else 
....................             result*=exp; 
....................       } 
....................    } 
....................  
....................    if (sign == 1) 
....................       result = -1*result; 
....................    return(result); 
.................... } 
.................... #endif 
....................  
.................... signed int atoi(char *s) 
.................... { 
....................    signed int result; 
....................    unsigned int sign, base, index; 
....................    char c; 
....................  
....................    index = 0; 
....................    sign = 0; 
....................    base = 10; 
....................    result = 0; 
....................  
....................    if (!s) 
....................       return 0; 
....................    // Omit all preceeding alpha characters 
....................    c = s[index++]; 
....................  
....................    // increase index if either positive or negative sign is detected 
....................    if (c == '-') 
....................    { 
....................       sign = 1;         // Set the sign to negative 
....................       c = s[index++]; 
....................    } 
....................    else if (c == '+') 
....................    { 
....................       c = s[index++]; 
....................    } 
....................  
....................    if (c >= '0' && c <= '9') 
....................    { 
....................  
....................       // Check for hexa number 
....................       if (c == '0' && (s[index] == 'x' || s[index] == 'X')) 
....................       { 
....................          base = 16; 
....................          index++; 
....................          c = s[index++]; 
....................       } 
....................  
....................       // The number is a decimal number 
....................       if (base == 10) 
....................       { 
....................          while (c >= '0' && c <= '9') 
....................          { 
....................             result = 10*result + (c - '0'); 
....................             c = s[index++]; 
....................          } 
....................       } 
....................       else if (base == 16)    // The number is a hexa number 
....................       { 
....................          c = toupper(c); 
....................          while ( (c >= '0' && c <= '9') || (c >= 'A' && c<='F')) 
....................          { 
....................             if (c >= '0' && c <= '9') 
....................                result = (result << 4) + (c - '0'); 
....................             else 
....................                result = (result << 4) + (c - 'A' + 10); 
....................  
....................             c = s[index++]; 
....................             c = toupper(c); 
....................          } 
....................       } 
....................    } 
....................  
....................    if (sign == 1 && base == 10) 
....................        result = -result; 
....................  
....................    return(result); 
.................... } 
....................  
.................... signed long atol(char *s) 
.................... { 
....................    signed long result; 
....................    unsigned int sign, base, index; 
....................    char c; 
....................  
....................    index = 0; 
....................    sign = 0; 
....................    base = 10; 
....................    result = 0; 
....................  
....................    if (!s) 
....................       return 0; 
....................    c = s[index++]; 
....................  
....................    // increase index if either positive or negative sign is detected 
....................    if (c == '-') 
....................    { 
....................       sign = 1;         // Set the sign to negative 
....................       c = s[index++]; 
....................    } 
....................    else if (c == '+') 
....................    { 
....................       c = s[index++]; 
....................    } 
....................  
....................    if (c >= '0' && c <= '9') 
....................    { 
....................       if (c == '0' && (s[index] == 'x' || s[index] == 'X')) 
....................       { 
....................          base = 16; 
....................          index++; 
....................          c = s[index++]; 
....................       } 
....................  
....................       // The number is a decimal number 
....................       if (base == 10) 
....................       { 
....................          while (c >= '0' && c <= '9') 
....................          { 
....................             result = 10*result + (c - '0'); 
....................             c = s[index++]; 
....................          } 
....................       } 
....................       else if (base == 16)    // The number is a hexa number 
....................       { 
....................          c = toupper(c); 
....................          while ( (c >= '0' && c <= '9') || (c >= 'A' && c <='F')) 
....................          { 
....................             if (c >= '0' && c <= '9') 
....................                result = (result << 4) + (c - '0'); 
....................             else 
....................                result = (result << 4) + (c - 'A' + 10); 
....................  
....................             c = s[index++];c = toupper(c); 
....................          } 
....................       } 
....................    } 
....................  
....................    if (base == 10 && sign == 1) 
....................       result = -result; 
....................  
....................    return(result); 
.................... } 
....................  
.................... /* A fast routine to multiply by 10 
....................  */ 
.................... signed int32 mult_with10(int32 num) 
.................... { 
....................    return ( (num << 1) + (num << 3) ); 
.................... } 
....................  
.................... #if sizeof(long)==2 
.................... signed int32 atoi32(char *s) 
.................... { 
....................    signed int32 result; 
....................    int8 sign, base, index; 
....................    char c; 
....................  
....................    index = 0; 
....................    sign = 0; 
....................    base = 10; 
....................    result = 0; 
....................  
....................    if (!s) 
....................       return 0; 
....................    c = s[index++]; 
....................  
....................    // increase index if either positive or negative sign is detected 
....................    if (c == '-') 
....................    { 
....................       sign = 1;         // Set the sign to negative 
....................       c = s[index++]; 
....................    } 
....................    else if (c == '+') 
....................    { 
....................       c = s[index++]; 
....................    } 
....................  
....................    if (c >= '0' && c <= '9') 
....................    { 
....................       if (c == '0' && (s[index] == 'x' || s[index] == 'X')) 
....................       { 
....................          base = 16; 
....................          index++; 
....................          c = s[index++]; 
....................       } 
....................  
....................       // The number is a decimal number 
....................       if (base == 10) 
....................       { 
....................          while (c >= '0' && c <= '9') { 
....................             result = (result << 1) + (result << 3);  // result *= 10; 
....................             result += (c - '0'); 
....................             c = s[index++]; 
....................          } 
....................       } 
....................       else if (base == 16)    // The number is a hexa number 
....................       { 
....................          c = toupper(c); 
....................          while ((c >= '0' && c <= '9') || (c >= 'A' && c <='F')) 
....................          { 
....................             if (c >= '0' && c <= '9') 
....................                result = (result << 4) + (c - '0'); 
....................             else 
....................                result = (result << 4) + (c - 'A' + 10); 
....................  
....................             c = s[index++];c = toupper(c); 
....................          } 
....................       } 
....................    } 
....................  
....................    if (base == 10 && sign == 1) 
....................       result = -result; 
....................  
....................    return(result); 
.................... } 
.................... #endif 
....................  
.................... #if defined(__PCD__) 
....................  
.................... signed int48 atoi48(char *s) 
.................... { 
....................    signed int48 result; 
....................    int8 sign, base, index; 
....................    char c; 
....................  
....................    index = 0; 
....................    sign = 0; 
....................    base = 10; 
....................    result = 0; 
....................  
....................    if (!s) 
....................       return 0; 
....................    c = s[index++]; 
....................  
....................    // increase index if either positive or negative sign is detected 
....................    if (c == '-') 
....................    { 
....................       sign = 1;         // Set the sign to negative 
....................       c = s[index++]; 
....................    } 
....................    else if (c == '+') 
....................    { 
....................       c = s[index++]; 
....................    } 
....................  
....................    if (c >= '0' && c <= '9') 
....................    { 
....................       if (c == '0' && (s[index] == 'x' || s[index] == 'X')) 
....................       { 
....................          base = 16; 
....................          index++; 
....................          c = s[index++]; 
....................       } 
....................  
....................       // The number is a decimal number 
....................       if (base == 10) 
....................       { 
....................          while (c >= '0' && c <= '9') { 
....................             result = (result << 1) + (result << 3);  // result *= 10; 
....................             result += (c - '0'); 
....................             c = s[index++]; 
....................          } 
....................       } 
....................       else if (base == 16)    // The number is a hexa number 
....................       { 
....................          c = toupper(c); 
....................          while ((c >= '0' && c <= '9') || (c >= 'A' && c <='F')) 
....................          { 
....................             if (c >= '0' && c <= '9') 
....................                result = (result << 4) + (c - '0'); 
....................             else 
....................                result = (result << 4) + (c - 'A' + 10); 
....................  
....................             c = s[index++];c = toupper(c); 
....................          } 
....................       } 
....................    } 
....................  
....................    if (base == 10 && sign == 1) 
....................       result = -result; 
....................  
....................    return(result); 
.................... } 
....................  
.................... signed int64 atoi64(char *s) 
.................... { 
....................    signed int64 result; 
....................    int8 sign, base, index; 
....................    char c; 
....................  
....................    index = 0; 
....................    sign = 0; 
....................    base = 10; 
....................    result = 0; 
....................  
....................    if (!s) 
....................       return 0; 
....................    c = s[index++]; 
....................  
....................    // increase index if either positive or negative sign is detected 
....................    if (c == '-') 
....................    { 
....................       sign = 1;         // Set the sign to negative 
....................       c = s[index++]; 
....................    } 
....................    else if (c == '+') 
....................    { 
....................       c = s[index++]; 
....................    } 
....................  
....................    if (c >= '0' && c <= '9') 
....................    { 
....................       if (c == '0' && (s[index] == 'x' || s[index] == 'X')) 
....................       { 
....................          base = 16; 
....................          index++; 
....................          c = s[index++]; 
....................       } 
....................  
....................       // The number is a decimal number 
....................       if (base == 10) 
....................       { 
....................          while (c >= '0' && c <= '9') { 
....................             result = (result << 1) + (result << 3);  // result *= 10; 
....................             result += (c - '0'); 
....................             c = s[index++]; 
....................          } 
....................       } 
....................       else if (base == 16)    // The number is a hexa number 
....................       { 
....................          c = toupper(c); 
....................          while ((c >= '0' && c <= '9') || (c >= 'A' && c <='F')) 
....................          { 
....................             if (c >= '0' && c <= '9') 
....................                result = (result << 4) + (c - '0'); 
....................             else 
....................                result = (result << 4) + (c - 'A' + 10); 
....................  
....................             c = s[index++];c = toupper(c); 
....................          } 
....................       } 
....................    } 
....................  
....................    if (base == 10 && sign == 1) 
....................       result = -result; 
....................  
....................    return(result); 
.................... } 
.................... #endif 
....................  
.................... char * itoa(signed int32 num, unsigned int base, char * s) 
.................... { 
....................      unsigned int32 temp=1; 
....................      unsigned int8 i,sign=0,cnt=0; 
....................      char c; 
....................  
....................      if(num<0) { 
....................          sign=1;        // Check for negative number 
....................          num*=-1; 
....................      } 
....................  
....................      while(temp>0) { 
....................          temp=(num/base); 
....................          s[cnt]=(num%base)+'0';    // Conversion 
....................  
....................          if(s[cnt]>0x39) 
....................             s[cnt]+=0x7; 
....................  
....................          cnt++; 
....................          num=temp; 
....................      } 
....................  
....................      if(sign==1) { 
....................          s[cnt]=0x2D;      // Negative sign 
....................          cnt++; 
....................      } 
....................  
....................      for(i = 0;i<(int8)(cnt/2);i++) { 
....................  
....................          c=s[i]; 
....................          s[i]=s[cnt-i-1];        // Reverse the number 
....................          s[cnt-i-1]=c; 
....................      } 
....................      s[cnt]='\0';     // End the string 
....................      return s; 
.................... } 
....................  
.................... #if defined(__PCD__) 
....................  
.................... char * itoa(signed int48 num, unsigned int base, char * s) 
.................... { 
....................      unsigned int48 temp=1; 
....................      unsigned int8 i,sign=0,cnt=0; 
....................      char c; 
....................  
....................      if(num<0) { 
....................          sign=1;        // Check for negative number 
....................          num*=-1; 
....................      } 
....................  
....................      while(temp>0) { 
....................          temp=(num/base); 
....................          s[cnt]=(num%base)+'0';    // Conversion 
....................  
....................          if(s[cnt]>0x39) 
....................             s[cnt]+=0x7; 
....................  
....................          cnt++; 
....................          num=temp; 
....................      } 
....................  
....................      if(sign==1) { 
....................          s[cnt]=0x2D;      // Negative sign 
....................          cnt++; 
....................      } 
....................  
....................      for(i = 0;i<(int8)(cnt/2);i++) { 
....................  
....................          c=s[i]; 
....................          s[i]=s[cnt-i-1];        // Reverse the number 
....................          s[cnt-i-1]=c; 
....................      } 
....................      s[cnt]='\0';     // End the string 
....................      return s; 
.................... } 
....................  
.................... char * itoa(signed int64 num, unsigned int base, char * s) 
.................... { 
....................      unsigned int64 temp=1; 
....................      unsigned int8 i,sign=0,cnt=0; 
....................      char c; 
....................       
....................      if(num<0) { 
....................          sign=1;        // Check for negative number 
....................          num*=-1;         
....................      } 
....................  
....................      while(temp>0) { 
....................          temp=(num/base); 
....................          s[cnt]=(num%base)+'0';    // Conversion 
....................  
....................          if(s[cnt]>0x39) 
....................             s[cnt]+=0x7; 
....................              
....................          cnt++; 
....................          num=temp; 
....................      } 
....................  
....................      if(sign==1) { 
....................          s[cnt]=0x2D;      // Negative sign 
....................          cnt++; 
....................      } 
....................  
....................      for(i = 0;i<(int8)(cnt/2);i++) { 
....................  
....................          c=s[i]; 
....................          s[i]=s[cnt-i-1];        // Reverse the number 
....................          s[cnt-i-1]=c; 
....................      } 
....................      s[cnt]='\0';     // End the string 
....................      return s; 
.................... } 
....................  
.................... #endif 
....................  
.................... float strtof(char *s, char *endptr) 
.................... { 
....................    float pow10 = 1.0; 
....................    float result = 0.0; 
....................    int1 skip = 1, sign = 0, point = 0; 
....................    char c; 
....................    unsigned int8 ptr = 0; 
....................  
....................    if (!s) 
....................       return 0; 
....................  
....................    for(c=s[ptr++]; c!=0; c=s[ptr++]) 
....................    { 
....................       if (skip && !isspace(c)) 
....................       { 
....................          skip = 0; 
....................          if (c == '+') 
....................          { 
....................             sign = 0; 
....................             continue; 
....................          }             
....................          else if (c == '-') 
....................          { 
....................             sign = 1; 
....................             continue; 
....................          } 
....................       } 
....................       if (!skip && (c == '.') && !point) 
....................          point = 1; 
....................       else if (!skip && isdigit(c)) 
....................       { 
....................          c -= '0'; 
....................          if (point) 
....................          { 
....................             pow10 = pow10 * 10.0; 
....................             result += (float)c / pow10;    
....................          } 
....................          else 
....................          { 
....................             result = 10.0 * result + (float)c; 
....................          } 
....................       } 
....................       else if (!skip) 
....................          break; 
....................    } 
....................  
....................    if (sign) 
....................       result = -1*result; 
....................        
....................    if(endptr) 
....................    { 
....................       if (ptr) { 
....................          ptr--; 
....................        #IF LONG_POINTERS  
....................          *((int16 *)endptr)= s+ptr;  
....................        #ELSE 
....................          *((char *)endptr)=s+ptr; 
....................        #ENDIF 
....................       } 
....................       else 
....................       { 
....................       #IF LONG_POINTERS 
....................       *((int16 *)endptr)= s;  
....................       #ELSE 
....................       *((char *)endptr)=s; 
....................       #ENDIF 
....................       } 
....................    } 
....................  
....................    return(result); 
.................... } 
....................  
.................... #if defined(__PCD__) 
.................... float48 strtof48(char *s, char *endptr) 
.................... { 
....................    float48 pow10 = 1.0; 
....................    float48 result = 0.0; 
....................    int1 skip = 1, sign = 0, point = 0; 
....................    char c; 
....................    unsigned int8 ptr = 0; 
....................  
....................    if (!s) 
....................       return 0; 
....................  
....................    for(c=s[ptr++]; c!=0; c=s[ptr++]) 
....................    { 
....................       if (skip && !isspace(c)) 
....................       { 
....................          skip = 0; 
....................          if (c == '+') 
....................          { 
....................             sign = 0; 
....................             continue; 
....................          }             
....................          else if (c == '-') 
....................          { 
....................             sign = 1; 
....................             continue; 
....................          } 
....................       } 
....................       if (!skip && (c == '.') && !point) 
....................          point = 1; 
....................       else if (!skip && isdigit(c)) 
....................       { 
....................          c -= '0'; 
....................          if (point) 
....................          { 
....................             pow10 = pow10 * 10.0; 
....................             result += (float48)c / pow10;    
....................          } 
....................          else 
....................          { 
....................             result = 10.0 * result + (float48)c; 
....................          } 
....................       } 
....................       else if (!skip) 
....................          break; 
....................    } 
....................  
....................    if (sign) 
....................       result = -1*result; 
....................        
....................    if(endptr) 
....................    { 
....................       if (ptr) { 
....................          ptr--; 
....................        #IF LONG_POINTERS  
....................          *((int16 *)endptr)= s+ptr;  
....................        #ELSE 
....................          *((char *)endptr)=s+ptr; 
....................        #ENDIF 
....................       } 
....................       else 
....................       { 
....................       #IF LONG_POINTERS 
....................       *((int16 *)endptr)= s;  
....................       #ELSE 
....................       *((char *)endptr)=s; 
....................       #ENDIF 
....................       } 
....................    } 
....................  
....................    return(result); 
.................... } 
....................  
.................... float64 strtod(char *s, char *endptr) 
.................... { 
....................    float64 pow10 = 1.0; 
....................    float64 result = 0.0; 
....................    int1 skip = 1, sign = 0, point = 0; 
....................    char c; 
....................    unsigned int8 ptr = 0; 
....................  
....................    if (!s) 
....................       return 0; 
....................  
....................    for(c=s[ptr++]; c!=0; c=s[ptr++]) 
....................    { 
....................       if (skip && !isspace(c)) 
....................       { 
....................          skip = 0; 
....................          if (c == '+') 
....................          { 
....................             sign = 0; 
....................             continue; 
....................          }             
....................          else if (c == '-') 
....................          { 
....................             sign = 1; 
....................             continue; 
....................          } 
....................       } 
....................       if (!skip && (c == '.') && !point) 
....................          point = 1; 
....................       else if (!skip && isdigit(c)) 
....................       { 
....................          c -= '0'; 
....................          if (point) 
....................          { 
....................             pow10 = pow10 * 10.0; 
....................             result += (float64)c / pow10;    
....................          } 
....................          else 
....................          { 
....................             result = 10.0 * result + (float64)c; 
....................          } 
....................       } 
....................       else if (!skip) 
....................          break; 
....................    } 
....................  
....................    if (sign) 
....................       result = -1*result; 
....................        
....................    if(endptr) 
....................    { 
....................       if (ptr) { 
....................          ptr--; 
....................        #IF LONG_POINTERS  
....................          *((int16 *)endptr)= s+ptr;  
....................        #ELSE 
....................          *((char *)endptr)=s+ptr; 
....................        #ENDIF 
....................       } 
....................       else 
....................       { 
....................       #IF LONG_POINTERS 
....................       *((int16 *)endptr)= s;  
....................       #ELSE 
....................       *((char *)endptr)=s; 
....................       #ENDIF 
....................       } 
....................    } 
....................  
....................    return(result); 
.................... } 
.................... #endif 
....................  
.................... unsigned long strtoul(char *s, char *endptr, signed int base) 
.................... { 
....................    char *sc,*s1,*sd; 
....................    unsigned long x=0; 
....................    char sign; 
....................    char digits[]="0123456789abcdefghijklmnopqstuvwxyz"; 
....................    for(sc=s;isspace(*sc);++sc); 
....................    sign=*sc=='-'||*sc=='+'?*sc++:'+'; 
....................    if(sign=='-' || base <0 || base ==1|| base >36) // invalid base 
....................    goto StrtoulGO; 
....................  
....................    else if (base) 
....................    { 
....................       if(base==16 && *sc =='0'&&(sc[1]=='x' || sc[1]=='X')) 
....................          sc+=2; 
....................       if(base==8 && *sc =='0') 
....................          sc+=1; 
....................       if(base==2 && *sc =='0'&&sc[1]=='b') 
....................          sc+=2; 
....................  
....................    } 
....................    else if(*sc!='0') // base is 0, find base 
....................       base=10; 
....................    else if (sc[1]=='x' || sc[1]=='X') 
....................       base =16,sc+=2; 
....................    else if(sc[1]=='b') 
....................       base=2,sc+=2; 
....................    else 
....................       base=8; 
....................    for (s1=sc;*sc=='0';++sc);// skip leading zeroes 
....................    sd=memchr(digits,tolower(*sc),base); 
....................    for(; sd!=0; ) 
....................    { 
....................       x=x*base+(int16)(sd-digits); 
....................       ++sc; 
....................       sd=memchr(digits,tolower(*sc),base); 
....................    } 
....................    if(s1==sc) 
....................    { 
....................    StrtoulGO: 
....................       if (endptr) 
....................       { 
....................          #IF LONG_POINTERS 
....................          *((int16 *)endptr)= s;  
....................          #ELSE 
....................          *((char *)endptr)=s; 
....................          #ENDIF 
....................          } 
....................    return 0; 
....................    } 
....................    if (endptr) 
....................    { 
....................          #IF LONG_POINTERS 
....................          *((int16 *)endptr)= sc;  
....................          #ELSE 
....................          *((char *)endptr)=sc;  
....................          #ENDIF 
....................    } 
....................    return x; 
.................... } 
....................  
....................  
.................... signed long strtol(char *s,char *endptr, signed int base) 
.................... { 
....................    char *sc,*s1,*sd; 
....................    signed long x=0; 
....................    char sign; 
....................    char digits[]="0123456789abcdefghijklmnopqstuvwxyz"; 
....................    for(sc=s;isspace(*sc);++sc); 
....................    sign=*sc=='-'||*sc=='+'?*sc++:'+'; 
....................    if (base <0 || base ==1|| base >36) // invalid base 
....................    goto StrtolGO; 
....................    else if (base) 
....................    { 
....................       if(base==16 && *sc =='0'&&(sc[1]=='x' || sc[1]=='X')) 
....................          sc+=2; 
....................       if(base==8 && *sc =='0') 
....................          sc+=1; 
....................       if(base==2 && *sc =='0'&&sc[1]=='b') 
....................          sc+=2; 
....................  
....................    } 
....................    else if(*sc!='0') // base is 0, find base 
....................       base=10; 
....................    else if (sc[1]=='x' || sc[1]=='X') 
....................       base =16,sc+=2; 
....................    else if(sc[1]=='b') 
....................       base=2,sc+=2; 
....................    else 
....................       base=8; 
....................    for (s1=sc;*sc=='0';++sc);// skip leading zeroes 
....................  
....................    sd=memchr(digits,tolower(*sc),base); 
....................    for(;sd!=0;) 
....................    { 
....................       x=x*base+(int16)(sd-digits); 
....................       ++sc; 
....................       sd=memchr(digits,tolower(*sc),base); 
....................    } 
....................    if(s1==sc) 
....................    { 
....................    StrtolGO: 
....................       if (endptr) 
....................       { 
....................          #IF LONG_POINTERS 
....................          *((int16 *)endptr)= s;  
....................          #ELSE 
....................          *((char *)endptr)=s; 
....................          #ENDIF 
....................       } 
....................    return 0; 
....................    } 
....................    if(sign=='-') 
....................       x  =-x; 
....................    if (endptr) 
....................    { 
....................         #IF LONG_POINTERS 
....................          *((int16 *)endptr)= sc;  
....................         #ELSE 
....................         *((char *)endptr)=sc; 
....................         #ENDIF 
....................    } 
....................    return x; 
.................... } 
....................  
.................... signed int8 system(char *string) 
.................... { 
....................    return 0; 
.................... } 
....................  
.................... int8 mblen(char *s,size_t n) 
.................... { 
....................    return strlen(s); 
.................... } 
....................  
.................... int8 mbtowc(wchar_t *pwc,char *s,size_t n) 
.................... { 
....................    *pwc=*s; 
....................    return 1; 
.................... } 
....................  
.................... int8 wctomb(char *s,wchar_t wchar) 
.................... { 
....................    *s=wchar; 
....................    return 1; 
.................... } 
....................  
.................... size_t mbstowcs(wchar_t *pwcs,char *s,size_t n) 
.................... { 
....................    strncpy(pwcs,s,n); 
....................    return strlen(pwcs); 
.................... } 
....................  
.................... size_t wcstombs(char *s,wchar_t *pwcs,size_t n) 
.................... { 
....................    strncpy(s,pwcs,n); 
....................    return strlen(s); 
.................... } 
....................  
.................... //--------------------------------------------------------------------------- 
.................... // The random number implementation 
.................... //--------------------------------------------------------------------------- 
....................  
.................... unsigned int32 _Randseed; 
....................  
.................... unsigned int16 rand(void) 
.................... { 
....................    _Randseed = _Randseed * 1103515245 + 12345; 
....................    return ((unsigned int16)(_Randseed >> 16) % RAND_MAX); 
.................... } 
....................  
.................... void srand(unsigned int32 seed) 
.................... { 
....................    _Randseed = seed; 
.................... } 
....................  
.................... //--------------------------------------------------------------------------- 
.................... // Searching and sorting utilities implementation 
.................... //--------------------------------------------------------------------------- 
....................  
.................... #if !defined(__PCD__) 
.................... typedef signed int8 (*_Cmpfun)(char * p1,char * p2);  
.................... #else  
.................... typedef signed int16 (*_Cmpfun)(char * p1,char * p2);  
.................... #endif 
....................  
....................  
....................  
.................... void qsort(char * qdata, unsigned int qitems, unsigned int qsize, _Cmpfun cmp) { 
....................    unsigned int m,j,i,l; 
....................    int1 done; 
....................    unsigned int8 t[16]; 
....................  
....................    m = qitems/2; 
....................    while( m > 0 ) { 
....................      for(j=0; j<(qitems-m); ++j) { 
....................         i = j; 
....................         do 
....................         { 
....................            done=1; 
....................            l = i+m; 
....................            if( (*cmp)(qdata+i*qsize, qdata+l*qsize) > 0 ) { 
....................               memcpy(t, qdata+i*qsize, qsize); 
....................               memcpy(qdata+i*qsize, qdata+l*qsize, qsize); 
....................               memcpy(qdata+l*qsize, t, qsize); 
....................               if(m <= i) 
....................                 i -= m; 
....................                 done = 0; 
....................            } 
....................         } while(!done); 
....................      } 
....................      m = m/2; 
....................    } 
.................... } 
....................  
....................  
.................... char *bsearch(char *key, char *base, size_t num, size_t width,_Cmpfun cmp) 
.................... { 
....................    char *p, *q; 
....................    size_t n; 
....................    size_t pivot; 
....................    signed int val; 
....................  
....................    p = base; 
....................    n = num; 
....................  
....................    while (n > 0) 
....................    { 
....................       pivot = n >> 1; 
....................       q = p + width * pivot; 
....................  
....................       val = (*cmp)(key, q); 
....................  
....................       if (val < 0) 
....................          n = pivot; 
....................       else if (val == 0) 
....................          return ((char *)q); 
....................       else { 
....................          p = q + width; 
....................          n -= pivot + 1; 
....................       } 
....................    } 
....................  
....................    return NULL;      // There's no match 
.................... } 
....................  
....................  
.................... #endif 
....................  
.................... #fuses INTRC_IO,WDT_SW,WDT64,MCLR,PROTECT,NOBROWNOUT	//WDTL	MCLRL 
.................... //#fuses INTRC_IO,WDT_SW,WDT64,NOMCLR,PROTECT,NOBROWNOUT	//WDTL	MCLR 
.................... //#fuses INTRC_IO,NOWDT,NOMCLR,PROTECT,NOBROWNOUT				//WDT	MCLR 
.................... //#fuses INTRC_IO,NOWDT,NOLVP,NOMCLR,PROTECT,NOBROWNOUT 
.................... #use delay(CLOCK=64MHz)//,RESTART_WDT 
*
0385C:  MOVLW  04
0385E:  MOVWF  FEA
03860:  MOVLW  41
03862:  MOVWF  FE9
03864:  MOVF   FEF,W
03866:  BZ    3884
03868:  MOVLW  14
0386A:  MOVWF  01
0386C:  CLRF   00
0386E:  DECFSZ 00,F
03870:  BRA    386E
03872:  DECFSZ 01,F
03874:  BRA    386C
03876:  MOVLW  BF
03878:  MOVWF  00
0387A:  DECFSZ 00,F
0387C:  BRA    387A
0387E:  BRA    3880
03880:  DECFSZ FEF,F
03882:  BRA    3868
03884:  RETURN 0
03886:  MOVLW  01
03888:  MOVLB  4
0388A:  SUBWF  x41,F
0388C:  BNC   38A6
0388E:  MOVLW  04
03890:  MOVWF  FEA
03892:  MOVLW  41
03894:  MOVWF  FE9
03896:  MOVF   FEF,W
03898:  BZ    38A6
0389A:  MOVLW  04
0389C:  MOVWF  00
0389E:  DECFSZ 00,F
038A0:  BRA    389E
038A2:  DECFSZ FEF,F
038A4:  BRA    389A
038A6:  MOVLB  0
038A8:  RETURN 0
.................... #use rs232(baud=19200,xmit=PIN_C6,rcv=PIN_C7,parity=N,bits=8,stream=c1,ERRORS)//main connect. 
*
03222:  BTFSS  F9E.5
03224:  BRA    3222
03226:  MOVFF  FAB,1F
0322A:  MOVFF  FAE,01
0322E:  BTFSS  1F.1
03230:  BRA    3236
03232:  BCF    FAB.4
03234:  BSF    FAB.4
03236:  GOTO   3256 (RETURN)
.................... //#use rs232(baud=19200,xmit=PIN_D6,rcv=PIN_D7,parity=N,bits=8,stream=c2,ERRORS)// 
.................... #use i2c(MASTER, SDA=PIN_C4, SCL=PIN_C3,SLOW,FORCE_HW)//FAST=400kbps SLOW=100kbps  
*
03818:  BCF    FC6.7
0381A:  BCF    F9E.3
0381C:  MOVFF  44D,FC9
03820:  MOVLW  02
03822:  BTFSC  FC6.7
03824:  BRA    3830
03826:  BTFSS  F9E.3
03828:  BRA    3826
0382A:  MOVLW  00
0382C:  BTFSC  FC5.6
0382E:  MOVLW  01
03830:  MOVWF  01
03832:  RETURN 0
....................  
.................... // 
.................... //VXeW 
.................... char ver[]="202006101157"; 
.................... //char ver[]="201910311211"; 
.................... int cpu_startup_case = 0; 
.................... //tbJ[W 
.................... int flicker_10 = 0,		flicker_10_one = 0; 
.................... int flicker_100 = 0,	flicker_100_one = 0; 
.................... int flicker_500 = 0,	flicker_500_one = 0; 
.................... int flicker_1000 = 0,	flicker_1000_one = 0; 
.................... long counttimer1 = 0; 
.................... long counttimer2 = 0; 
.................... long counttimer3 = 0; 
.................... long counttimer4 = 0; 
.................... //int output_process_one = 0; 
.................... int lcd_process_one = 0; 
.................... int rtc_process_one = 0; 
.................... int input_process_one = 0; 
.................... int servo_process_one = 0; 
.................... //int illumiled_process_one = 0; 
.................... int signboard_process_one = 0; 
....................  
.................... //AiOvW 
.................... int analog_index = 0; 
.................... long analog_value[2] = {0,0}; 
....................  
.................... //fW^W 
.................... int ra0 = 0,ra1 = 0,ra2 = 0,ra3 = 0,ra4 = 0,ra5 = 0,ra6 = 0,ra7 = 0; 
.................... //int ra0_re = 0,ra1_re = 0,ra2_re = 0,ra3_re = 0,ra4_re = 0,ra5_re = 0,ra6_re = 0,ra7_re = 0; 
.................... //int rb0 = 0,rb1 = 0,rb2 = 0,rb3 = 0,rb4 = 0,rb5 = 0;//,rb6 = 0,rb7 = 0; 
.................... //int rb0_re = 0,rb1_re = 0,rb2_re = 0,rb3_re = 0,rb4_re = 0,rb5_re = 0;//,rb6_re = 0,rb7_re = 0; 
.................... long re0 = 0,re1 = 0; 
.................... int sw1 = 0,sw1_re = 0,sw2 = 0,sw2_re = 0,sw3 = 0,sw3_re = 0,sw4 = 0,sw4_re = 0; 
.................... long sw1_count_longpress = 0;//XCb`JEg 
....................  
.................... //VAW 
.................... char punctuate[] = ",";//VA 
.................... int get_command_value_c1 = 0; 
.................... char get_command_c1[160] = { 
.................... 	0x0,0x0,0x0,0x0,0x0,0x0,0x0,0x0,0x0,0x0, 
.................... 	0x0,0x0,0x0,0x0,0x0,0x0,0x0,0x0,0x0,0x0, 
.................... 	0x0,0x0,0x0,0x0,0x0,0x0,0x0,0x0,0x0,0x0, 
.................... 	0x0,0x0,0x0,0x0,0x0,0x0,0x0,0x0,0x0,0x0, 
.................... 	0x0,0x0,0x0,0x0,0x0,0x0,0x0,0x0,0x0,0x0, 
.................... 	0x0,0x0,0x0,0x0,0x0,0x0,0x0,0x0,0x0,0x0, 
.................... 	0x0,0x0,0x0,0x0,0x0,0x0,0x0,0x0,0x0,0x0, 
.................... 	0x0,0x0,0x0,0x0,0x0,0x0,0x0,0x0,0x0,0x0, 
.................... 	0x0,0x0,0x0,0x0,0x0,0x0,0x0,0x0,0x0,0x0, 
.................... 	0x0,0x0,0x0,0x0,0x0,0x0,0x0,0x0,0x0,0x0, 
.................... 	0x0,0x0,0x0,0x0,0x0,0x0,0x0,0x0,0x0,0x0, 
.................... 	0x0,0x0,0x0,0x0,0x0,0x0,0x0,0x0,0x0,0x0, 
.................... 	0x0,0x0,0x0,0x0,0x0,0x0,0x0,0x0,0x0,0x0, 
.................... 	0x0,0x0,0x0,0x0,0x0,0x0,0x0,0x0,0x0,0x0, 
.................... 	0x0,0x0,0x0,0x0,0x0,0x0,0x0,0x0,0x0,0x0, 
.................... 	0x0,0x0,0x0,0x0,0x0,0x0,0x0,0x0,0x0,0x0};//MR}h 
.................... char compare_command_c1[10] = {0x0,0x0,0x0,0x0,0x0,0x0,0x0,0x0,0x0,0x0}; 
.................... //int get_command_value_c2 = 0; 
.................... //char get_command_c2[10] = {0x0,0x0,0x0,0x0,0x0,0x0,0x0,0x0,0x0,0x0}; 
.................... //char compare_command_c2[10] = {0x0,0x0,0x0,0x0,0x0,0x0,0x0,0x0,0x0,0x0}; 
....................  
.................... // 
.................... long mode = 10; 
.................... //long mode_test = 0; 
.................... long lcd_mode = 10; 
.................... //int lcd_row = 0; 
.................... long cursor_index = 0; 
.................... //int step = 0; 
.................... int step_one = 0; 
.................... //long step_count = 0; 
.................... //int servo_angle = 0; 
.................... //int servo_target_angle = 0; 
.................... //int servo_step_angle = 0; 
.................... //int servo_turn = 0; 
.................... //int servo_position = 0; 
.................... //int servo_start = 0; 
.................... //long servo_time = 0; 
.................... //int servo_rotation = 0; 
.................... //int32 test_val = 0; 
.................... //long step = 0;//CXebv 
.................... //int led_index = 0; 
.................... long timer0_value = 0; 
.................... int life_index = 0; 
.................... char life_char[] = "/-_."; 
.................... //int mode = 10; 
.................... //int weight = 0; 
.................... //long return_count = 0; 
....................  
.................... // 
.................... void startup(); 
.................... void serial_process1(); 
.................... void serial_process2(); 
.................... void input_process(); 
.................... void output_process(); 
.................... void sw_process(); 
.................... void modeselect_process(); 
.................... void modeselect_lcd_process(); 
.................... void hardwareinfo_process(); 
.................... void hardwareinfo_lcd_process(); 
.................... void io_process(); 
.................... void io_lcd_process(); 
.................... //void illumiled_process(); 
.................... //void illumiled_lcd_process(); 
.................... void lcd_process(); 
.................... void servo_process(); 
.................... void uart_process(); 
.................... void graphic_process(); 
....................  
.................... void save_mode(long save_mode); 
....................  
.................... //`FbNOK 
.................... //#include "process_rtc.c"//gpt@CgpW[CuLB 
.................... //#include "process_illumiled.c";//gpt@CgpW[CuLB 
.................... #include "process_signboard.c" 
.................... int signboard_color_set = 4; 
.................... int signboard_mode_set = 0; 
.................... int signboard_speed = 1; 
.................... int led_signaltype = 0;//0=rgb,1=grb 
.................... int led_timing = 1;//^C~Op^[ 
.................... int led_brightness = 50;// 
.................... int signboard_putcount = 0;//XMMJEg 
.................... int signboard_putcount_max = 5;//XMM 
....................  
.................... //#include "ws281x(64).c"//VAMLED ws281x 
.................... #include "ws281x(256).c"//VAMLED ws281x 
.................... #define LED_OUT    PIN_B0 
....................  
.................... #include "led_pattern(256).c"//p^[l 
.................... 																 
.................... 																 
.................... //\[XuJ[e[u_16x16TC{[h.xlsmvgpB																 
.................... //RED																 
.................... const int ws281x_color_r[16][256] = {{																 
.................... 0x00,	0x00,	0x00,	0x00,	0x00,	0x00,	0x00,	0x00,	0x00,	0x00,	0x00,	0x00,	0x00,	0x00,	0x00,	0x00,	//0-1 
.................... 0x00,	0x00,	0x00,	0x00,	0x00,	0x00,	0x00,	0x00,	0x00,	0x00,	0x00,	0x00,	0x00,	0x00,	0x00,	0x00,	//0-2 
.................... 0x00,	0x00,	0x00,	0x00,	0x00,	0x00,	0x00,	0x00,	0x00,	0x00,	0x00,	0x00,	0x00,	0x00,	0x00,	0x00,	//0-3 
.................... 0x00,	0x00,	0x00,	0x00,	0x00,	0x00,	0x00,	0x00,	0x00,	0x00,	0x00,	0x00,	0x00,	0x00,	0x00,	0x00,	//0-4 
.................... 0x00,	0x00,	0x00,	0x00,	0x00,	0x00,	0x00,	0x00,	0x00,	0x00,	0x00,	0x00,	0x00,	0x00,	0x00,	0x00,	//0-5 
.................... 0x00,	0x00,	0x00,	0x00,	0x00,	0x00,	0x00,	0x00,	0x00,	0x00,	0x00,	0x00,	0x00,	0x00,	0x00,	0x00,	//0-6 
.................... 0x00,	0x00,	0x00,	0x00,	0x00,	0x00,	0x00,	0x00,	0x00,	0x00,	0x00,	0x00,	0x00,	0x00,	0x00,	0x00,	//0-7 
.................... 0x00,	0x00,	0x00,	0x00,	0x00,	0x00,	0x00,	0x00,	0x00,	0x00,	0x00,	0x00,	0x00,	0x00,	0x00,	0x00,	//0-8 
.................... 0x00,	0x00,	0x00,	0x00,	0x00,	0x00,	0x00,	0x00,	0x00,	0x00,	0x00,	0x00,	0x00,	0x00,	0x00,	0x00,	//0-9 
.................... 0x00,	0x00,	0x00,	0x00,	0x00,	0x00,	0x00,	0x00,	0x00,	0x00,	0x00,	0x00,	0x00,	0x00,	0x00,	0x00,	//0-10 
.................... 0x00,	0x00,	0x00,	0x00,	0x00,	0x00,	0x00,	0x00,	0x00,	0x00,	0x00,	0x00,	0x00,	0x00,	0x00,	0x00,	//0-11 
.................... 0x00,	0x00,	0x00,	0x00,	0x00,	0x00,	0x00,	0x00,	0x00,	0x00,	0x00,	0x00,	0x00,	0x00,	0x00,	0x00,	//0-12 
.................... 0x00,	0x00,	0x00,	0x00,	0x00,	0x00,	0x00,	0x00,	0x00,	0x00,	0x00,	0x00,	0x00,	0x00,	0x00,	0x00,	//0-13 
.................... 0x00,	0x00,	0x00,	0x00,	0x00,	0x00,	0x00,	0x00,	0x00,	0x00,	0x00,	0x00,	0x00,	0x00,	0x00,	0x00,	//0-14 
.................... 0x00,	0x00,	0x00,	0x00,	0x00,	0x00,	0x00,	0x00,	0x00,	0x00,	0x00,	0x00,	0x00,	0x00,	0x00,	0x00,	//0-15 
.................... 0x00,	0x00,	0x00,	0x00,	0x00,	0x00,	0x00,	0x00,	0x00,	0x00,	0x00,	0x00,	0x00,	0x00,	0x00,	0x00	//0-16 
.................... },{																 
.................... 0x00,	0x00,	0x00,	0x00,	0x00,	0x00,	0x00,	0x00,	0x00,	0x00,	0x00,	0x00,	0x00,	0x00,	0x00,	0x00,	//1-1 
.................... 0x00,	0x00,	0x00,	0x00,	0x00,	0x00,	0x00,	0x00,	0x00,	0x00,	0x00,	0x00,	0x00,	0x00,	0x00,	0x00,	//1-2 
.................... 0x00,	0x00,	0x00,	0x00,	0x00,	0x00,	0x00,	0x00,	0x00,	0x00,	0x00,	0x00,	0x00,	0x00,	0x00,	0x00,	//1-3 
.................... 0x00,	0x00,	0x00,	0x00,	0x00,	0x00,	0x00,	0x00,	0x00,	0x00,	0x00,	0x00,	0x00,	0x00,	0x00,	0x00,	//1-4 
.................... 0x00,	0x00,	0x00,	0x00,	0x00,	0x00,	0x00,	0x00,	0x00,	0x00,	0x00,	0x00,	0x00,	0x00,	0x00,	0x00,	//1-5 
.................... 0x00,	0x00,	0x00,	0x00,	0x00,	0x00,	0x00,	0x00,	0x00,	0x00,	0x00,	0x00,	0x00,	0x00,	0x00,	0x00,	//1-6 
.................... 0x00,	0x00,	0x00,	0x00,	0x00,	0x00,	0x00,	0x00,	0x00,	0x00,	0x00,	0x00,	0x00,	0x00,	0x00,	0x00,	//1-7 
.................... 0x00,	0x00,	0x00,	0x00,	0x00,	0x00,	0x00,	0x00,	0x00,	0x00,	0x00,	0x00,	0x00,	0x00,	0x00,	0x00,	//1-8 
.................... 0x00,	0x00,	0x00,	0x00,	0x00,	0x00,	0x00,	0x00,	0x00,	0x00,	0x00,	0x00,	0x00,	0x00,	0x00,	0x00,	//1-9 
.................... 0x00,	0x00,	0x00,	0x00,	0x00,	0x00,	0x00,	0x00,	0x00,	0x00,	0x00,	0x00,	0x00,	0x00,	0x00,	0x00,	//1-10 
.................... 0x00,	0x00,	0x00,	0x00,	0x00,	0x00,	0x00,	0x00,	0x00,	0x00,	0x00,	0x00,	0x00,	0x00,	0x00,	0x00,	//1-11 
.................... 0x00,	0x00,	0x00,	0x00,	0x00,	0x00,	0x00,	0x00,	0x00,	0x00,	0x00,	0x00,	0x00,	0x00,	0x00,	0x00,	//1-12 
.................... 0x00,	0x00,	0x00,	0x00,	0x00,	0x00,	0x00,	0x00,	0x00,	0x00,	0x00,	0x00,	0x00,	0x00,	0x00,	0x00,	//1-13 
.................... 0x00,	0x00,	0x00,	0x00,	0x00,	0x00,	0x00,	0x00,	0x00,	0x00,	0x00,	0x00,	0x00,	0x00,	0x00,	0x00,	//1-14 
.................... 0x00,	0x00,	0x00,	0x00,	0x00,	0x00,	0x00,	0x00,	0x00,	0x00,	0x00,	0x00,	0x00,	0x00,	0x00,	0x00,	//1-15 
.................... 0x00,	0x00,	0x00,	0x00,	0x00,	0x00,	0x00,	0x00,	0x00,	0x00,	0x00,	0x00,	0x00,	0x00,	0x00,	0x00	//1-16 
.................... },{																 
.................... 0xBF,	0xBF,	0xBF,	0xBF,	0xBF,	0xBF,	0xBF,	0xBF,	0xBF,	0xBF,	0xBF,	0xBF,	0xBF,	0xBF,	0xBF,	0xBF,	//2-1 
.................... 0xBF,	0xBF,	0xBF,	0xBF,	0xBF,	0xBF,	0xBF,	0xBF,	0xBF,	0xBF,	0xBF,	0xBF,	0xBF,	0xBF,	0xBF,	0xBF,	//2-2 
.................... 0xBF,	0xBF,	0xBF,	0xBF,	0xBF,	0xBF,	0xBF,	0xBF,	0xBF,	0xBF,	0xBF,	0xBF,	0xBF,	0xBF,	0xBF,	0xBF,	//2-3 
.................... 0xBF,	0xBF,	0xBF,	0xBF,	0xBF,	0xBF,	0xBF,	0xBF,	0xBF,	0xBF,	0xBF,	0xBF,	0xBF,	0xBF,	0xBF,	0xBF,	//2-4 
.................... 0xBF,	0xBF,	0xBF,	0xBF,	0xBF,	0xBF,	0xBF,	0xBF,	0xBF,	0xBF,	0xBF,	0xBF,	0xBF,	0xBF,	0xBF,	0xBF,	//2-5 
.................... 0xBF,	0xBF,	0xBF,	0xBF,	0xBF,	0xBF,	0xBF,	0xBF,	0xBF,	0xBF,	0xBF,	0xBF,	0xBF,	0xBF,	0xBF,	0xBF,	//2-6 
.................... 0xBF,	0xBF,	0xBF,	0xBF,	0xBF,	0xBF,	0xBF,	0xBF,	0xBF,	0xBF,	0xBF,	0xBF,	0xBF,	0xBF,	0xBF,	0xBF,	//2-7 
.................... 0xBF,	0xBF,	0xBF,	0xBF,	0xBF,	0xBF,	0xBF,	0xBF,	0xBF,	0xBF,	0xBF,	0xBF,	0xBF,	0xBF,	0xBF,	0xBF,	//2-8 
.................... 0xBF,	0xBF,	0xBF,	0xBF,	0xBF,	0xBF,	0xBF,	0xBF,	0xBF,	0xBF,	0xBF,	0xBF,	0xBF,	0xBF,	0xBF,	0xBF,	//2-9 
.................... 0xBF,	0xBF,	0xBF,	0xBF,	0xBF,	0xBF,	0xBF,	0xBF,	0xBF,	0xBF,	0xBF,	0xBF,	0xBF,	0xBF,	0xBF,	0xBF,	//2-10 
.................... 0xBF,	0xBF,	0xBF,	0xBF,	0xBF,	0xBF,	0xBF,	0xBF,	0xBF,	0xBF,	0xBF,	0xBF,	0xBF,	0xBF,	0xBF,	0xBF,	//2-11 
.................... 0xBF,	0xBF,	0xBF,	0xBF,	0xBF,	0xBF,	0xBF,	0xBF,	0xBF,	0xBF,	0xBF,	0xBF,	0xBF,	0xBF,	0xBF,	0xBF,	//2-12 
.................... 0xBF,	0xBF,	0xBF,	0xBF,	0xBF,	0xBF,	0xBF,	0xBF,	0xBF,	0xBF,	0xBF,	0xBF,	0xBF,	0xBF,	0xBF,	0xBF,	//2-13 
.................... 0xBF,	0xBF,	0xBF,	0xBF,	0xBF,	0xBF,	0xBF,	0xBF,	0xBF,	0xBF,	0xBF,	0xBF,	0xBF,	0xBF,	0xBF,	0xBF,	//2-14 
.................... 0xBF,	0xBF,	0xBF,	0xBF,	0xBF,	0xBF,	0xBF,	0xBF,	0xBF,	0xBF,	0xBF,	0xBF,	0xBF,	0xBF,	0xBF,	0xBF,	//2-15 
.................... 0xBF,	0xBF,	0xBF,	0xBF,	0xBF,	0xBF,	0xBF,	0xBF,	0xBF,	0xBF,	0xBF,	0xBF,	0xBF,	0xBF,	0xBF,	0xBF	//2-16 
.................... },{																 
.................... 0x00,	0x00,	0x00,	0x00,	0x00,	0x00,	0x00,	0x00,	0x00,	0x00,	0x00,	0x00,	0x00,	0x00,	0x00,	0x00,	//3-1 
.................... 0x00,	0x00,	0x00,	0x00,	0x00,	0x00,	0x00,	0x00,	0x00,	0x00,	0x00,	0x00,	0x00,	0x00,	0x00,	0x00,	//3-2 
.................... 0x00,	0x00,	0x00,	0x00,	0x00,	0x00,	0x00,	0x00,	0x00,	0x00,	0x00,	0x00,	0x00,	0x00,	0x00,	0x00,	//3-3 
.................... 0x00,	0x00,	0x00,	0x00,	0x00,	0x00,	0x00,	0x00,	0x00,	0x00,	0x00,	0x00,	0x00,	0x00,	0x00,	0x00,	//3-4 
.................... 0x00,	0x00,	0x00,	0x00,	0x00,	0x00,	0x00,	0x00,	0x00,	0x00,	0x00,	0x00,	0x00,	0x00,	0x00,	0x00,	//3-5 
.................... 0x00,	0x00,	0x00,	0x00,	0x00,	0x00,	0x00,	0x00,	0x00,	0x00,	0x00,	0x00,	0x00,	0x00,	0x00,	0x00,	//3-6 
.................... 0x00,	0x00,	0x00,	0x00,	0x00,	0x00,	0x00,	0x00,	0x00,	0x00,	0x00,	0x00,	0x00,	0x00,	0x00,	0x00,	//3-7 
.................... 0x00,	0x00,	0x00,	0x00,	0x00,	0x00,	0x00,	0x00,	0x00,	0x00,	0x00,	0x00,	0x00,	0x00,	0x00,	0x00,	//3-8 
.................... 0x00,	0x00,	0x00,	0x00,	0x00,	0x00,	0x00,	0x00,	0x00,	0x00,	0x00,	0x00,	0x00,	0x00,	0x00,	0x00,	//3-9 
.................... 0x00,	0x00,	0x00,	0x00,	0x00,	0x00,	0x00,	0x00,	0x00,	0x00,	0x00,	0x00,	0x00,	0x00,	0x00,	0x00,	//3-10 
.................... 0x00,	0x00,	0x00,	0x00,	0x00,	0x00,	0x00,	0x00,	0x00,	0x00,	0x00,	0x00,	0x00,	0x00,	0x00,	0x00,	//3-11 
.................... 0x00,	0x00,	0x00,	0x00,	0x00,	0x00,	0x00,	0x00,	0x00,	0x00,	0x00,	0x00,	0x00,	0x00,	0x00,	0x00,	//3-12 
.................... 0x00,	0x00,	0x00,	0x00,	0x00,	0x00,	0x00,	0x00,	0x00,	0x00,	0x00,	0x00,	0x00,	0x00,	0x00,	0x00,	//3-13 
.................... 0x00,	0x00,	0x00,	0x00,	0x00,	0x00,	0x00,	0x00,	0x00,	0x00,	0x00,	0x00,	0x00,	0x00,	0x00,	0x00,	//3-14 
.................... 0x00,	0x00,	0x00,	0x00,	0x00,	0x00,	0x00,	0x00,	0x00,	0x00,	0x00,	0x00,	0x00,	0x00,	0x00,	0x00,	//3-15 
.................... 0x00,	0x00,	0x00,	0x00,	0x00,	0x00,	0x00,	0x00,	0x00,	0x00,	0x00,	0x00,	0x00,	0x00,	0x00,	0x00	//3-16 
.................... },{																 
.................... 0xFF,	0xFF,	0xFF,	0xFF,	0xFF,	0xFF,	0xFF,	0xFF,	0xFF,	0xFF,	0xFF,	0xFF,	0xFF,	0xFF,	0xFF,	0xFF,	//4-1 
.................... 0xFF,	0xFF,	0xFF,	0xFF,	0xFF,	0xFF,	0xFF,	0xFF,	0xFF,	0xFF,	0xFF,	0xFF,	0xFF,	0xFF,	0xFF,	0xFF,	//4-2 
.................... 0xFF,	0xFF,	0xFF,	0xFF,	0xFF,	0xFF,	0xFF,	0xFF,	0xFF,	0xFF,	0xFF,	0xFF,	0xFF,	0xFF,	0xFF,	0xFF,	//4-3 
.................... 0xFF,	0xFF,	0xFF,	0xFF,	0xFF,	0xFF,	0xFF,	0xFF,	0xFF,	0xFF,	0xFF,	0xFF,	0xFF,	0xFF,	0xFF,	0xFF,	//4-4 
.................... 0xFF,	0xFF,	0xFF,	0xFF,	0xFF,	0xFF,	0xFF,	0xFF,	0xFF,	0xFF,	0xFF,	0xFF,	0xFF,	0xFF,	0xFF,	0xFF,	//4-5 
.................... 0xFF,	0xFF,	0xFF,	0xFF,	0xFF,	0xFF,	0xFF,	0xFF,	0xFF,	0xFF,	0xFF,	0xFF,	0xFF,	0xFF,	0xFF,	0xFF,	//4-6 
.................... 0xFF,	0xFF,	0xFF,	0xFF,	0xFF,	0xFF,	0xFF,	0xFF,	0xFF,	0xFF,	0xFF,	0xFF,	0xFF,	0xFF,	0xFF,	0xFF,	//4-7 
.................... 0xFF,	0xFF,	0xFF,	0xFF,	0xFF,	0xFF,	0xFF,	0xFF,	0xFF,	0xFF,	0xFF,	0xFF,	0xFF,	0xFF,	0xFF,	0xFF,	//4-8 
.................... 0xFF,	0xFF,	0xFF,	0xFF,	0xFF,	0xFF,	0xFF,	0xFF,	0xFF,	0xFF,	0xFF,	0xFF,	0xFF,	0xFF,	0xFF,	0xFF,	//4-9 
.................... 0xFF,	0xFF,	0xFF,	0xFF,	0xFF,	0xFF,	0xFF,	0xFF,	0xFF,	0xFF,	0xFF,	0xFF,	0xFF,	0xFF,	0xFF,	0xFF,	//4-10 
.................... 0xFF,	0xFF,	0xFF,	0xFF,	0xFF,	0xFF,	0xFF,	0xFF,	0xFF,	0xFF,	0xFF,	0xFF,	0xFF,	0xFF,	0xFF,	0xFF,	//4-11 
.................... 0xFF,	0xFF,	0xFF,	0xFF,	0xFF,	0xFF,	0xFF,	0xFF,	0xFF,	0xFF,	0xFF,	0xFF,	0xFF,	0xFF,	0xFF,	0xFF,	//4-12 
.................... 0xFF,	0xFF,	0xFF,	0xFF,	0xFF,	0xFF,	0xFF,	0xFF,	0xFF,	0xFF,	0xFF,	0xFF,	0xFF,	0xFF,	0xFF,	0xFF,	//4-13 
.................... 0xFF,	0xFF,	0xFF,	0xFF,	0xFF,	0xFF,	0xFF,	0xFF,	0xFF,	0xFF,	0xFF,	0xFF,	0xFF,	0xFF,	0xFF,	0xFF,	//4-14 
.................... 0xFF,	0xFF,	0xFF,	0xFF,	0xFF,	0xFF,	0xFF,	0xFF,	0xFF,	0xFF,	0xFF,	0xFF,	0xFF,	0xFF,	0xFF,	0xFF,	//4-15 
.................... 0xFF,	0xFF,	0xFF,	0xFF,	0xFF,	0xFF,	0xFF,	0xFF,	0xFF,	0xFF,	0xFF,	0xFF,	0xFF,	0xFF,	0xFF,	0xFF	//4-16 
.................... },{																 
.................... 0xFF,	0xFF,	0xFF,	0xFF,	0xFF,	0xFF,	0xFF,	0xFF,	0xFF,	0xFF,	0xFF,	0xFF,	0xFF,	0xFF,	0xFF,	0xFF,	//5-1 
.................... 0xFF,	0xFF,	0xFF,	0xFF,	0xFF,	0xFF,	0xFF,	0xFF,	0xFF,	0xFF,	0xFF,	0xFF,	0xFF,	0xFF,	0xFF,	0xFF,	//5-2 
.................... 0xFF,	0xFF,	0xFF,	0xFF,	0xFF,	0xFF,	0xFF,	0xFF,	0xFF,	0xFF,	0xFF,	0xFF,	0xFF,	0xFF,	0xFF,	0xFF,	//5-3 
.................... 0xFF,	0xFF,	0xFF,	0xFF,	0xFF,	0xFF,	0xFF,	0xFF,	0xFF,	0xFF,	0xFF,	0xFF,	0xFF,	0xFF,	0xFF,	0xFF,	//5-4 
.................... 0xFF,	0xFF,	0xFF,	0xFF,	0xFF,	0xFF,	0xFF,	0xFF,	0xFF,	0xFF,	0xFF,	0xFF,	0xFF,	0xFF,	0xFF,	0xFF,	//5-5 
.................... 0xFF,	0xFF,	0xFF,	0xFF,	0xFF,	0xFF,	0xFF,	0xFF,	0xFF,	0xFF,	0xFF,	0xFF,	0xFF,	0xFF,	0xFF,	0xFF,	//5-6 
.................... 0xFF,	0xFF,	0xFF,	0xFF,	0xFF,	0xFF,	0xFF,	0xFF,	0xFF,	0xFF,	0xFF,	0xFF,	0xFF,	0xFF,	0xFF,	0xFF,	//5-7 
.................... 0xFF,	0xFF,	0xFF,	0xFF,	0xFF,	0xFF,	0xFF,	0xFF,	0xFF,	0xFF,	0xFF,	0xFF,	0xFF,	0xFF,	0xFF,	0xFF,	//5-8 
.................... 0xFF,	0xFF,	0xFF,	0xFF,	0xFF,	0xFF,	0xFF,	0xFF,	0xFF,	0xFF,	0xFF,	0xFF,	0xFF,	0xFF,	0xFF,	0xFF,	//5-9 
.................... 0xFF,	0xFF,	0xFF,	0xFF,	0xFF,	0xFF,	0xFF,	0xFF,	0xFF,	0xFF,	0xFF,	0xFF,	0xFF,	0xFF,	0xFF,	0xFF,	//5-10 
.................... 0xFF,	0xFF,	0xFF,	0xFF,	0xFF,	0xFF,	0xFF,	0xFF,	0xFF,	0xFF,	0xFF,	0xFF,	0xFF,	0xFF,	0xFF,	0xFF,	//5-11 
.................... 0xFF,	0xFF,	0xFF,	0xFF,	0xFF,	0xFF,	0xFF,	0xFF,	0xFF,	0xFF,	0xFF,	0xFF,	0xFF,	0xFF,	0xFF,	0xFF,	//5-12 
.................... 0xFF,	0xFF,	0xFF,	0xFF,	0xFF,	0xFF,	0xFF,	0xFF,	0xFF,	0xFF,	0xFF,	0xFF,	0xFF,	0xFF,	0xFF,	0xFF,	//5-13 
.................... 0xFF,	0xFF,	0xFF,	0xFF,	0xFF,	0xFF,	0xFF,	0xFF,	0xFF,	0xFF,	0xFF,	0xFF,	0xFF,	0xFF,	0xFF,	0xFF,	//5-14 
.................... 0xFF,	0xFF,	0xFF,	0xFF,	0xFF,	0xFF,	0xFF,	0xFF,	0xFF,	0xFF,	0xFF,	0xFF,	0xFF,	0xFF,	0xFF,	0xFF,	//5-15 
.................... 0xFF,	0xFF,	0xFF,	0xFF,	0xFF,	0xFF,	0xFF,	0xFF,	0xFF,	0xFF,	0xFF,	0xFF,	0xFF,	0xFF,	0xFF,	0xFF	//5-16 
.................... },{																 
.................... 0xFF,	0xFF,	0xFF,	0xFF,	0xFF,	0xFF,	0xFF,	0xFF,	0xFF,	0xFF,	0xFF,	0xFF,	0xFF,	0xFF,	0xFF,	0xFF,	//6-1 
.................... 0xFF,	0xFF,	0xFF,	0xFF,	0xFF,	0xFF,	0xFF,	0xFF,	0xFF,	0xFF,	0xFF,	0xFF,	0xFF,	0xFF,	0xFF,	0x00,	//6-2 
.................... 0x00,	0x00,	0xFF,	0xFF,	0xFF,	0xFF,	0xFF,	0xFF,	0xFF,	0xFF,	0xFF,	0xFF,	0xFF,	0xFF,	0xFF,	0xFF,	//6-3 
.................... 0xFF,	0xFF,	0xFF,	0xFF,	0xFF,	0xFF,	0xFF,	0xFF,	0xFF,	0xFF,	0xFF,	0xFF,	0xFF,	0x00,	0x00,	0x00,	//6-4 
.................... 0x00,	0x00,	0x00,	0x00,	0xFF,	0xFF,	0xFF,	0xFF,	0xFF,	0xFF,	0xFF,	0xFF,	0xFF,	0xFF,	0xFF,	0xFF,	//6-5 
.................... 0xFF,	0xFF,	0xFF,	0xFF,	0xFF,	0xFF,	0xFF,	0xFF,	0xFF,	0xFF,	0xFF,	0x00,	0x00,	0x00,	0x00,	0x00,	//6-6 
.................... 0x00,	0x00,	0x00,	0x00,	0x00,	0x00,	0xFF,	0xFF,	0xFF,	0xFF,	0xFF,	0xFF,	0xFF,	0xFF,	0xFF,	0xFF,	//6-7 
.................... 0xFF,	0xFF,	0xFF,	0xFF,	0xFF,	0xFF,	0xFF,	0xFF,	0xFF,	0x00,	0x00,	0x00,	0x00,	0x00,	0x00,	0x00,	//6-8 
.................... 0x00,	0x00,	0x00,	0x00,	0x00,	0x00,	0x00,	0x00,	0xFF,	0xFF,	0xFF,	0xFF,	0xFF,	0xFF,	0xFF,	0xFF,	//6-9 
.................... 0xFF,	0xFF,	0xFF,	0xFF,	0xFF,	0xFF,	0xFF,	0x00,	0x00,	0x00,	0x00,	0x00,	0x00,	0x00,	0x00,	0x00,	//6-10 
.................... 0x00,	0x00,	0x00,	0x00,	0x00,	0x00,	0x00,	0x00,	0x00,	0x00,	0xFF,	0xFF,	0xFF,	0xFF,	0xFF,	0xFF,	//6-11 
.................... 0xFF,	0xFF,	0xFF,	0xFF,	0xFF,	0x00,	0x00,	0x00,	0x00,	0x00,	0x00,	0x00,	0x00,	0x00,	0x00,	0x00,	//6-12 
.................... 0x00,	0x00,	0x00,	0x00,	0x00,	0x00,	0x00,	0x00,	0x00,	0x00,	0x00,	0x00,	0xFF,	0xFF,	0xFF,	0xFF,	//6-13 
.................... 0xFF,	0xFF,	0xFF,	0x00,	0x00,	0x00,	0x00,	0x00,	0x00,	0x00,	0x00,	0x00,	0x00,	0x00,	0x00,	0x00,	//6-14 
.................... 0x00,	0x00,	0x00,	0x00,	0x00,	0x00,	0x00,	0x00,	0x00,	0x00,	0x00,	0x00,	0x00,	0x00,	0xFF,	0xFF,	//6-15 
.................... 0xFF,	0x00,	0x00,	0x00,	0x00,	0x00,	0x00,	0x00,	0x00,	0x00,	0x00,	0x00,	0x00,	0x00,	0x00,	0x00	//6-16 
.................... },{																 
.................... 0xFF,	0x00,	0x00,	0x00,	0x00,	0x00,	0x00,	0x00,	0x00,	0x00,	0x00,	0x00,	0x00,	0x00,	0x00,	0x00,	//7-1 
.................... 0x00,	0x00,	0x00,	0x00,	0x00,	0x00,	0x00,	0x00,	0x00,	0x00,	0x00,	0x00,	0x00,	0x00,	0xFF,	0xFF,	//7-2 
.................... 0xFF,	0xFF,	0xFF,	0x00,	0x00,	0x00,	0x00,	0x00,	0x00,	0x00,	0x00,	0x00,	0x00,	0x00,	0x00,	0x00,	//7-3 
.................... 0x00,	0x00,	0x00,	0x00,	0x00,	0x00,	0x00,	0x00,	0x00,	0x00,	0x00,	0x00,	0xFF,	0xFF,	0xFF,	0xFF,	//7-4 
.................... 0xFF,	0xFF,	0xFF,	0xFF,	0xFF,	0x00,	0x00,	0x00,	0x00,	0x00,	0x00,	0x00,	0x00,	0x00,	0x00,	0x00,	//7-5 
.................... 0x00,	0x00,	0x00,	0x00,	0x00,	0x00,	0x00,	0x00,	0x00,	0x00,	0xFF,	0xFF,	0xFF,	0xFF,	0xFF,	0xFF,	//7-6 
.................... 0xFF,	0xFF,	0xFF,	0xFF,	0xFF,	0xFF,	0xFF,	0x00,	0x00,	0x00,	0x00,	0x00,	0x00,	0x00,	0x00,	0x00,	//7-7 
.................... 0x00,	0x00,	0x00,	0x00,	0x00,	0x00,	0x00,	0x00,	0xFF,	0xFF,	0xFF,	0xFF,	0xFF,	0xFF,	0xFF,	0xFF,	//7-8 
.................... 0xFF,	0xFF,	0xFF,	0xFF,	0xFF,	0xFF,	0xFF,	0xFF,	0xFF,	0x00,	0x00,	0x00,	0x00,	0x00,	0x00,	0x00,	//7-9 
.................... 0x00,	0x00,	0x00,	0x00,	0x00,	0x00,	0xFF,	0xFF,	0xFF,	0xFF,	0xFF,	0xFF,	0xFF,	0xFF,	0xFF,	0xFF,	//7-10 
.................... 0xFF,	0xFF,	0xFF,	0xFF,	0xFF,	0xFF,	0xFF,	0xFF,	0xFF,	0xFF,	0xFF,	0x00,	0x00,	0x00,	0x00,	0x00,	//7-11 
.................... 0x00,	0x00,	0x00,	0x00,	0xFF,	0xFF,	0xFF,	0xFF,	0xFF,	0xFF,	0xFF,	0xFF,	0xFF,	0xFF,	0xFF,	0xFF,	//7-12 
.................... 0xFF,	0xFF,	0xFF,	0xFF,	0xFF,	0xFF,	0xFF,	0xFF,	0xFF,	0xFF,	0xFF,	0xFF,	0xFF,	0x00,	0x00,	0x00,	//7-13 
.................... 0x00,	0x00,	0xFF,	0xFF,	0xFF,	0xFF,	0xFF,	0xFF,	0xFF,	0xFF,	0xFF,	0xFF,	0xFF,	0xFF,	0xFF,	0xFF,	//7-14 
.................... 0xFF,	0xFF,	0xFF,	0xFF,	0xFF,	0xFF,	0xFF,	0xFF,	0xFF,	0xFF,	0xFF,	0xFF,	0xFF,	0xFF,	0xFF,	0x00,	//7-15 
.................... 0xFF,	0xFF,	0xFF,	0xFF,	0xFF,	0xFF,	0xFF,	0xFF,	0xFF,	0xFF,	0xFF,	0xFF,	0xFF,	0xFF,	0xFF,	0xFF	//7-16 
.................... },{																 
.................... 0xFF,	0xFF,	0xFF,	0xFF,	0xFF,	0xFF,	0xFF,	0xFF,	0xFF,	0xFF,	0xFF,	0xFF,	0xFF,	0xFF,	0xFF,	0xFF,	//8-1 
.................... 0xFF,	0xFF,	0xFF,	0xFF,	0xFF,	0xFF,	0xFF,	0xFF,	0xFF,	0xFF,	0xFF,	0xFF,	0xFF,	0xFF,	0xFF,	0xFF,	//8-2 
.................... 0xFF,	0xFF,	0xFF,	0xFF,	0xFF,	0xFF,	0xFF,	0xFF,	0xFF,	0xFF,	0xFF,	0xFF,	0xFF,	0xFF,	0xFF,	0xFF,	//8-3 
.................... 0xFF,	0xFF,	0xFF,	0x00,	0x00,	0x00,	0xFF,	0xFF,	0xFF,	0xFF,	0x00,	0x00,	0x00,	0xFF,	0xFF,	0xFF,	//8-4 
.................... 0xFF,	0xFF,	0x00,	0xFF,	0xFF,	0xFF,	0x00,	0xFF,	0xFF,	0x00,	0xFF,	0xFF,	0xFF,	0x00,	0xFF,	0xFF,	//8-5 
.................... 0xFF,	0xFF,	0x00,	0xFF,	0xFF,	0xFF,	0xFF,	0xFF,	0xFF,	0x00,	0xFF,	0xFF,	0xFF,	0x00,	0xFF,	0xFF,	//8-6 
.................... 0xFF,	0xFF,	0xFF,	0xFF,	0xFF,	0xFF,	0x00,	0xFF,	0xFF,	0xFF,	0xFF,	0xFF,	0xFF,	0x00,	0xFF,	0xFF,	//8-7 
.................... 0xFF,	0xFF,	0xFF,	0x00,	0x00,	0x00,	0xFF,	0xFF,	0xFF,	0x00,	0xFF,	0xFF,	0xFF,	0xFF,	0xFF,	0xFF,	//8-8 
.................... 0xFF,	0xFF,	0xFF,	0xFF,	0xFF,	0xFF,	0x00,	0xFF,	0xFF,	0x00,	0xFF,	0xFF,	0xFF,	0xFF,	0xFF,	0xFF,	//8-9 
.................... 0xFF,	0xFF,	0xFF,	0xFF,	0xFF,	0xFF,	0x00,	0xFF,	0xFF,	0x00,	0xFF,	0xFF,	0xFF,	0xFF,	0xFF,	0xFF,	//8-10 
.................... 0xFF,	0xFF,	0x00,	0xFF,	0xFF,	0xFF,	0x00,	0xFF,	0xFF,	0x00,	0xFF,	0xFF,	0xFF,	0x00,	0xFF,	0xFF,	//8-11 
.................... 0xFF,	0xFF,	0xFF,	0x00,	0x00,	0x00,	0xFF,	0xFF,	0xFF,	0xFF,	0x00,	0x00,	0x00,	0xFF,	0xFF,	0xFF,	//8-12 
.................... 0xFF,	0xFF,	0xFF,	0xFF,	0xFF,	0xFF,	0xFF,	0xFF,	0xFF,	0xFF,	0xFF,	0xFF,	0xFF,	0xFF,	0xFF,	0xFF,	//8-13 
.................... 0xFF,	0xFF,	0xFF,	0xFF,	0xFF,	0xFF,	0xFF,	0xFF,	0xFF,	0xFF,	0xFF,	0xFF,	0xFF,	0xFF,	0xFF,	0xFF,	//8-14 
.................... 0xFF,	0xFF,	0xFF,	0xFF,	0xFF,	0xFF,	0xFF,	0xFF,	0xFF,	0xFF,	0xFF,	0xFF,	0xFF,	0xFF,	0xFF,	0xFF,	//8-15 
.................... 0xFF,	0xFF,	0xFF,	0xFF,	0xFF,	0xFF,	0xFF,	0xFF,	0xFF,	0xFF,	0xFF,	0xFF,	0xFF,	0xFF,	0xFF,	0xFF	//8-16 
.................... },{																 
.................... 0x00,	0x00,	0x00,	0x00,	0x00,	0x00,	0x00,	0x00,	0x00,	0x00,	0x00,	0x00,	0x00,	0x00,	0x00,	0x00,	//9-1 
.................... 0x00,	0x00,	0x00,	0x00,	0x00,	0x00,	0x00,	0x00,	0x00,	0x00,	0x00,	0x00,	0x00,	0x00,	0x00,	0x00,	//9-2 
.................... 0x00,	0x00,	0x00,	0x00,	0x00,	0x00,	0x00,	0x00,	0x00,	0x00,	0x00,	0x00,	0x00,	0x00,	0x00,	0x00,	//9-3 
.................... 0x00,	0x00,	0x00,	0xFF,	0xFF,	0xFF,	0x00,	0x00,	0x00,	0x00,	0xFF,	0xFF,	0xFF,	0x00,	0x00,	0x00,	//9-4 
.................... 0x00,	0x00,	0xFF,	0x00,	0x00,	0x00,	0xFF,	0x00,	0x00,	0xFF,	0x00,	0x00,	0x00,	0xFF,	0x00,	0x00,	//9-5 
.................... 0x00,	0x00,	0xFF,	0x00,	0x00,	0x00,	0x00,	0x00,	0x00,	0xFF,	0x00,	0x00,	0x00,	0xFF,	0x00,	0x00,	//9-6 
.................... 0x00,	0x00,	0x00,	0x00,	0x00,	0x00,	0xFF,	0x00,	0x00,	0x00,	0x00,	0x00,	0x00,	0xFF,	0x00,	0x00,	//9-7 
.................... 0x00,	0x00,	0x00,	0xFF,	0xFF,	0xFF,	0x00,	0x00,	0x00,	0xFF,	0x00,	0x00,	0x00,	0x00,	0x00,	0x00,	//9-8 
.................... 0x00,	0x00,	0x00,	0x00,	0x00,	0x00,	0xFF,	0x00,	0x00,	0xFF,	0x00,	0x00,	0x00,	0x00,	0x00,	0x00,	//9-9 
.................... 0x00,	0x00,	0x00,	0x00,	0x00,	0x00,	0xFF,	0x00,	0x00,	0xFF,	0x00,	0x00,	0x00,	0xFF,	0x00,	0x00,	//9-10 
.................... 0x00,	0x00,	0xFF,	0x00,	0x00,	0x00,	0xFF,	0x00,	0x00,	0xFF,	0x00,	0x00,	0x00,	0xFF,	0x00,	0x00,	//9-11 
.................... 0x00,	0x00,	0x00,	0xFF,	0xFF,	0xFF,	0x00,	0x00,	0x00,	0x00,	0xFF,	0xFF,	0xFF,	0x00,	0x00,	0x00,	//9-12 
.................... 0x00,	0x00,	0x00,	0x00,	0x00,	0x00,	0x00,	0x00,	0x00,	0x00,	0x00,	0x00,	0x00,	0x00,	0x00,	0x00,	//9-13 
.................... 0x00,	0x00,	0x00,	0x00,	0x00,	0x00,	0x00,	0x00,	0x00,	0x00,	0x00,	0x00,	0x00,	0x00,	0x00,	0x00,	//9-14 
.................... 0x00,	0x00,	0x00,	0x00,	0x00,	0x00,	0x00,	0x00,	0x00,	0x00,	0x00,	0x00,	0x00,	0x00,	0x00,	0x00,	//9-15 
.................... 0x00,	0x00,	0x00,	0x00,	0x00,	0x00,	0x00,	0x00,	0x00,	0x00,	0x00,	0x00,	0x00,	0x00,	0x00,	0x00	//9-16 
.................... },{																 
.................... 0x00,	0x00,	0x00,	0x00,	0x00,	0x00,	0x00,	0x00,	0x00,	0x00,	0x00,	0x00,	0x00,	0x00,	0x00,	0x00,	//10-1 
.................... 0x00,	0x00,	0x00,	0x00,	0x00,	0x00,	0x00,	0x00,	0x00,	0x00,	0x00,	0x00,	0x00,	0x00,	0x00,	0x00,	//10-2 
.................... 0x00,	0x00,	0x00,	0x00,	0x00,	0x00,	0x00,	0x00,	0x00,	0x00,	0x00,	0x00,	0x00,	0x00,	0x00,	0x00,	//10-3 
.................... 0x00,	0x00,	0x00,	0x00,	0x00,	0x00,	0x00,	0x00,	0x00,	0x00,	0x00,	0x00,	0x00,	0x00,	0x00,	0x00,	//10-4 
.................... 0x00,	0xFF,	0x00,	0x00,	0xFF,	0x00,	0x00,	0xFF,	0xFF,	0xFF,	0x00,	0x00,	0xFF,	0xFF,	0x00,	0x00,	//10-5 
.................... 0x00,	0xFF,	0x00,	0x00,	0xFF,	0x00,	0xFF,	0x00,	0x00,	0xFF,	0x00,	0xFF,	0x00,	0x00,	0xFF,	0x00,	//10-6 
.................... 0x00,	0xFF,	0x00,	0xFF,	0xFF,	0x00,	0xFF,	0x00,	0x00,	0xFF,	0x00,	0xFF,	0x00,	0x00,	0xFF,	0x00,	//10-7 
.................... 0x00,	0xFF,	0x00,	0x00,	0xFF,	0x00,	0xFF,	0x00,	0x00,	0xFF,	0x00,	0xFF,	0xFF,	0x00,	0xFF,	0x00,	//10-8 
.................... 0x00,	0xFF,	0xFF,	0x00,	0xFF,	0x00,	0x00,	0xFF,	0xFF,	0xFF,	0x00,	0xFF,	0x00,	0x00,	0xFF,	0x00,	//10-9 
.................... 0x00,	0xFF,	0x00,	0x00,	0xFF,	0x00,	0xFF,	0x00,	0x00,	0x00,	0x00,	0xFF,	0x00,	0xFF,	0xFF,	0x00,	//10-10 
.................... 0x00,	0xFF,	0x00,	0x00,	0xFF,	0x00,	0x00,	0x00,	0x00,	0xFF,	0x00,	0xFF,	0x00,	0x00,	0xFF,	0x00,	//10-11 
.................... 0x00,	0x00,	0xFF,	0xFF,	0x00,	0x00,	0xFF,	0x00,	0x00,	0x00,	0x00,	0xFF,	0x00,	0x00,	0xFF,	0x00,	//10-12 
.................... 0x00,	0x00,	0x00,	0x00,	0x00,	0x00,	0x00,	0x00,	0x00,	0x00,	0x00,	0x00,	0x00,	0x00,	0x00,	0x00,	//10-13 
.................... 0x00,	0x00,	0x00,	0x00,	0x00,	0x00,	0x00,	0x00,	0x00,	0x00,	0x00,	0x00,	0x00,	0x00,	0x00,	0x00,	//10-14 
.................... 0x00,	0x00,	0x00,	0x00,	0x00,	0x00,	0x00,	0x00,	0x00,	0x00,	0x00,	0x00,	0x00,	0x00,	0x00,	0x00,	//10-15 
.................... 0x00,	0x00,	0x00,	0x00,	0x00,	0x00,	0x00,	0x00,	0x00,	0x00,	0x00,	0x00,	0x00,	0x00,	0x00,	0x00	//10-16 
.................... },{																 
.................... 0x00,	0x00,	0x00,	0x00,	0x00,	0x00,	0x00,	0x00,	0x00,	0x00,	0x00,	0x00,	0x00,	0x00,	0x00,	0x00,	//11-1 
.................... 0x00,	0x00,	0x00,	0x00,	0x00,	0x00,	0x00,	0x00,	0x00,	0x00,	0x00,	0x00,	0x00,	0x00,	0x00,	0x00,	//11-2 
.................... 0x00,	0x00,	0x00,	0x00,	0x00,	0x00,	0x00,	0x00,	0x00,	0x00,	0x00,	0x00,	0x00,	0x00,	0x00,	0x00,	//11-3 
.................... 0x00,	0x00,	0x00,	0x00,	0x00,	0x00,	0x00,	0x00,	0x00,	0x00,	0x00,	0x00,	0x00,	0x00,	0x00,	0x00,	//11-4 
.................... 0x00,	0x00,	0xFF,	0xFF,	0x00,	0x00,	0x00,	0x00,	0x00,	0xFF,	0x00,	0x00,	0xFF,	0xFF,	0x00,	0x00,	//11-5 
.................... 0x00,	0xFF,	0x00,	0x00,	0xFF,	0x00,	0xFF,	0x00,	0x00,	0x00,	0x00,	0xFF,	0x00,	0x00,	0xFF,	0x00,	//11-6 
.................... 0x00,	0x00,	0x00,	0x00,	0xFF,	0x00,	0x00,	0x00,	0x00,	0xFF,	0x00,	0x00,	0x00,	0x00,	0xFF,	0x00,	//11-7 
.................... 0x00,	0xFF,	0x00,	0x00,	0x00,	0x00,	0xFF,	0x00,	0x00,	0x00,	0x00,	0x00,	0xFF,	0x00,	0x00,	0x00,	//11-8 
.................... 0x00,	0x00,	0xFF,	0x00,	0x00,	0x00,	0x00,	0x00,	0x00,	0xFF,	0x00,	0x00,	0x00,	0x00,	0xFF,	0x00,	//11-9 
.................... 0x00,	0xFF,	0x00,	0x00,	0x00,	0x00,	0xFF,	0x00,	0x00,	0x00,	0x00,	0x00,	0x00,	0x00,	0xFF,	0x00,	//11-10 
.................... 0x00,	0xFF,	0x00,	0x00,	0xFF,	0x00,	0x00,	0x00,	0x00,	0xFF,	0x00,	0xFF,	0x00,	0x00,	0xFF,	0x00,	//11-11 
.................... 0x00,	0x00,	0xFF,	0xFF,	0x00,	0x00,	0xFF,	0xFF,	0xFF,	0xFF,	0x00,	0x00,	0xFF,	0xFF,	0x00,	0x00,	//11-12 
.................... 0x00,	0x00,	0x00,	0x00,	0x00,	0x00,	0x00,	0x00,	0x00,	0x00,	0x00,	0x00,	0x00,	0x00,	0x00,	0x00,	//11-13 
.................... 0x00,	0x00,	0x00,	0x00,	0x00,	0x00,	0x00,	0x00,	0x00,	0x00,	0x00,	0x00,	0x00,	0x00,	0x00,	0x00,	//11-14 
.................... 0x00,	0x00,	0x00,	0x00,	0x00,	0x00,	0x00,	0x00,	0x00,	0x00,	0x00,	0x00,	0x00,	0x00,	0x00,	0x00,	//11-15 
.................... 0x00,	0x00,	0x00,	0x00,	0x00,	0x00,	0x00,	0x00,	0x00,	0x00,	0x00,	0x00,	0x00,	0x00,	0x00,	0x00	//11-16 
.................... },{																 
.................... 0x00,	0x00,	0x00,	0x00,	0x00,	0x00,	0x00,	0x00,	0x00,	0x00,	0x00,	0x00,	0x00,	0x00,	0x00,	0x00,	//12-1 
.................... 0x00,	0x00,	0x00,	0x00,	0x00,	0x00,	0x00,	0x00,	0x00,	0x00,	0x00,	0x00,	0x00,	0x00,	0x00,	0x00,	//12-2 
.................... 0x00,	0x00,	0x00,	0x00,	0x00,	0x00,	0x00,	0x00,	0x00,	0x00,	0x00,	0x00,	0x00,	0x00,	0x00,	0x00,	//12-3 
.................... 0x00,	0x00,	0x00,	0x00,	0x00,	0x00,	0x00,	0x00,	0x00,	0x00,	0x00,	0x00,	0x00,	0x00,	0x00,	0x00,	//12-4 
.................... 0x00,	0xFF,	0x00,	0x00,	0x00,	0xFF,	0x00,	0x00,	0xFF,	0xFF,	0x00,	0x00,	0xFF,	0xFF,	0xFF,	0x00,	//12-5 
.................... 0x00,	0xFF,	0x00,	0x00,	0x00,	0xFF,	0x00,	0x00,	0xFF,	0x00,	0xFF,	0x00,	0x00,	0x00,	0xFF,	0x00,	//12-6 
.................... 0x00,	0xFF,	0x00,	0x00,	0x00,	0xFF,	0x00,	0xFF,	0x00,	0x00,	0xFF,	0x00,	0x00,	0x00,	0xFF,	0x00,	//12-7 
.................... 0x00,	0xFF,	0xFF,	0x00,	0x00,	0xFF,	0x00,	0x00,	0x00,	0x00,	0x00,	0xFF,	0x00,	0xFF,	0x00,	0x00,	//12-8 
.................... 0x00,	0x00,	0x00,	0xFF,	0x00,	0x00,	0x00,	0x00,	0x00,	0x00,	0xFF,	0x00,	0x00,	0x00,	0xFF,	0x00,	//12-9 
.................... 0x00,	0xFF,	0x00,	0x00,	0x00,	0xFF,	0x00,	0x00,	0xFF,	0x00,	0x00,	0x00,	0xFF,	0x00,	0x00,	0x00,	//12-10 
.................... 0x00,	0x00,	0x00,	0xFF,	0x00,	0x00,	0x00,	0xFF,	0x00,	0x00,	0xFF,	0x00,	0x00,	0x00,	0xFF,	0x00,	//12-11 
.................... 0x00,	0xFF,	0x00,	0x00,	0x00,	0x00,	0xFF,	0xFF,	0x00,	0x00,	0x00,	0x00,	0xFF,	0x00,	0x00,	0x00,	//12-12 
.................... 0x00,	0x00,	0x00,	0x00,	0x00,	0x00,	0x00,	0x00,	0x00,	0x00,	0x00,	0x00,	0x00,	0x00,	0x00,	0x00,	//12-13 
.................... 0x00,	0x00,	0x00,	0x00,	0x00,	0x00,	0x00,	0x00,	0x00,	0x00,	0x00,	0x00,	0x00,	0x00,	0x00,	0x00,	//12-14 
.................... 0x00,	0x00,	0x00,	0x00,	0x00,	0x00,	0x00,	0x00,	0x00,	0x00,	0x00,	0x00,	0x00,	0x00,	0x00,	0x00,	//12-15 
.................... 0x00,	0x00,	0x00,	0x00,	0x00,	0x00,	0x00,	0x00,	0x00,	0x00,	0x00,	0x00,	0x00,	0x00,	0x00,	0x00	//12-16 
.................... },{																 
.................... 0xFF,	0xFF,	0xFF,	0xFF,	0xFF,	0xFF,	0xFF,	0xFF,	0xFF,	0xFF,	0xFF,	0xFF,	0xFF,	0xFF,	0xFF,	0xFF,	//13-1 
.................... 0xFF,	0xFF,	0xFF,	0xFF,	0xFF,	0xFF,	0xFF,	0xFF,	0xFF,	0xFF,	0xFF,	0xFF,	0xFF,	0xFF,	0xFF,	0xFF,	//13-2 
.................... 0xFF,	0xFF,	0xFF,	0xFF,	0xFF,	0xFF,	0xFF,	0xFF,	0xFF,	0xFF,	0xFF,	0xFF,	0xFF,	0xFF,	0xFF,	0xFF,	//13-3 
.................... 0xFF,	0xFF,	0xFF,	0xFF,	0xFF,	0xFF,	0xFF,	0xFF,	0xFF,	0xFF,	0xFF,	0xFF,	0xFF,	0xFF,	0xFF,	0xFF,	//13-4 
.................... 0xFF,	0x00,	0xFF,	0xFF,	0xFF,	0x00,	0xFF,	0xFF,	0x00,	0x00,	0xFF,	0xFF,	0x00,	0x00,	0x00,	0xFF,	//13-5 
.................... 0xFF,	0x00,	0xFF,	0xFF,	0xFF,	0x00,	0xFF,	0xFF,	0x00,	0xFF,	0x00,	0xFF,	0xFF,	0xFF,	0x00,	0xFF,	//13-6 
.................... 0xFF,	0x00,	0xFF,	0xFF,	0xFF,	0x00,	0xFF,	0x00,	0xFF,	0xFF,	0x00,	0xFF,	0xFF,	0xFF,	0x00,	0xFF,	//13-7 
.................... 0xFF,	0x00,	0x00,	0xFF,	0xFF,	0x00,	0xFF,	0xFF,	0xFF,	0xFF,	0xFF,	0x00,	0xFF,	0x00,	0xFF,	0xFF,	//13-8 
.................... 0xFF,	0xFF,	0xFF,	0x00,	0xFF,	0xFF,	0xFF,	0xFF,	0xFF,	0xFF,	0x00,	0xFF,	0xFF,	0xFF,	0x00,	0xFF,	//13-9 
.................... 0xFF,	0x00,	0xFF,	0xFF,	0xFF,	0x00,	0xFF,	0xFF,	0x00,	0xFF,	0xFF,	0xFF,	0x00,	0xFF,	0xFF,	0xFF,	//13-10 
.................... 0xFF,	0xFF,	0xFF,	0x00,	0xFF,	0xFF,	0xFF,	0x00,	0xFF,	0xFF,	0x00,	0xFF,	0xFF,	0xFF,	0x00,	0xFF,	//13-11 
.................... 0xFF,	0x00,	0xFF,	0xFF,	0xFF,	0xFF,	0x00,	0x00,	0xFF,	0xFF,	0xFF,	0xFF,	0x00,	0xFF,	0xFF,	0xFF,	//13-12 
.................... 0xFF,	0xFF,	0xFF,	0xFF,	0xFF,	0xFF,	0xFF,	0xFF,	0xFF,	0xFF,	0xFF,	0xFF,	0xFF,	0xFF,	0xFF,	0xFF,	//13-13 
.................... 0xFF,	0xFF,	0xFF,	0xFF,	0xFF,	0xFF,	0xFF,	0xFF,	0xFF,	0xFF,	0xFF,	0xFF,	0xFF,	0xFF,	0xFF,	0xFF,	//13-14 
.................... 0xFF,	0xFF,	0xFF,	0xFF,	0xFF,	0xFF,	0xFF,	0xFF,	0xFF,	0xFF,	0xFF,	0xFF,	0xFF,	0xFF,	0xFF,	0xFF,	//13-15 
.................... 0xFF,	0xFF,	0xFF,	0xFF,	0xFF,	0xFF,	0xFF,	0xFF,	0xFF,	0xFF,	0xFF,	0xFF,	0xFF,	0xFF,	0xFF,	0xFF	//13-16 
.................... },{																 
.................... 0xFF,	0xFF,	0xFF,	0xFF,	0xFF,	0xFF,	0xFF,	0xFF,	0xFF,	0xFF,	0xFF,	0xFF,	0xFF,	0xFF,	0xFF,	0xFF,	//14-1 
.................... 0xFF,	0xFF,	0xFF,	0xFF,	0xFF,	0xFF,	0xFF,	0xFF,	0xFF,	0xFF,	0xFF,	0xFF,	0xFF,	0xFF,	0xFF,	0xFF,	//14-2 
.................... 0xFF,	0xFF,	0xFF,	0xFF,	0xFF,	0xFF,	0xFF,	0xFF,	0xFF,	0xFF,	0xFF,	0xFF,	0xFF,	0xFF,	0xFF,	0xFF,	//14-3 
.................... 0xFF,	0xFF,	0xFF,	0xFF,	0xFF,	0xFF,	0xFF,	0xFF,	0xFF,	0xFF,	0xFF,	0xFF,	0xFF,	0xFF,	0xFF,	0xFF,	//14-4 
.................... 0xFF,	0xFF,	0xFF,	0xFF,	0xFF,	0xFF,	0xFF,	0xFF,	0xFF,	0xFF,	0xFF,	0xFF,	0xFF,	0xFF,	0xFF,	0xFF,	//14-5 
.................... 0xFF,	0xFF,	0xFF,	0xFF,	0xFF,	0xFF,	0xFF,	0xFF,	0xFF,	0xFF,	0xFF,	0xFF,	0xFF,	0xFF,	0xFF,	0xFF,	//14-6 
.................... 0xFF,	0xFF,	0xFF,	0xFF,	0xFF,	0xFF,	0xFF,	0xFF,	0xFF,	0xFF,	0xFF,	0xFF,	0xFF,	0xFF,	0xFF,	0xFF,	//14-7 
.................... 0xFF,	0xFF,	0xFF,	0xFF,	0xFF,	0xFF,	0xFF,	0xFF,	0xFF,	0xFF,	0xFF,	0xFF,	0xFF,	0xFF,	0xFF,	0xFF,	//14-8 
.................... 0xFF,	0xFF,	0xFF,	0xFF,	0xFF,	0xFF,	0xFF,	0xFF,	0xFF,	0xFF,	0xFF,	0xFF,	0xFF,	0xFF,	0xFF,	0xFF,	//14-9 
.................... 0xFF,	0xFF,	0xFF,	0xFF,	0xFF,	0xFF,	0xFF,	0xFF,	0xFF,	0xFF,	0xFF,	0xFF,	0xFF,	0xFF,	0xFF,	0xFF,	//14-10 
.................... 0xFF,	0xFF,	0xFF,	0xFF,	0xFF,	0xFF,	0xFF,	0xFF,	0xFF,	0xFF,	0xFF,	0xFF,	0xFF,	0xFF,	0xFF,	0xFF,	//14-11 
.................... 0xFF,	0xFF,	0xFF,	0xFF,	0xFF,	0xFF,	0xFF,	0xFF,	0xFF,	0xFF,	0xFF,	0xFF,	0xFF,	0xFF,	0xFF,	0xFF,	//14-12 
.................... 0xFF,	0xFF,	0xFF,	0xFF,	0xFF,	0xFF,	0xFF,	0xFF,	0xFF,	0xFF,	0xFF,	0xFF,	0xFF,	0xFF,	0xFF,	0xFF,	//14-13 
.................... 0xFF,	0xFF,	0xFF,	0xFF,	0xFF,	0xFF,	0xFF,	0xFF,	0xFF,	0xFF,	0xFF,	0xFF,	0xFF,	0xFF,	0xFF,	0xFF,	//14-14 
.................... 0xFF,	0xFF,	0xFF,	0xFF,	0xFF,	0xFF,	0xFF,	0xFF,	0xFF,	0xFF,	0xFF,	0xFF,	0xFF,	0xFF,	0xFF,	0xFF,	//14-15 
.................... 0xFF,	0xFF,	0xFF,	0xFF,	0xFF,	0xFF,	0xFF,	0xFF,	0xFF,	0xFF,	0xFF,	0xFF,	0xFF,	0xFF,	0xFF,	0xFF	//14-16 
.................... },{																 
.................... 0x00,	0x00,	0x00,	0x00,	0x00,	0x00,	0x00,	0x00,	0x00,	0x00,	0x00,	0x00,	0x00,	0x00,	0x00,	0x00,	//15-1 
.................... 0x00,	0xFF,	0xFF,	0x00,	0x00,	0xFF,	0xFF,	0x00,	0x00,	0xFF,	0xFF,	0x00,	0x00,	0xFF,	0xFF,	0x00,	//15-2 
.................... 0x00,	0xFF,	0xFF,	0x00,	0x00,	0xFF,	0xFF,	0x00,	0x00,	0xFF,	0xFF,	0x00,	0x00,	0xFF,	0xFF,	0x00,	//15-3 
.................... 0x00,	0x00,	0x00,	0xFF,	0xFF,	0x00,	0x00,	0xFF,	0xFF,	0x00,	0x00,	0xFF,	0xFF,	0x00,	0x00,	0x00,	//15-4 
.................... 0x00,	0x00,	0x00,	0xFF,	0xFF,	0x00,	0x00,	0xFF,	0xFF,	0x00,	0x00,	0xFF,	0xFF,	0x00,	0x00,	0x00,	//15-5 
.................... 0x00,	0xFF,	0xFF,	0x00,	0x00,	0xFF,	0xFF,	0x00,	0x00,	0xFF,	0xFF,	0x00,	0x00,	0xFF,	0xFF,	0x00,	//15-6 
.................... 0x00,	0xFF,	0xFF,	0x00,	0x00,	0xFF,	0xFF,	0x00,	0x00,	0xFF,	0xFF,	0x00,	0x00,	0xFF,	0xFF,	0x00,	//15-7 
.................... 0x00,	0x00,	0x00,	0xFF,	0xFF,	0x00,	0x00,	0xFF,	0xFF,	0x00,	0x00,	0xFF,	0xFF,	0x00,	0x00,	0x00,	//15-8 
.................... 0x00,	0x00,	0x00,	0xFF,	0xFF,	0x00,	0x00,	0xFF,	0xFF,	0x00,	0x00,	0xFF,	0xFF,	0x00,	0x00,	0x00,	//15-9 
.................... 0x00,	0xFF,	0xFF,	0x00,	0x00,	0xFF,	0xFF,	0x00,	0x00,	0xFF,	0xFF,	0x00,	0x00,	0xFF,	0xFF,	0x00,	//15-10 
.................... 0x00,	0xFF,	0xFF,	0x00,	0x00,	0xFF,	0xFF,	0x00,	0x00,	0xFF,	0xFF,	0x00,	0x00,	0xFF,	0xFF,	0x00,	//15-11 
.................... 0x00,	0x00,	0x00,	0xFF,	0xFF,	0x00,	0x00,	0xFF,	0xFF,	0x00,	0x00,	0xFF,	0xFF,	0x00,	0x00,	0x00,	//15-12 
.................... 0x00,	0x00,	0x00,	0xFF,	0xFF,	0x00,	0x00,	0xFF,	0xFF,	0x00,	0x00,	0xFF,	0xFF,	0x00,	0x00,	0x00,	//15-13 
.................... 0x00,	0xFF,	0xFF,	0x00,	0x00,	0xFF,	0xFF,	0x00,	0x00,	0xFF,	0xFF,	0x00,	0x00,	0xFF,	0xFF,	0x00,	//15-14 
.................... 0x00,	0xFF,	0xFF,	0x00,	0x00,	0xFF,	0xFF,	0x00,	0x00,	0xFF,	0xFF,	0x00,	0x00,	0xFF,	0xFF,	0x00,	//15-15 
.................... 0x00,	0x00,	0x00,	0x00,	0x00,	0x00,	0x00,	0x00,	0x00,	0x00,	0x00,	0x00,	0x00,	0x00,	0x00,	0x00	//15-16 
.................... }};																 
.................... //GREEN																 
.................... const int ws281x_color_g[16][256] = {{																 
.................... 0x00,	0x00,	0x00,	0x00,	0x00,	0x00,	0x00,	0x00,	0x00,	0x00,	0x00,	0x00,	0x00,	0x00,	0x00,	0x00,	//0-1 
.................... 0x00,	0x00,	0x00,	0x00,	0x00,	0x00,	0x00,	0x00,	0x00,	0x00,	0x00,	0x00,	0x00,	0x00,	0x00,	0x00,	//0-2 
.................... 0x00,	0x00,	0x00,	0x00,	0x00,	0x00,	0x00,	0x00,	0x00,	0x00,	0x00,	0x00,	0x00,	0x00,	0x00,	0x00,	//0-3 
.................... 0x00,	0x00,	0x00,	0x00,	0x00,	0x00,	0x00,	0x00,	0x00,	0x00,	0x00,	0x00,	0x00,	0x00,	0x00,	0x00,	//0-4 
.................... 0x00,	0x00,	0x00,	0x00,	0x00,	0x00,	0x00,	0x00,	0x00,	0x00,	0x00,	0x00,	0x00,	0x00,	0x00,	0x00,	//0-5 
.................... 0x00,	0x00,	0x00,	0x00,	0x00,	0x00,	0x00,	0x00,	0x00,	0x00,	0x00,	0x00,	0x00,	0x00,	0x00,	0x00,	//0-6 
.................... 0x00,	0x00,	0x00,	0x00,	0x00,	0x00,	0x00,	0x00,	0x00,	0x00,	0x00,	0x00,	0x00,	0x00,	0x00,	0x00,	//0-7 
.................... 0x00,	0x00,	0x00,	0x00,	0x00,	0x00,	0x00,	0x00,	0x00,	0x00,	0x00,	0x00,	0x00,	0x00,	0x00,	0x00,	//0-8 
.................... 0x00,	0x00,	0x00,	0x00,	0x00,	0x00,	0x00,	0x00,	0x00,	0x00,	0x00,	0x00,	0x00,	0x00,	0x00,	0x00,	//0-9 
.................... 0x00,	0x00,	0x00,	0x00,	0x00,	0x00,	0x00,	0x00,	0x00,	0x00,	0x00,	0x00,	0x00,	0x00,	0x00,	0x00,	//0-10 
.................... 0x00,	0x00,	0x00,	0x00,	0x00,	0x00,	0x00,	0x00,	0x00,	0x00,	0x00,	0x00,	0x00,	0x00,	0x00,	0x00,	//0-11 
.................... 0x00,	0x00,	0x00,	0x00,	0x00,	0x00,	0x00,	0x00,	0x00,	0x00,	0x00,	0x00,	0x00,	0x00,	0x00,	0x00,	//0-12 
.................... 0x00,	0x00,	0x00,	0x00,	0x00,	0x00,	0x00,	0x00,	0x00,	0x00,	0x00,	0x00,	0x00,	0x00,	0x00,	0x00,	//0-13 
.................... 0x00,	0x00,	0x00,	0x00,	0x00,	0x00,	0x00,	0x00,	0x00,	0x00,	0x00,	0x00,	0x00,	0x00,	0x00,	0x00,	//0-14 
.................... 0x00,	0x00,	0x00,	0x00,	0x00,	0x00,	0x00,	0x00,	0x00,	0x00,	0x00,	0x00,	0x00,	0x00,	0x00,	0x00,	//0-15 
.................... 0x00,	0x00,	0x00,	0x00,	0x00,	0x00,	0x00,	0x00,	0x00,	0x00,	0x00,	0x00,	0x00,	0x00,	0x00,	0x00	//0-16 
.................... },{																 
.................... 0x00,	0x00,	0x00,	0x00,	0x00,	0x00,	0x00,	0x00,	0x00,	0x00,	0x00,	0x00,	0x00,	0x00,	0x00,	0x00,	//1-1 
.................... 0x00,	0x00,	0x00,	0x00,	0x00,	0x00,	0x00,	0x00,	0x00,	0x00,	0x00,	0x00,	0x00,	0x00,	0x00,	0x00,	//1-2 
.................... 0x00,	0x00,	0x00,	0x00,	0x00,	0x00,	0x00,	0x00,	0x00,	0x00,	0x00,	0x00,	0x00,	0x00,	0x00,	0x00,	//1-3 
.................... 0x00,	0x00,	0x00,	0x00,	0x00,	0x00,	0x00,	0x00,	0x00,	0x00,	0x00,	0x00,	0x00,	0x00,	0x00,	0x00,	//1-4 
.................... 0x00,	0x00,	0x00,	0x00,	0x00,	0x00,	0x00,	0x00,	0x00,	0x00,	0x00,	0x00,	0x00,	0x00,	0x00,	0x00,	//1-5 
.................... 0x00,	0x00,	0x00,	0x00,	0x00,	0x00,	0x00,	0x00,	0x00,	0x00,	0x00,	0x00,	0x00,	0x00,	0x00,	0x00,	//1-6 
.................... 0x00,	0x00,	0x00,	0x00,	0x00,	0x00,	0x00,	0x00,	0x00,	0x00,	0x00,	0x00,	0x00,	0x00,	0x00,	0x00,	//1-7 
.................... 0x00,	0x00,	0x00,	0x00,	0x00,	0x00,	0x00,	0x00,	0x00,	0x00,	0x00,	0x00,	0x00,	0x00,	0x00,	0x00,	//1-8 
.................... 0x00,	0x00,	0x00,	0x00,	0x00,	0x00,	0x00,	0x00,	0x00,	0x00,	0x00,	0x00,	0x00,	0x00,	0x00,	0x00,	//1-9 
.................... 0x00,	0x00,	0x00,	0x00,	0x00,	0x00,	0x00,	0x00,	0x00,	0x00,	0x00,	0x00,	0x00,	0x00,	0x00,	0x00,	//1-10 
.................... 0x00,	0x00,	0x00,	0x00,	0x00,	0x00,	0x00,	0x00,	0x00,	0x00,	0x00,	0x00,	0x00,	0x00,	0x00,	0x00,	//1-11 
.................... 0x00,	0x00,	0x00,	0x00,	0x00,	0x00,	0x00,	0x00,	0x00,	0x00,	0x00,	0x00,	0x00,	0x00,	0x00,	0x00,	//1-12 
.................... 0x00,	0x00,	0x00,	0x00,	0x00,	0x00,	0x00,	0x00,	0x00,	0x00,	0x00,	0x00,	0x00,	0x00,	0x00,	0x00,	//1-13 
.................... 0x00,	0x00,	0x00,	0x00,	0x00,	0x00,	0x00,	0x00,	0x00,	0x00,	0x00,	0x00,	0x00,	0x00,	0x00,	0x00,	//1-14 
.................... 0x00,	0x00,	0x00,	0x00,	0x00,	0x00,	0x00,	0x00,	0x00,	0x00,	0x00,	0x00,	0x00,	0x00,	0x00,	0x00,	//1-15 
.................... 0x00,	0x00,	0x00,	0x00,	0x00,	0x00,	0x00,	0x00,	0x00,	0x00,	0x00,	0x00,	0x00,	0x00,	0x00,	0x00	//1-16 
.................... },{																 
.................... 0xBF,	0xBF,	0xBF,	0xBF,	0xBF,	0xBF,	0xBF,	0xBF,	0xBF,	0xBF,	0xBF,	0xBF,	0xBF,	0xBF,	0xBF,	0xBF,	//2-1 
.................... 0xBF,	0xBF,	0xBF,	0xBF,	0xBF,	0xBF,	0xBF,	0xBF,	0xBF,	0xBF,	0xBF,	0xBF,	0xBF,	0xBF,	0xBF,	0xBF,	//2-2 
.................... 0xBF,	0xBF,	0xBF,	0xBF,	0xBF,	0xBF,	0xBF,	0xBF,	0xBF,	0xBF,	0xBF,	0xBF,	0xBF,	0xBF,	0xBF,	0xBF,	//2-3 
.................... 0xBF,	0xBF,	0xBF,	0xBF,	0xBF,	0xBF,	0xBF,	0xBF,	0xBF,	0xBF,	0xBF,	0xBF,	0xBF,	0xBF,	0xBF,	0xBF,	//2-4 
.................... 0xBF,	0xBF,	0xBF,	0xBF,	0xBF,	0xBF,	0xBF,	0xBF,	0xBF,	0xBF,	0xBF,	0xBF,	0xBF,	0xBF,	0xBF,	0xBF,	//2-5 
.................... 0xBF,	0xBF,	0xBF,	0xBF,	0xBF,	0xBF,	0xBF,	0xBF,	0xBF,	0xBF,	0xBF,	0xBF,	0xBF,	0xBF,	0xBF,	0xBF,	//2-6 
.................... 0xBF,	0xBF,	0xBF,	0xBF,	0xBF,	0xBF,	0xBF,	0xBF,	0xBF,	0xBF,	0xBF,	0xBF,	0xBF,	0xBF,	0xBF,	0xBF,	//2-7 
.................... 0xBF,	0xBF,	0xBF,	0xBF,	0xBF,	0xBF,	0xBF,	0xBF,	0xBF,	0xBF,	0xBF,	0xBF,	0xBF,	0xBF,	0xBF,	0xBF,	//2-8 
.................... 0xBF,	0xBF,	0xBF,	0xBF,	0xBF,	0xBF,	0xBF,	0xBF,	0xBF,	0xBF,	0xBF,	0xBF,	0xBF,	0xBF,	0xBF,	0xBF,	//2-9 
.................... 0xBF,	0xBF,	0xBF,	0xBF,	0xBF,	0xBF,	0xBF,	0xBF,	0xBF,	0xBF,	0xBF,	0xBF,	0xBF,	0xBF,	0xBF,	0xBF,	//2-10 
.................... 0xBF,	0xBF,	0xBF,	0xBF,	0xBF,	0xBF,	0xBF,	0xBF,	0xBF,	0xBF,	0xBF,	0xBF,	0xBF,	0xBF,	0xBF,	0xBF,	//2-11 
.................... 0xBF,	0xBF,	0xBF,	0xBF,	0xBF,	0xBF,	0xBF,	0xBF,	0xBF,	0xBF,	0xBF,	0xBF,	0xBF,	0xBF,	0xBF,	0xBF,	//2-12 
.................... 0xBF,	0xBF,	0xBF,	0xBF,	0xBF,	0xBF,	0xBF,	0xBF,	0xBF,	0xBF,	0xBF,	0xBF,	0xBF,	0xBF,	0xBF,	0xBF,	//2-13 
.................... 0xBF,	0xBF,	0xBF,	0xBF,	0xBF,	0xBF,	0xBF,	0xBF,	0xBF,	0xBF,	0xBF,	0xBF,	0xBF,	0xBF,	0xBF,	0xBF,	//2-14 
.................... 0xBF,	0xBF,	0xBF,	0xBF,	0xBF,	0xBF,	0xBF,	0xBF,	0xBF,	0xBF,	0xBF,	0xBF,	0xBF,	0xBF,	0xBF,	0xBF,	//2-15 
.................... 0xBF,	0xBF,	0xBF,	0xBF,	0xBF,	0xBF,	0xBF,	0xBF,	0xBF,	0xBF,	0xBF,	0xBF,	0xBF,	0xBF,	0xBF,	0xBF	//2-16 
.................... },{																 
.................... 0xFF,	0xFF,	0xFF,	0xFF,	0xFF,	0xFF,	0xFF,	0xFF,	0xFF,	0xFF,	0xFF,	0xFF,	0xFF,	0xFF,	0xFF,	0xFF,	//3-1 
.................... 0xFF,	0xFF,	0xFF,	0xFF,	0xFF,	0xFF,	0xFF,	0xFF,	0xFF,	0xFF,	0xFF,	0xFF,	0xFF,	0xFF,	0xFF,	0xFF,	//3-2 
.................... 0xFF,	0xFF,	0xFF,	0xFF,	0xFF,	0xFF,	0xFF,	0xFF,	0xFF,	0xFF,	0xFF,	0xFF,	0xFF,	0xFF,	0xFF,	0xFF,	//3-3 
.................... 0xFF,	0xFF,	0xFF,	0xFF,	0xFF,	0xFF,	0xFF,	0xFF,	0xFF,	0xFF,	0xFF,	0xFF,	0xFF,	0xFF,	0xFF,	0xFF,	//3-4 
.................... 0xFF,	0xFF,	0xFF,	0xFF,	0xFF,	0xFF,	0xFF,	0xFF,	0xFF,	0xFF,	0xFF,	0xFF,	0xFF,	0xFF,	0xFF,	0xFF,	//3-5 
.................... 0xFF,	0xFF,	0xFF,	0xFF,	0xFF,	0xFF,	0xFF,	0xFF,	0xFF,	0xFF,	0xFF,	0xFF,	0xFF,	0xFF,	0xFF,	0xFF,	//3-6 
.................... 0xFF,	0xFF,	0xFF,	0xFF,	0xFF,	0xFF,	0xFF,	0xFF,	0xFF,	0xFF,	0xFF,	0xFF,	0xFF,	0xFF,	0xFF,	0xFF,	//3-7 
.................... 0xFF,	0xFF,	0xFF,	0xFF,	0xFF,	0xFF,	0xFF,	0xFF,	0xFF,	0xFF,	0xFF,	0xFF,	0xFF,	0xFF,	0xFF,	0xFF,	//3-8 
.................... 0xFF,	0xFF,	0xFF,	0xFF,	0xFF,	0xFF,	0xFF,	0xFF,	0xFF,	0xFF,	0xFF,	0xFF,	0xFF,	0xFF,	0xFF,	0xFF,	//3-9 
.................... 0xFF,	0xFF,	0xFF,	0xFF,	0xFF,	0xFF,	0xFF,	0xFF,	0xFF,	0xFF,	0xFF,	0xFF,	0xFF,	0xFF,	0xFF,	0xFF,	//3-10 
.................... 0xFF,	0xFF,	0xFF,	0xFF,	0xFF,	0xFF,	0xFF,	0xFF,	0xFF,	0xFF,	0xFF,	0xFF,	0xFF,	0xFF,	0xFF,	0xFF,	//3-11 
.................... 0xFF,	0xFF,	0xFF,	0xFF,	0xFF,	0xFF,	0xFF,	0xFF,	0xFF,	0xFF,	0xFF,	0xFF,	0xFF,	0xFF,	0xFF,	0xFF,	//3-12 
.................... 0xFF,	0xFF,	0xFF,	0xFF,	0xFF,	0xFF,	0xFF,	0xFF,	0xFF,	0xFF,	0xFF,	0xFF,	0xFF,	0xFF,	0xFF,	0xFF,	//3-13 
.................... 0xFF,	0xFF,	0xFF,	0xFF,	0xFF,	0xFF,	0xFF,	0xFF,	0xFF,	0xFF,	0xFF,	0xFF,	0xFF,	0xFF,	0xFF,	0xFF,	//3-14 
.................... 0xFF,	0xFF,	0xFF,	0xFF,	0xFF,	0xFF,	0xFF,	0xFF,	0xFF,	0xFF,	0xFF,	0xFF,	0xFF,	0xFF,	0xFF,	0xFF,	//3-15 
.................... 0xFF,	0xFF,	0xFF,	0xFF,	0xFF,	0xFF,	0xFF,	0xFF,	0xFF,	0xFF,	0xFF,	0xFF,	0xFF,	0xFF,	0xFF,	0xFF	//3-16 
.................... },{																 
.................... 0x00,	0x00,	0x00,	0x00,	0x00,	0x00,	0x00,	0x00,	0x00,	0x00,	0x00,	0x00,	0x00,	0x00,	0x00,	0x00,	//4-1 
.................... 0x00,	0x00,	0x00,	0x00,	0x00,	0x00,	0x00,	0x00,	0x00,	0x00,	0x00,	0x00,	0x00,	0x00,	0x00,	0x00,	//4-2 
.................... 0x00,	0x00,	0x00,	0x00,	0x00,	0x00,	0x00,	0x00,	0x00,	0x00,	0x00,	0x00,	0x00,	0x00,	0x00,	0x00,	//4-3 
.................... 0x00,	0x00,	0x00,	0x00,	0x00,	0x00,	0x00,	0x00,	0x00,	0x00,	0x00,	0x00,	0x00,	0x00,	0x00,	0x00,	//4-4 
.................... 0x00,	0x00,	0x00,	0x00,	0x00,	0x00,	0x00,	0x00,	0x00,	0x00,	0x00,	0x00,	0x00,	0x00,	0x00,	0x00,	//4-5 
.................... 0x00,	0x00,	0x00,	0x00,	0x00,	0x00,	0x00,	0x00,	0x00,	0x00,	0x00,	0x00,	0x00,	0x00,	0x00,	0x00,	//4-6 
.................... 0x00,	0x00,	0x00,	0x00,	0x00,	0x00,	0x00,	0x00,	0x00,	0x00,	0x00,	0x00,	0x00,	0x00,	0x00,	0x00,	//4-7 
.................... 0x00,	0x00,	0x00,	0x00,	0x00,	0x00,	0x00,	0x00,	0x00,	0x00,	0x00,	0x00,	0x00,	0x00,	0x00,	0x00,	//4-8 
.................... 0x00,	0x00,	0x00,	0x00,	0x00,	0x00,	0x00,	0x00,	0x00,	0x00,	0x00,	0x00,	0x00,	0x00,	0x00,	0x00,	//4-9 
.................... 0x00,	0x00,	0x00,	0x00,	0x00,	0x00,	0x00,	0x00,	0x00,	0x00,	0x00,	0x00,	0x00,	0x00,	0x00,	0x00,	//4-10 
.................... 0x00,	0x00,	0x00,	0x00,	0x00,	0x00,	0x00,	0x00,	0x00,	0x00,	0x00,	0x00,	0x00,	0x00,	0x00,	0x00,	//4-11 
.................... 0x00,	0x00,	0x00,	0x00,	0x00,	0x00,	0x00,	0x00,	0x00,	0x00,	0x00,	0x00,	0x00,	0x00,	0x00,	0x00,	//4-12 
.................... 0x00,	0x00,	0x00,	0x00,	0x00,	0x00,	0x00,	0x00,	0x00,	0x00,	0x00,	0x00,	0x00,	0x00,	0x00,	0x00,	//4-13 
.................... 0x00,	0x00,	0x00,	0x00,	0x00,	0x00,	0x00,	0x00,	0x00,	0x00,	0x00,	0x00,	0x00,	0x00,	0x00,	0x00,	//4-14 
.................... 0x00,	0x00,	0x00,	0x00,	0x00,	0x00,	0x00,	0x00,	0x00,	0x00,	0x00,	0x00,	0x00,	0x00,	0x00,	0x00,	//4-15 
.................... 0x00,	0x00,	0x00,	0x00,	0x00,	0x00,	0x00,	0x00,	0x00,	0x00,	0x00,	0x00,	0x00,	0x00,	0x00,	0x00	//4-16 
.................... },{																 
.................... 0xFF,	0xFF,	0xFF,	0xFF,	0xFF,	0xFF,	0xFF,	0xFF,	0xFF,	0xFF,	0xFF,	0xFF,	0xFF,	0xFF,	0xFF,	0xFF,	//5-1 
.................... 0xFF,	0xFF,	0xFF,	0xFF,	0xFF,	0xFF,	0xFF,	0xFF,	0xFF,	0xFF,	0xFF,	0xFF,	0xFF,	0xFF,	0xFF,	0xFF,	//5-2 
.................... 0xFF,	0xFF,	0xFF,	0xFF,	0xFF,	0xFF,	0xFF,	0xFF,	0xFF,	0xFF,	0xFF,	0xFF,	0xFF,	0xFF,	0xFF,	0xFF,	//5-3 
.................... 0xFF,	0xFF,	0xFF,	0xFF,	0xFF,	0xFF,	0xFF,	0xFF,	0xFF,	0xFF,	0xFF,	0xFF,	0xFF,	0xFF,	0xFF,	0xFF,	//5-4 
.................... 0xFF,	0xFF,	0xFF,	0xFF,	0xFF,	0xFF,	0xFF,	0xFF,	0xFF,	0xFF,	0xFF,	0xFF,	0xFF,	0xFF,	0xFF,	0xFF,	//5-5 
.................... 0xFF,	0xFF,	0xFF,	0xFF,	0xFF,	0xFF,	0xFF,	0xFF,	0xFF,	0xFF,	0xFF,	0xFF,	0xFF,	0xFF,	0xFF,	0xFF,	//5-6 
.................... 0xFF,	0xFF,	0xFF,	0xFF,	0xFF,	0xFF,	0xFF,	0xFF,	0xFF,	0xFF,	0xFF,	0xFF,	0xFF,	0xFF,	0xFF,	0xFF,	//5-7 
.................... 0xFF,	0xFF,	0xFF,	0xFF,	0xFF,	0xFF,	0xFF,	0xFF,	0xFF,	0xFF,	0xFF,	0xFF,	0xFF,	0xFF,	0xFF,	0xFF,	//5-8 
.................... 0xFF,	0xFF,	0xFF,	0xFF,	0xFF,	0xFF,	0xFF,	0xFF,	0xFF,	0xFF,	0xFF,	0xFF,	0xFF,	0xFF,	0xFF,	0xFF,	//5-9 
.................... 0xFF,	0xFF,	0xFF,	0xFF,	0xFF,	0xFF,	0xFF,	0xFF,	0xFF,	0xFF,	0xFF,	0xFF,	0xFF,	0xFF,	0xFF,	0xFF,	//5-10 
.................... 0xFF,	0xFF,	0xFF,	0xFF,	0xFF,	0xFF,	0xFF,	0xFF,	0xFF,	0xFF,	0xFF,	0xFF,	0xFF,	0xFF,	0xFF,	0xFF,	//5-11 
.................... 0xFF,	0xFF,	0xFF,	0xFF,	0xFF,	0xFF,	0xFF,	0xFF,	0xFF,	0xFF,	0xFF,	0xFF,	0xFF,	0xFF,	0xFF,	0xFF,	//5-12 
.................... 0xFF,	0xFF,	0xFF,	0xFF,	0xFF,	0xFF,	0xFF,	0xFF,	0xFF,	0xFF,	0xFF,	0xFF,	0xFF,	0xFF,	0xFF,	0xFF,	//5-13 
.................... 0xFF,	0xFF,	0xFF,	0xFF,	0xFF,	0xFF,	0xFF,	0xFF,	0xFF,	0xFF,	0xFF,	0xFF,	0xFF,	0xFF,	0xFF,	0xFF,	//5-14 
.................... 0xFF,	0xFF,	0xFF,	0xFF,	0xFF,	0xFF,	0xFF,	0xFF,	0xFF,	0xFF,	0xFF,	0xFF,	0xFF,	0xFF,	0xFF,	0xFF,	//5-15 
.................... 0xFF,	0xFF,	0xFF,	0xFF,	0xFF,	0xFF,	0xFF,	0xFF,	0xFF,	0xFF,	0xFF,	0xFF,	0xFF,	0xFF,	0xFF,	0xFF	//5-16 
.................... },{																 
.................... 0xFF,	0xFF,	0xFF,	0xFF,	0xFF,	0xFF,	0xFF,	0xFF,	0xFF,	0xFF,	0xFF,	0xFF,	0xFF,	0xFF,	0xFF,	0xFF,	//6-1 
.................... 0xFF,	0xFF,	0xFF,	0xFF,	0xFF,	0xFF,	0xFF,	0xFF,	0xFF,	0xFF,	0xFF,	0xFF,	0xFF,	0xFF,	0xFF,	0x00,	//6-2 
.................... 0x00,	0x00,	0xFF,	0xFF,	0xFF,	0xFF,	0xFF,	0xFF,	0xFF,	0xFF,	0xFF,	0xFF,	0xFF,	0xFF,	0xFF,	0xFF,	//6-3 
.................... 0xFF,	0xFF,	0xFF,	0xFF,	0xFF,	0xFF,	0xFF,	0xFF,	0xFF,	0xFF,	0xFF,	0xFF,	0xFF,	0x00,	0x00,	0x00,	//6-4 
.................... 0x00,	0x00,	0x00,	0x00,	0xFF,	0xFF,	0xFF,	0xFF,	0xFF,	0xFF,	0xFF,	0xFF,	0xFF,	0xFF,	0xFF,	0xFF,	//6-5 
.................... 0xFF,	0xFF,	0xFF,	0xFF,	0xFF,	0xFF,	0xFF,	0xFF,	0xFF,	0xFF,	0xFF,	0x00,	0x00,	0x00,	0x00,	0x00,	//6-6 
.................... 0x00,	0x00,	0x00,	0x00,	0x00,	0x00,	0xFF,	0xFF,	0xFF,	0xFF,	0xFF,	0xFF,	0xFF,	0xFF,	0xFF,	0xFF,	//6-7 
.................... 0xFF,	0xFF,	0xFF,	0xFF,	0xFF,	0xFF,	0xFF,	0xFF,	0xFF,	0x00,	0x00,	0x00,	0x00,	0x00,	0x00,	0x00,	//6-8 
.................... 0x00,	0x00,	0x00,	0x00,	0x00,	0x00,	0x00,	0x00,	0xFF,	0xFF,	0xFF,	0xFF,	0xFF,	0xFF,	0xFF,	0xFF,	//6-9 
.................... 0xFF,	0xFF,	0xFF,	0xFF,	0xFF,	0xFF,	0xFF,	0x00,	0x00,	0x00,	0x00,	0x00,	0x00,	0x00,	0x00,	0x00,	//6-10 
.................... 0x00,	0x00,	0x00,	0x00,	0x00,	0x00,	0x00,	0x00,	0x00,	0x00,	0xFF,	0xFF,	0xFF,	0xFF,	0xFF,	0xFF,	//6-11 
.................... 0xFF,	0xFF,	0xFF,	0xFF,	0xFF,	0x00,	0x00,	0x00,	0x00,	0x00,	0x00,	0x00,	0x00,	0x00,	0x00,	0x00,	//6-12 
.................... 0x00,	0x00,	0x00,	0x00,	0x00,	0x00,	0x00,	0x00,	0x00,	0x00,	0x00,	0x00,	0xFF,	0xFF,	0xFF,	0xFF,	//6-13 
.................... 0xFF,	0xFF,	0xFF,	0x00,	0x00,	0x00,	0x00,	0x00,	0x00,	0x00,	0x00,	0x00,	0x00,	0x00,	0x00,	0x00,	//6-14 
.................... 0x00,	0x00,	0x00,	0x00,	0x00,	0x00,	0x00,	0x00,	0x00,	0x00,	0x00,	0x00,	0x00,	0x00,	0xFF,	0xFF,	//6-15 
.................... 0xFF,	0x00,	0x00,	0x00,	0x00,	0x00,	0x00,	0x00,	0x00,	0x00,	0x00,	0x00,	0x00,	0x00,	0x00,	0x00	//6-16 
.................... },{																 
.................... 0xFF,	0x00,	0x00,	0x00,	0x00,	0x00,	0x00,	0x00,	0x00,	0x00,	0x00,	0x00,	0x00,	0x00,	0x00,	0x00,	//7-1 
.................... 0x00,	0x00,	0x00,	0x00,	0x00,	0x00,	0x00,	0x00,	0x00,	0x00,	0x00,	0x00,	0x00,	0x00,	0xFF,	0xFF,	//7-2 
.................... 0xFF,	0xFF,	0xFF,	0x00,	0x00,	0x00,	0x00,	0x00,	0x00,	0x00,	0x00,	0x00,	0x00,	0x00,	0x00,	0x00,	//7-3 
.................... 0x00,	0x00,	0x00,	0x00,	0x00,	0x00,	0x00,	0x00,	0x00,	0x00,	0x00,	0x00,	0xFF,	0xFF,	0xFF,	0xFF,	//7-4 
.................... 0xFF,	0xFF,	0xFF,	0xFF,	0xFF,	0x00,	0x00,	0x00,	0x00,	0x00,	0x00,	0x00,	0x00,	0x00,	0x00,	0x00,	//7-5 
.................... 0x00,	0x00,	0x00,	0x00,	0x00,	0x00,	0x00,	0x00,	0x00,	0x00,	0xFF,	0xFF,	0xFF,	0xFF,	0xFF,	0xFF,	//7-6 
.................... 0xFF,	0xFF,	0xFF,	0xFF,	0xFF,	0xFF,	0xFF,	0x00,	0x00,	0x00,	0x00,	0x00,	0x00,	0x00,	0x00,	0x00,	//7-7 
.................... 0x00,	0x00,	0x00,	0x00,	0x00,	0x00,	0x00,	0x00,	0xFF,	0xFF,	0xFF,	0xFF,	0xFF,	0xFF,	0xFF,	0xFF,	//7-8 
.................... 0xFF,	0xFF,	0xFF,	0xFF,	0xFF,	0xFF,	0xFF,	0xFF,	0xFF,	0x00,	0x00,	0x00,	0x00,	0x00,	0x00,	0x00,	//7-9 
.................... 0x00,	0x00,	0x00,	0x00,	0x00,	0x00,	0xFF,	0xFF,	0xFF,	0xFF,	0xFF,	0xFF,	0xFF,	0xFF,	0xFF,	0xFF,	//7-10 
.................... 0xFF,	0xFF,	0xFF,	0xFF,	0xFF,	0xFF,	0xFF,	0xFF,	0xFF,	0xFF,	0xFF,	0x00,	0x00,	0x00,	0x00,	0x00,	//7-11 
.................... 0x00,	0x00,	0x00,	0x00,	0xFF,	0xFF,	0xFF,	0xFF,	0xFF,	0xFF,	0xFF,	0xFF,	0xFF,	0xFF,	0xFF,	0xFF,	//7-12 
.................... 0xFF,	0xFF,	0xFF,	0xFF,	0xFF,	0xFF,	0xFF,	0xFF,	0xFF,	0xFF,	0xFF,	0xFF,	0xFF,	0x00,	0x00,	0x00,	//7-13 
.................... 0x00,	0x00,	0xFF,	0xFF,	0xFF,	0xFF,	0xFF,	0xFF,	0xFF,	0xFF,	0xFF,	0xFF,	0xFF,	0xFF,	0xFF,	0xFF,	//7-14 
.................... 0xFF,	0xFF,	0xFF,	0xFF,	0xFF,	0xFF,	0xFF,	0xFF,	0xFF,	0xFF,	0xFF,	0xFF,	0xFF,	0xFF,	0xFF,	0x00,	//7-15 
.................... 0xFF,	0xFF,	0xFF,	0xFF,	0xFF,	0xFF,	0xFF,	0xFF,	0xFF,	0xFF,	0xFF,	0xFF,	0xFF,	0xFF,	0xFF,	0xFF	//7-16 
.................... },{																 
.................... 0xFF,	0xFF,	0xFF,	0xFF,	0xFF,	0xFF,	0xFF,	0xFF,	0xFF,	0xFF,	0xFF,	0xFF,	0xFF,	0xFF,	0xFF,	0xFF,	//8-1 
.................... 0xFF,	0xFF,	0xFF,	0xFF,	0xFF,	0xFF,	0xFF,	0xFF,	0xFF,	0xFF,	0xFF,	0xFF,	0xFF,	0xFF,	0xFF,	0xFF,	//8-2 
.................... 0xFF,	0xFF,	0xFF,	0xFF,	0xFF,	0xFF,	0xFF,	0xFF,	0xFF,	0xFF,	0xFF,	0xFF,	0xFF,	0xFF,	0xFF,	0xFF,	//8-3 
.................... 0xFF,	0xFF,	0xFF,	0x00,	0x00,	0x00,	0xFF,	0xFF,	0xFF,	0xFF,	0x00,	0x00,	0x00,	0xFF,	0xFF,	0xFF,	//8-4 
.................... 0xFF,	0xFF,	0x00,	0xFF,	0xFF,	0xFF,	0x00,	0xFF,	0xFF,	0x00,	0xFF,	0xFF,	0xFF,	0x00,	0xFF,	0xFF,	//8-5 
.................... 0xFF,	0xFF,	0x00,	0xFF,	0xFF,	0xFF,	0xFF,	0xFF,	0xFF,	0x00,	0xFF,	0xFF,	0xFF,	0x00,	0xFF,	0xFF,	//8-6 
.................... 0xFF,	0xFF,	0xFF,	0xFF,	0xFF,	0xFF,	0x00,	0xFF,	0xFF,	0xFF,	0xFF,	0xFF,	0xFF,	0x00,	0xFF,	0xFF,	//8-7 
.................... 0xFF,	0xFF,	0xFF,	0x00,	0x00,	0x00,	0xFF,	0xFF,	0xFF,	0x00,	0xFF,	0xFF,	0xFF,	0xFF,	0xFF,	0xFF,	//8-8 
.................... 0xFF,	0xFF,	0xFF,	0xFF,	0xFF,	0xFF,	0x00,	0xFF,	0xFF,	0x00,	0xFF,	0xFF,	0xFF,	0xFF,	0xFF,	0xFF,	//8-9 
.................... 0xFF,	0xFF,	0xFF,	0xFF,	0xFF,	0xFF,	0x00,	0xFF,	0xFF,	0x00,	0xFF,	0xFF,	0xFF,	0xFF,	0xFF,	0xFF,	//8-10 
.................... 0xFF,	0xFF,	0x00,	0xFF,	0xFF,	0xFF,	0x00,	0xFF,	0xFF,	0x00,	0xFF,	0xFF,	0xFF,	0x00,	0xFF,	0xFF,	//8-11 
.................... 0xFF,	0xFF,	0xFF,	0x00,	0x00,	0x00,	0xFF,	0xFF,	0xFF,	0xFF,	0x00,	0x00,	0x00,	0xFF,	0xFF,	0xFF,	//8-12 
.................... 0xFF,	0xFF,	0xFF,	0xFF,	0xFF,	0xFF,	0xFF,	0xFF,	0xFF,	0xFF,	0xFF,	0xFF,	0xFF,	0xFF,	0xFF,	0xFF,	//8-13 
.................... 0xFF,	0xFF,	0xFF,	0xFF,	0xFF,	0xFF,	0xFF,	0xFF,	0xFF,	0xFF,	0xFF,	0xFF,	0xFF,	0xFF,	0xFF,	0xFF,	//8-14 
.................... 0xFF,	0xFF,	0xFF,	0xFF,	0xFF,	0xFF,	0xFF,	0xFF,	0xFF,	0xFF,	0xFF,	0xFF,	0xFF,	0xFF,	0xFF,	0xFF,	//8-15 
.................... 0xFF,	0xFF,	0xFF,	0xFF,	0xFF,	0xFF,	0xFF,	0xFF,	0xFF,	0xFF,	0xFF,	0xFF,	0xFF,	0xFF,	0xFF,	0xFF	//8-16 
.................... },{																 
.................... 0x00,	0x00,	0x00,	0x00,	0x00,	0x00,	0x00,	0x00,	0x00,	0x00,	0x00,	0x00,	0x00,	0x00,	0x00,	0x00,	//9-1 
.................... 0x00,	0x00,	0x00,	0x00,	0x00,	0x00,	0x00,	0x00,	0x00,	0x00,	0x00,	0x00,	0x00,	0x00,	0x00,	0x00,	//9-2 
.................... 0x00,	0x00,	0x00,	0x00,	0x00,	0x00,	0x00,	0x00,	0x00,	0x00,	0x00,	0x00,	0x00,	0x00,	0x00,	0x00,	//9-3 
.................... 0x00,	0x00,	0x00,	0xFF,	0xFF,	0xFF,	0x00,	0x00,	0x00,	0x00,	0xFF,	0xFF,	0xFF,	0x00,	0x00,	0x00,	//9-4 
.................... 0x00,	0x00,	0xFF,	0x00,	0x00,	0x00,	0xFF,	0x00,	0x00,	0xFF,	0x00,	0x00,	0x00,	0xFF,	0x00,	0x00,	//9-5 
.................... 0x00,	0x00,	0xFF,	0x00,	0x00,	0x00,	0x00,	0x00,	0x00,	0xFF,	0x00,	0x00,	0x00,	0xFF,	0x00,	0x00,	//9-6 
.................... 0x00,	0x00,	0x00,	0x00,	0x00,	0x00,	0xFF,	0x00,	0x00,	0x00,	0x00,	0x00,	0x00,	0xFF,	0x00,	0x00,	//9-7 
.................... 0x00,	0x00,	0x00,	0xFF,	0xFF,	0xFF,	0x00,	0x00,	0x00,	0xFF,	0x00,	0x00,	0x00,	0x00,	0x00,	0x00,	//9-8 
.................... 0x00,	0x00,	0x00,	0x00,	0x00,	0x00,	0xFF,	0x00,	0x00,	0xFF,	0x00,	0x00,	0x00,	0x00,	0x00,	0x00,	//9-9 
.................... 0x00,	0x00,	0x00,	0x00,	0x00,	0x00,	0xFF,	0x00,	0x00,	0xFF,	0x00,	0x00,	0x00,	0xFF,	0x00,	0x00,	//9-10 
.................... 0x00,	0x00,	0xFF,	0x00,	0x00,	0x00,	0xFF,	0x00,	0x00,	0xFF,	0x00,	0x00,	0x00,	0xFF,	0x00,	0x00,	//9-11 
.................... 0x00,	0x00,	0x00,	0xFF,	0xFF,	0xFF,	0x00,	0x00,	0x00,	0x00,	0xFF,	0xFF,	0xFF,	0x00,	0x00,	0x00,	//9-12 
.................... 0x00,	0x00,	0x00,	0x00,	0x00,	0x00,	0x00,	0x00,	0x00,	0x00,	0x00,	0x00,	0x00,	0x00,	0x00,	0x00,	//9-13 
.................... 0x00,	0x00,	0x00,	0x00,	0x00,	0x00,	0x00,	0x00,	0x00,	0x00,	0x00,	0x00,	0x00,	0x00,	0x00,	0x00,	//9-14 
.................... 0x00,	0x00,	0x00,	0x00,	0x00,	0x00,	0x00,	0x00,	0x00,	0x00,	0x00,	0x00,	0x00,	0x00,	0x00,	0x00,	//9-15 
.................... 0x00,	0x00,	0x00,	0x00,	0x00,	0x00,	0x00,	0x00,	0x00,	0x00,	0x00,	0x00,	0x00,	0x00,	0x00,	0x00	//9-16 
.................... },{																 
.................... 0x00,	0x00,	0x00,	0x00,	0x00,	0x00,	0x00,	0x00,	0x00,	0x00,	0x00,	0x00,	0x00,	0x00,	0x00,	0x00,	//10-1 
.................... 0x00,	0x00,	0x00,	0x00,	0x00,	0x00,	0x00,	0x00,	0x00,	0x00,	0x00,	0x00,	0x00,	0x00,	0x00,	0x00,	//10-2 
.................... 0x00,	0x00,	0x00,	0x00,	0x00,	0x00,	0x00,	0x00,	0x00,	0x00,	0x00,	0x00,	0x00,	0x00,	0x00,	0x00,	//10-3 
.................... 0x00,	0x00,	0x00,	0x00,	0x00,	0x00,	0x00,	0x00,	0x00,	0x00,	0x00,	0x00,	0x00,	0x00,	0x00,	0x00,	//10-4 
.................... 0x00,	0xFF,	0x00,	0x00,	0xFF,	0x00,	0x00,	0xFF,	0xFF,	0xFF,	0x00,	0x00,	0xFF,	0xFF,	0x00,	0x00,	//10-5 
.................... 0x00,	0xFF,	0x00,	0x00,	0xFF,	0x00,	0xFF,	0x00,	0x00,	0xFF,	0x00,	0xFF,	0x00,	0x00,	0xFF,	0x00,	//10-6 
.................... 0x00,	0xFF,	0x00,	0xFF,	0xFF,	0x00,	0xFF,	0x00,	0x00,	0xFF,	0x00,	0xFF,	0x00,	0x00,	0xFF,	0x00,	//10-7 
.................... 0x00,	0xFF,	0x00,	0x00,	0xFF,	0x00,	0xFF,	0x00,	0x00,	0xFF,	0x00,	0xFF,	0xFF,	0x00,	0xFF,	0x00,	//10-8 
.................... 0x00,	0xFF,	0xFF,	0x00,	0xFF,	0x00,	0x00,	0xFF,	0xFF,	0xFF,	0x00,	0xFF,	0x00,	0x00,	0xFF,	0x00,	//10-9 
.................... 0x00,	0xFF,	0x00,	0x00,	0xFF,	0x00,	0xFF,	0x00,	0x00,	0x00,	0x00,	0xFF,	0x00,	0xFF,	0xFF,	0x00,	//10-10 
.................... 0x00,	0xFF,	0x00,	0x00,	0xFF,	0x00,	0x00,	0x00,	0x00,	0xFF,	0x00,	0xFF,	0x00,	0x00,	0xFF,	0x00,	//10-11 
.................... 0x00,	0x00,	0xFF,	0xFF,	0x00,	0x00,	0xFF,	0x00,	0x00,	0x00,	0x00,	0xFF,	0x00,	0x00,	0xFF,	0x00,	//10-12 
.................... 0x00,	0x00,	0x00,	0x00,	0x00,	0x00,	0x00,	0x00,	0x00,	0x00,	0x00,	0x00,	0x00,	0x00,	0x00,	0x00,	//10-13 
.................... 0x00,	0x00,	0x00,	0x00,	0x00,	0x00,	0x00,	0x00,	0x00,	0x00,	0x00,	0x00,	0x00,	0x00,	0x00,	0x00,	//10-14 
.................... 0x00,	0x00,	0x00,	0x00,	0x00,	0x00,	0x00,	0x00,	0x00,	0x00,	0x00,	0x00,	0x00,	0x00,	0x00,	0x00,	//10-15 
.................... 0x00,	0x00,	0x00,	0x00,	0x00,	0x00,	0x00,	0x00,	0x00,	0x00,	0x00,	0x00,	0x00,	0x00,	0x00,	0x00	//10-16 
.................... },{																 
.................... 0x00,	0x00,	0x00,	0x00,	0x00,	0x00,	0x00,	0x00,	0x00,	0x00,	0x00,	0x00,	0x00,	0x00,	0x00,	0x00,	//11-1 
.................... 0x00,	0x00,	0x00,	0x00,	0x00,	0x00,	0x00,	0x00,	0x00,	0x00,	0x00,	0x00,	0x00,	0x00,	0x00,	0x00,	//11-2 
.................... 0x00,	0x00,	0x00,	0x00,	0x00,	0x00,	0x00,	0x00,	0x00,	0x00,	0x00,	0x00,	0x00,	0x00,	0x00,	0x00,	//11-3 
.................... 0x00,	0x00,	0x00,	0x00,	0x00,	0x00,	0x00,	0x00,	0x00,	0x00,	0x00,	0x00,	0x00,	0x00,	0x00,	0x00,	//11-4 
.................... 0x00,	0x00,	0xFF,	0xFF,	0x00,	0x00,	0x00,	0x00,	0x00,	0xFF,	0x00,	0x00,	0xFF,	0xFF,	0x00,	0x00,	//11-5 
.................... 0x00,	0xFF,	0x00,	0x00,	0xFF,	0x00,	0xFF,	0x00,	0x00,	0x00,	0x00,	0xFF,	0x00,	0x00,	0xFF,	0x00,	//11-6 
.................... 0x00,	0x00,	0x00,	0x00,	0xFF,	0x00,	0x00,	0x00,	0x00,	0xFF,	0x00,	0x00,	0x00,	0x00,	0xFF,	0x00,	//11-7 
.................... 0x00,	0xFF,	0x00,	0x00,	0x00,	0x00,	0xFF,	0x00,	0x00,	0x00,	0x00,	0x00,	0xFF,	0x00,	0x00,	0x00,	//11-8 
.................... 0x00,	0x00,	0xFF,	0x00,	0x00,	0x00,	0x00,	0x00,	0x00,	0xFF,	0x00,	0x00,	0x00,	0x00,	0xFF,	0x00,	//11-9 
.................... 0x00,	0xFF,	0x00,	0x00,	0x00,	0x00,	0xFF,	0x00,	0x00,	0x00,	0x00,	0x00,	0x00,	0x00,	0xFF,	0x00,	//11-10 
.................... 0x00,	0xFF,	0x00,	0x00,	0xFF,	0x00,	0x00,	0x00,	0x00,	0xFF,	0x00,	0xFF,	0x00,	0x00,	0xFF,	0x00,	//11-11 
.................... 0x00,	0x00,	0xFF,	0xFF,	0x00,	0x00,	0xFF,	0xFF,	0xFF,	0xFF,	0x00,	0x00,	0xFF,	0xFF,	0x00,	0x00,	//11-12 
.................... 0x00,	0x00,	0x00,	0x00,	0x00,	0x00,	0x00,	0x00,	0x00,	0x00,	0x00,	0x00,	0x00,	0x00,	0x00,	0x00,	//11-13 
.................... 0x00,	0x00,	0x00,	0x00,	0x00,	0x00,	0x00,	0x00,	0x00,	0x00,	0x00,	0x00,	0x00,	0x00,	0x00,	0x00,	//11-14 
.................... 0x00,	0x00,	0x00,	0x00,	0x00,	0x00,	0x00,	0x00,	0x00,	0x00,	0x00,	0x00,	0x00,	0x00,	0x00,	0x00,	//11-15 
.................... 0x00,	0x00,	0x00,	0x00,	0x00,	0x00,	0x00,	0x00,	0x00,	0x00,	0x00,	0x00,	0x00,	0x00,	0x00,	0x00	//11-16 
.................... },{																 
.................... 0x00,	0x00,	0x00,	0x00,	0x00,	0x00,	0x00,	0x00,	0x00,	0x00,	0x00,	0x00,	0x00,	0x00,	0x00,	0x00,	//12-1 
.................... 0x00,	0x00,	0x00,	0x00,	0x00,	0x00,	0x00,	0x00,	0x00,	0x00,	0x00,	0x00,	0x00,	0x00,	0x00,	0x00,	//12-2 
.................... 0x00,	0x00,	0x00,	0x00,	0x00,	0x00,	0x00,	0x00,	0x00,	0x00,	0x00,	0x00,	0x00,	0x00,	0x00,	0x00,	//12-3 
.................... 0x00,	0x00,	0x00,	0x00,	0x00,	0x00,	0x00,	0x00,	0x00,	0x00,	0x00,	0x00,	0x00,	0x00,	0x00,	0x00,	//12-4 
.................... 0x00,	0xFF,	0x00,	0x00,	0x00,	0xFF,	0x00,	0x00,	0xFF,	0xFF,	0x00,	0x00,	0xFF,	0xFF,	0xFF,	0x00,	//12-5 
.................... 0x00,	0xFF,	0x00,	0x00,	0x00,	0xFF,	0x00,	0x00,	0xFF,	0x00,	0xFF,	0x00,	0x00,	0x00,	0xFF,	0x00,	//12-6 
.................... 0x00,	0xFF,	0x00,	0x00,	0x00,	0xFF,	0x00,	0xFF,	0x00,	0x00,	0xFF,	0x00,	0x00,	0x00,	0xFF,	0x00,	//12-7 
.................... 0x00,	0xFF,	0xFF,	0x00,	0x00,	0xFF,	0x00,	0x00,	0x00,	0x00,	0x00,	0xFF,	0x00,	0xFF,	0x00,	0x00,	//12-8 
.................... 0x00,	0x00,	0x00,	0xFF,	0x00,	0x00,	0x00,	0x00,	0x00,	0x00,	0xFF,	0x00,	0x00,	0x00,	0xFF,	0x00,	//12-9 
.................... 0x00,	0xFF,	0x00,	0x00,	0x00,	0xFF,	0x00,	0x00,	0xFF,	0x00,	0x00,	0x00,	0xFF,	0x00,	0x00,	0x00,	//12-10 
.................... 0x00,	0x00,	0x00,	0xFF,	0x00,	0x00,	0x00,	0xFF,	0x00,	0x00,	0xFF,	0x00,	0x00,	0x00,	0xFF,	0x00,	//12-11 
.................... 0x00,	0xFF,	0x00,	0x00,	0x00,	0x00,	0xFF,	0xFF,	0x00,	0x00,	0x00,	0x00,	0xFF,	0x00,	0x00,	0x00,	//12-12 
.................... 0x00,	0x00,	0x00,	0x00,	0x00,	0x00,	0x00,	0x00,	0x00,	0x00,	0x00,	0x00,	0x00,	0x00,	0x00,	0x00,	//12-13 
.................... 0x00,	0x00,	0x00,	0x00,	0x00,	0x00,	0x00,	0x00,	0x00,	0x00,	0x00,	0x00,	0x00,	0x00,	0x00,	0x00,	//12-14 
.................... 0x00,	0x00,	0x00,	0x00,	0x00,	0x00,	0x00,	0x00,	0x00,	0x00,	0x00,	0x00,	0x00,	0x00,	0x00,	0x00,	//12-15 
.................... 0x00,	0x00,	0x00,	0x00,	0x00,	0x00,	0x00,	0x00,	0x00,	0x00,	0x00,	0x00,	0x00,	0x00,	0x00,	0x00	//12-16 
.................... },{																 
.................... 0xFF,	0xFF,	0xFF,	0xFF,	0xFF,	0xFF,	0xFF,	0xFF,	0xFF,	0xFF,	0xFF,	0xFF,	0xFF,	0xFF,	0xFF,	0xFF,	//13-1 
.................... 0xFF,	0xFF,	0xFF,	0xFF,	0xFF,	0xFF,	0xFF,	0xFF,	0xFF,	0xFF,	0xFF,	0xFF,	0xFF,	0xFF,	0xFF,	0xFF,	//13-2 
.................... 0xFF,	0xFF,	0xFF,	0xFF,	0xFF,	0xFF,	0xFF,	0xFF,	0xFF,	0xFF,	0xFF,	0xFF,	0xFF,	0xFF,	0xFF,	0xFF,	//13-3 
.................... 0xFF,	0xFF,	0xFF,	0xFF,	0xFF,	0xFF,	0xFF,	0xFF,	0xFF,	0xFF,	0xFF,	0xFF,	0xFF,	0xFF,	0xFF,	0xFF,	//13-4 
.................... 0xFF,	0x00,	0xFF,	0xFF,	0xFF,	0x00,	0xFF,	0xFF,	0x00,	0x00,	0xFF,	0xFF,	0x00,	0x00,	0x00,	0xFF,	//13-5 
.................... 0xFF,	0x00,	0xFF,	0xFF,	0xFF,	0x00,	0xFF,	0xFF,	0x00,	0xFF,	0x00,	0xFF,	0xFF,	0xFF,	0x00,	0xFF,	//13-6 
.................... 0xFF,	0x00,	0xFF,	0xFF,	0xFF,	0x00,	0xFF,	0x00,	0xFF,	0xFF,	0x00,	0xFF,	0xFF,	0xFF,	0x00,	0xFF,	//13-7 
.................... 0xFF,	0x00,	0x00,	0xFF,	0xFF,	0x00,	0xFF,	0xFF,	0xFF,	0xFF,	0xFF,	0x00,	0xFF,	0x00,	0xFF,	0xFF,	//13-8 
.................... 0xFF,	0xFF,	0xFF,	0x00,	0xFF,	0xFF,	0xFF,	0xFF,	0xFF,	0xFF,	0x00,	0xFF,	0xFF,	0xFF,	0x00,	0xFF,	//13-9 
.................... 0xFF,	0x00,	0xFF,	0xFF,	0xFF,	0x00,	0xFF,	0xFF,	0x00,	0xFF,	0xFF,	0xFF,	0x00,	0xFF,	0xFF,	0xFF,	//13-10 
.................... 0xFF,	0xFF,	0xFF,	0x00,	0xFF,	0xFF,	0xFF,	0x00,	0xFF,	0xFF,	0x00,	0xFF,	0xFF,	0xFF,	0x00,	0xFF,	//13-11 
.................... 0xFF,	0x00,	0xFF,	0xFF,	0xFF,	0xFF,	0x00,	0x00,	0xFF,	0xFF,	0xFF,	0xFF,	0x00,	0xFF,	0xFF,	0xFF,	//13-12 
.................... 0xFF,	0xFF,	0xFF,	0xFF,	0xFF,	0xFF,	0xFF,	0xFF,	0xFF,	0xFF,	0xFF,	0xFF,	0xFF,	0xFF,	0xFF,	0xFF,	//13-13 
.................... 0xFF,	0xFF,	0xFF,	0xFF,	0xFF,	0xFF,	0xFF,	0xFF,	0xFF,	0xFF,	0xFF,	0xFF,	0xFF,	0xFF,	0xFF,	0xFF,	//13-14 
.................... 0xFF,	0xFF,	0xFF,	0xFF,	0xFF,	0xFF,	0xFF,	0xFF,	0xFF,	0xFF,	0xFF,	0xFF,	0xFF,	0xFF,	0xFF,	0xFF,	//13-15 
.................... 0xFF,	0xFF,	0xFF,	0xFF,	0xFF,	0xFF,	0xFF,	0xFF,	0xFF,	0xFF,	0xFF,	0xFF,	0xFF,	0xFF,	0xFF,	0xFF	//13-16 
.................... },{																 
.................... 0xFF,	0xFF,	0xFF,	0xFF,	0xFF,	0xFF,	0xFF,	0xFF,	0xFF,	0xFF,	0xFF,	0xFF,	0xFF,	0xFF,	0xFF,	0xFF,	//14-1 
.................... 0xFF,	0xFF,	0xFF,	0xFF,	0xFF,	0xFF,	0xFF,	0xFF,	0xFF,	0xFF,	0xFF,	0xFF,	0xFF,	0xFF,	0xFF,	0xFF,	//14-2 
.................... 0xC0,	0xC0,	0xC0,	0xC0,	0xC0,	0xC0,	0xC0,	0xC0,	0xC0,	0xC0,	0xC0,	0xC0,	0xC0,	0xC0,	0xC0,	0xC0,	//14-3 
.................... 0xC0,	0xC0,	0xC0,	0xC0,	0xC0,	0xC0,	0xC0,	0xC0,	0xC0,	0xC0,	0xC0,	0xC0,	0xC0,	0xC0,	0xC0,	0xC0,	//14-4 
.................... 0xC0,	0xC0,	0xC0,	0xC0,	0xC0,	0xC0,	0xC0,	0xC0,	0xC0,	0xC0,	0xC0,	0xC0,	0xC0,	0xC0,	0xC0,	0xC0,	//14-5 
.................... 0xFF,	0xFF,	0xFF,	0xFF,	0xFF,	0xFF,	0xFF,	0xFF,	0xFF,	0xFF,	0xFF,	0xFF,	0xFF,	0xFF,	0xFF,	0xFF,	//14-6 
.................... 0xFF,	0xFF,	0xFF,	0xFF,	0xFF,	0xFF,	0xFF,	0xFF,	0xFF,	0xFF,	0xFF,	0xFF,	0xFF,	0xFF,	0xFF,	0xFF,	//14-7 
.................... 0xC0,	0xC0,	0xC0,	0xC0,	0xC0,	0xC0,	0xC0,	0xC0,	0xC0,	0xC0,	0xC0,	0xC0,	0xC0,	0xC0,	0xC0,	0xC0,	//14-8 
.................... 0xC0,	0xC0,	0xC0,	0xC0,	0xC0,	0xC0,	0xC0,	0xC0,	0xC0,	0xC0,	0xC0,	0xC0,	0xC0,	0xC0,	0xC0,	0xC0,	//14-9 
.................... 0xFF,	0xFF,	0xFF,	0xFF,	0xFF,	0xFF,	0xFF,	0xFF,	0xFF,	0xFF,	0xFF,	0xFF,	0xFF,	0xFF,	0xFF,	0xFF,	//14-10 
.................... 0xFF,	0xFF,	0xFF,	0xFF,	0xFF,	0xFF,	0xFF,	0xFF,	0xFF,	0xFF,	0xFF,	0xFF,	0xFF,	0xFF,	0xFF,	0xFF,	//14-11 
.................... 0xC0,	0xC0,	0xC0,	0xC0,	0xC0,	0xC0,	0xC0,	0xC0,	0xC0,	0xC0,	0xC0,	0xC0,	0xC0,	0xC0,	0xC0,	0xC0,	//14-12 
.................... 0xC0,	0xC0,	0xC0,	0xC0,	0xC0,	0xC0,	0xC0,	0xC0,	0xC0,	0xC0,	0xC0,	0xC0,	0xC0,	0xC0,	0xC0,	0xC0,	//14-13 
.................... 0xC0,	0xC0,	0xC0,	0xC0,	0xC0,	0xC0,	0xC0,	0xC0,	0xC0,	0xC0,	0xC0,	0xC0,	0xC0,	0xC0,	0xC0,	0xC0,	//14-14 
.................... 0xFF,	0xFF,	0xFF,	0xFF,	0xFF,	0xFF,	0xFF,	0xFF,	0xFF,	0xFF,	0xFF,	0xFF,	0xFF,	0xFF,	0xFF,	0xFF,	//14-15 
.................... 0xFF,	0xFF,	0xFF,	0xFF,	0xFF,	0xFF,	0xFF,	0xFF,	0xFF,	0xFF,	0xFF,	0xFF,	0xFF,	0xFF,	0xFF,	0xFF	//14-16 
.................... },{																 
.................... 0x00,	0x00,	0x00,	0x00,	0x00,	0x00,	0x00,	0x00,	0x00,	0x00,	0x00,	0x00,	0x00,	0x00,	0x00,	0x00,	//15-1 
.................... 0x00,	0xFF,	0xFF,	0x00,	0x00,	0xFF,	0xFF,	0x00,	0x00,	0xFF,	0xFF,	0x00,	0x00,	0xFF,	0xFF,	0x00,	//15-2 
.................... 0x00,	0xFF,	0xFF,	0x00,	0x00,	0xFF,	0xFF,	0x00,	0x00,	0xFF,	0xFF,	0x00,	0x00,	0xFF,	0xFF,	0x00,	//15-3 
.................... 0x00,	0x00,	0x00,	0xFF,	0xFF,	0x00,	0x00,	0xFF,	0xFF,	0x00,	0x00,	0xFF,	0xFF,	0x00,	0x00,	0x00,	//15-4 
.................... 0x00,	0x00,	0x00,	0xFF,	0xFF,	0x00,	0x00,	0xFF,	0xFF,	0x00,	0x00,	0xFF,	0xFF,	0x00,	0x00,	0x00,	//15-5 
.................... 0x00,	0xFF,	0xFF,	0x00,	0x00,	0xFF,	0xFF,	0x00,	0x00,	0xFF,	0xFF,	0x00,	0x00,	0xFF,	0xFF,	0x00,	//15-6 
.................... 0x00,	0xFF,	0xFF,	0x00,	0x00,	0xFF,	0xFF,	0x00,	0x00,	0xFF,	0xFF,	0x00,	0x00,	0xFF,	0xFF,	0x00,	//15-7 
.................... 0x00,	0x00,	0x00,	0xFF,	0xFF,	0x00,	0x00,	0xFF,	0xFF,	0x00,	0x00,	0xFF,	0xFF,	0x00,	0x00,	0x00,	//15-8 
.................... 0x00,	0x00,	0x00,	0xFF,	0xFF,	0x00,	0x00,	0xFF,	0xFF,	0x00,	0x00,	0xFF,	0xFF,	0x00,	0x00,	0x00,	//15-9 
.................... 0x00,	0xFF,	0xFF,	0x00,	0x00,	0xFF,	0xFF,	0x00,	0x00,	0xFF,	0xFF,	0x00,	0x00,	0xFF,	0xFF,	0x00,	//15-10 
.................... 0x00,	0xFF,	0xFF,	0x00,	0x00,	0xFF,	0xFF,	0x00,	0x00,	0xFF,	0xFF,	0x00,	0x00,	0xFF,	0xFF,	0x00,	//15-11 
.................... 0x00,	0x00,	0x00,	0xFF,	0xFF,	0x00,	0x00,	0xFF,	0xFF,	0x00,	0x00,	0xFF,	0xFF,	0x00,	0x00,	0x00,	//15-12 
.................... 0x00,	0x00,	0x00,	0xFF,	0xFF,	0x00,	0x00,	0xFF,	0xFF,	0x00,	0x00,	0xFF,	0xFF,	0x00,	0x00,	0x00,	//15-13 
.................... 0x00,	0xFF,	0xFF,	0x00,	0x00,	0xFF,	0xFF,	0x00,	0x00,	0xFF,	0xFF,	0x00,	0x00,	0xFF,	0xFF,	0x00,	//15-14 
.................... 0x00,	0xFF,	0xFF,	0x00,	0x00,	0xFF,	0xFF,	0x00,	0x00,	0xFF,	0xFF,	0x00,	0x00,	0xFF,	0xFF,	0x00,	//15-15 
.................... 0x00,	0x00,	0x00,	0x00,	0x00,	0x00,	0x00,	0x00,	0x00,	0x00,	0x00,	0x00,	0x00,	0x00,	0x00,	0x00	//15-16 
.................... }};																 
.................... //BLUE																 
.................... const int ws281x_color_b[16][256] = {{																 
.................... 0x00,	0x00,	0x00,	0x00,	0x00,	0x00,	0x00,	0x00,	0x00,	0x00,	0x00,	0x00,	0x00,	0x00,	0x00,	0x00,	//0-1 
.................... 0x00,	0x00,	0x00,	0x00,	0x00,	0x00,	0x00,	0x00,	0x00,	0x00,	0x00,	0x00,	0x00,	0x00,	0x00,	0x00,	//0-2 
.................... 0x00,	0x00,	0x00,	0x00,	0x00,	0x00,	0x00,	0x00,	0x00,	0x00,	0x00,	0x00,	0x00,	0x00,	0x00,	0x00,	//0-3 
.................... 0x00,	0x00,	0x00,	0x00,	0x00,	0x00,	0x00,	0x00,	0x00,	0x00,	0x00,	0x00,	0x00,	0x00,	0x00,	0x00,	//0-4 
.................... 0x00,	0x00,	0x00,	0x00,	0x00,	0x00,	0x00,	0x00,	0x00,	0x00,	0x00,	0x00,	0x00,	0x00,	0x00,	0x00,	//0-5 
.................... 0x00,	0x00,	0x00,	0x00,	0x00,	0x00,	0x00,	0x00,	0x00,	0x00,	0x00,	0x00,	0x00,	0x00,	0x00,	0x00,	//0-6 
.................... 0x00,	0x00,	0x00,	0x00,	0x00,	0x00,	0x00,	0x00,	0x00,	0x00,	0x00,	0x00,	0x00,	0x00,	0x00,	0x00,	//0-7 
.................... 0x00,	0x00,	0x00,	0x00,	0x00,	0x00,	0x00,	0x00,	0x00,	0x00,	0x00,	0x00,	0x00,	0x00,	0x00,	0x00,	//0-8 
.................... 0x00,	0x00,	0x00,	0x00,	0x00,	0x00,	0x00,	0x00,	0x00,	0x00,	0x00,	0x00,	0x00,	0x00,	0x00,	0x00,	//0-9 
.................... 0x00,	0x00,	0x00,	0x00,	0x00,	0x00,	0x00,	0x00,	0x00,	0x00,	0x00,	0x00,	0x00,	0x00,	0x00,	0x00,	//0-10 
.................... 0x00,	0x00,	0x00,	0x00,	0x00,	0x00,	0x00,	0x00,	0x00,	0x00,	0x00,	0x00,	0x00,	0x00,	0x00,	0x00,	//0-11 
.................... 0x00,	0x00,	0x00,	0x00,	0x00,	0x00,	0x00,	0x00,	0x00,	0x00,	0x00,	0x00,	0x00,	0x00,	0x00,	0x00,	//0-12 
.................... 0x00,	0x00,	0x00,	0x00,	0x00,	0x00,	0x00,	0x00,	0x00,	0x00,	0x00,	0x00,	0x00,	0x00,	0x00,	0x00,	//0-13 
.................... 0x00,	0x00,	0x00,	0x00,	0x00,	0x00,	0x00,	0x00,	0x00,	0x00,	0x00,	0x00,	0x00,	0x00,	0x00,	0x00,	//0-14 
.................... 0x00,	0x00,	0x00,	0x00,	0x00,	0x00,	0x00,	0x00,	0x00,	0x00,	0x00,	0x00,	0x00,	0x00,	0x00,	0x00,	//0-15 
.................... 0x00,	0x00,	0x00,	0x00,	0x00,	0x00,	0x00,	0x00,	0x00,	0x00,	0x00,	0x00,	0x00,	0x00,	0x00,	0x00	//0-16 
.................... },{																 
.................... 0xFF,	0xFF,	0xFF,	0xFF,	0xFF,	0xFF,	0xFF,	0xFF,	0xFF,	0xFF,	0xFF,	0xFF,	0xFF,	0xFF,	0xFF,	0xFF,	//1-1 
.................... 0xFF,	0xFF,	0xFF,	0xFF,	0xFF,	0xFF,	0xFF,	0xFF,	0xFF,	0xFF,	0xFF,	0xFF,	0xFF,	0xFF,	0xFF,	0xFF,	//1-2 
.................... 0xFF,	0xFF,	0xFF,	0xFF,	0xFF,	0xFF,	0xFF,	0xFF,	0xFF,	0xFF,	0xFF,	0xFF,	0xFF,	0xFF,	0xFF,	0xFF,	//1-3 
.................... 0xFF,	0xFF,	0xFF,	0xFF,	0xFF,	0xFF,	0xFF,	0xFF,	0xFF,	0xFF,	0xFF,	0xFF,	0xFF,	0xFF,	0xFF,	0xFF,	//1-4 
.................... 0xFF,	0xFF,	0xFF,	0xFF,	0xFF,	0xFF,	0xFF,	0xFF,	0xFF,	0xFF,	0xFF,	0xFF,	0xFF,	0xFF,	0xFF,	0xFF,	//1-5 
.................... 0xFF,	0xFF,	0xFF,	0xFF,	0xFF,	0xFF,	0xFF,	0xFF,	0xFF,	0xFF,	0xFF,	0xFF,	0xFF,	0xFF,	0xFF,	0xFF,	//1-6 
.................... 0xFF,	0xFF,	0xFF,	0xFF,	0xFF,	0xFF,	0xFF,	0xFF,	0xFF,	0xFF,	0xFF,	0xFF,	0xFF,	0xFF,	0xFF,	0xFF,	//1-7 
.................... 0xFF,	0xFF,	0xFF,	0xFF,	0xFF,	0xFF,	0xFF,	0xFF,	0xFF,	0xFF,	0xFF,	0xFF,	0xFF,	0xFF,	0xFF,	0xFF,	//1-8 
.................... 0xFF,	0xFF,	0xFF,	0xFF,	0xFF,	0xFF,	0xFF,	0xFF,	0xFF,	0xFF,	0xFF,	0xFF,	0xFF,	0xFF,	0xFF,	0xFF,	//1-9 
.................... 0xFF,	0xFF,	0xFF,	0xFF,	0xFF,	0xFF,	0xFF,	0xFF,	0xFF,	0xFF,	0xFF,	0xFF,	0xFF,	0xFF,	0xFF,	0xFF,	//1-10 
.................... 0xFF,	0xFF,	0xFF,	0xFF,	0xFF,	0xFF,	0xFF,	0xFF,	0xFF,	0xFF,	0xFF,	0xFF,	0xFF,	0xFF,	0xFF,	0xFF,	//1-11 
.................... 0xFF,	0xFF,	0xFF,	0xFF,	0xFF,	0xFF,	0xFF,	0xFF,	0xFF,	0xFF,	0xFF,	0xFF,	0xFF,	0xFF,	0xFF,	0xFF,	//1-12 
.................... 0xFF,	0xFF,	0xFF,	0xFF,	0xFF,	0xFF,	0xFF,	0xFF,	0xFF,	0xFF,	0xFF,	0xFF,	0xFF,	0xFF,	0xFF,	0xFF,	//1-13 
.................... 0xFF,	0xFF,	0xFF,	0xFF,	0xFF,	0xFF,	0xFF,	0xFF,	0xFF,	0xFF,	0xFF,	0xFF,	0xFF,	0xFF,	0xFF,	0xFF,	//1-14 
.................... 0xFF,	0xFF,	0xFF,	0xFF,	0xFF,	0xFF,	0xFF,	0xFF,	0xFF,	0xFF,	0xFF,	0xFF,	0xFF,	0xFF,	0xFF,	0xFF,	//1-15 
.................... 0xFF,	0xFF,	0xFF,	0xFF,	0xFF,	0xFF,	0xFF,	0xFF,	0xFF,	0xFF,	0xFF,	0xFF,	0xFF,	0xFF,	0xFF,	0xFF	//1-16 
.................... },{																 
.................... 0xBF,	0xBF,	0xBF,	0xBF,	0xBF,	0xBF,	0xBF,	0xBF,	0xBF,	0xBF,	0xBF,	0xBF,	0xBF,	0xBF,	0xBF,	0xBF,	//2-1 
.................... 0xBF,	0xBF,	0xBF,	0xBF,	0xBF,	0xBF,	0xBF,	0xBF,	0xBF,	0xBF,	0xBF,	0xBF,	0xBF,	0xBF,	0xBF,	0xBF,	//2-2 
.................... 0xBF,	0xBF,	0xBF,	0xBF,	0xBF,	0xBF,	0xBF,	0xBF,	0xBF,	0xBF,	0xBF,	0xBF,	0xBF,	0xBF,	0xBF,	0xBF,	//2-3 
.................... 0xBF,	0xBF,	0xBF,	0xBF,	0xBF,	0xBF,	0xBF,	0xBF,	0xBF,	0xBF,	0xBF,	0xBF,	0xBF,	0xBF,	0xBF,	0xBF,	//2-4 
.................... 0xBF,	0xBF,	0xBF,	0xBF,	0xBF,	0xBF,	0xBF,	0xBF,	0xBF,	0xBF,	0xBF,	0xBF,	0xBF,	0xBF,	0xBF,	0xBF,	//2-5 
.................... 0xBF,	0xBF,	0xBF,	0xBF,	0xBF,	0xBF,	0xBF,	0xBF,	0xBF,	0xBF,	0xBF,	0xBF,	0xBF,	0xBF,	0xBF,	0xBF,	//2-6 
.................... 0xBF,	0xBF,	0xBF,	0xBF,	0xBF,	0xBF,	0xBF,	0xBF,	0xBF,	0xBF,	0xBF,	0xBF,	0xBF,	0xBF,	0xBF,	0xBF,	//2-7 
.................... 0xBF,	0xBF,	0xBF,	0xBF,	0xBF,	0xBF,	0xBF,	0xBF,	0xBF,	0xBF,	0xBF,	0xBF,	0xBF,	0xBF,	0xBF,	0xBF,	//2-8 
.................... 0xBF,	0xBF,	0xBF,	0xBF,	0xBF,	0xBF,	0xBF,	0xBF,	0xBF,	0xBF,	0xBF,	0xBF,	0xBF,	0xBF,	0xBF,	0xBF,	//2-9 
.................... 0xBF,	0xBF,	0xBF,	0xBF,	0xBF,	0xBF,	0xBF,	0xBF,	0xBF,	0xBF,	0xBF,	0xBF,	0xBF,	0xBF,	0xBF,	0xBF,	//2-10 
.................... 0xBF,	0xBF,	0xBF,	0xBF,	0xBF,	0xBF,	0xBF,	0xBF,	0xBF,	0xBF,	0xBF,	0xBF,	0xBF,	0xBF,	0xBF,	0xBF,	//2-11 
.................... 0xBF,	0xBF,	0xBF,	0xBF,	0xBF,	0xBF,	0xBF,	0xBF,	0xBF,	0xBF,	0xBF,	0xBF,	0xBF,	0xBF,	0xBF,	0xBF,	//2-12 
.................... 0xBF,	0xBF,	0xBF,	0xBF,	0xBF,	0xBF,	0xBF,	0xBF,	0xBF,	0xBF,	0xBF,	0xBF,	0xBF,	0xBF,	0xBF,	0xBF,	//2-13 
.................... 0xBF,	0xBF,	0xBF,	0xBF,	0xBF,	0xBF,	0xBF,	0xBF,	0xBF,	0xBF,	0xBF,	0xBF,	0xBF,	0xBF,	0xBF,	0xBF,	//2-14 
.................... 0xBF,	0xBF,	0xBF,	0xBF,	0xBF,	0xBF,	0xBF,	0xBF,	0xBF,	0xBF,	0xBF,	0xBF,	0xBF,	0xBF,	0xBF,	0xBF,	//2-15 
.................... 0xBF,	0xBF,	0xBF,	0xBF,	0xBF,	0xBF,	0xBF,	0xBF,	0xBF,	0xBF,	0xBF,	0xBF,	0xBF,	0xBF,	0xBF,	0xBF	//2-16 
.................... },{																 
.................... 0x00,	0x00,	0x00,	0x00,	0x00,	0x00,	0x00,	0x00,	0x00,	0x00,	0x00,	0x00,	0x00,	0x00,	0x00,	0x00,	//3-1 
.................... 0x00,	0x00,	0x00,	0x00,	0x00,	0x00,	0x00,	0x00,	0x00,	0x00,	0x00,	0x00,	0x00,	0x00,	0x00,	0x00,	//3-2 
.................... 0x00,	0x00,	0x00,	0x00,	0x00,	0x00,	0x00,	0x00,	0x00,	0x00,	0x00,	0x00,	0x00,	0x00,	0x00,	0x00,	//3-3 
.................... 0x00,	0x00,	0x00,	0x00,	0x00,	0x00,	0x00,	0x00,	0x00,	0x00,	0x00,	0x00,	0x00,	0x00,	0x00,	0x00,	//3-4 
.................... 0x00,	0x00,	0x00,	0x00,	0x00,	0x00,	0x00,	0x00,	0x00,	0x00,	0x00,	0x00,	0x00,	0x00,	0x00,	0x00,	//3-5 
.................... 0x00,	0x00,	0x00,	0x00,	0x00,	0x00,	0x00,	0x00,	0x00,	0x00,	0x00,	0x00,	0x00,	0x00,	0x00,	0x00,	//3-6 
.................... 0x00,	0x00,	0x00,	0x00,	0x00,	0x00,	0x00,	0x00,	0x00,	0x00,	0x00,	0x00,	0x00,	0x00,	0x00,	0x00,	//3-7 
.................... 0x00,	0x00,	0x00,	0x00,	0x00,	0x00,	0x00,	0x00,	0x00,	0x00,	0x00,	0x00,	0x00,	0x00,	0x00,	0x00,	//3-8 
.................... 0x00,	0x00,	0x00,	0x00,	0x00,	0x00,	0x00,	0x00,	0x00,	0x00,	0x00,	0x00,	0x00,	0x00,	0x00,	0x00,	//3-9 
.................... 0x00,	0x00,	0x00,	0x00,	0x00,	0x00,	0x00,	0x00,	0x00,	0x00,	0x00,	0x00,	0x00,	0x00,	0x00,	0x00,	//3-10 
.................... 0x00,	0x00,	0x00,	0x00,	0x00,	0x00,	0x00,	0x00,	0x00,	0x00,	0x00,	0x00,	0x00,	0x00,	0x00,	0x00,	//3-11 
.................... 0x00,	0x00,	0x00,	0x00,	0x00,	0x00,	0x00,	0x00,	0x00,	0x00,	0x00,	0x00,	0x00,	0x00,	0x00,	0x00,	//3-12 
.................... 0x00,	0x00,	0x00,	0x00,	0x00,	0x00,	0x00,	0x00,	0x00,	0x00,	0x00,	0x00,	0x00,	0x00,	0x00,	0x00,	//3-13 
.................... 0x00,	0x00,	0x00,	0x00,	0x00,	0x00,	0x00,	0x00,	0x00,	0x00,	0x00,	0x00,	0x00,	0x00,	0x00,	0x00,	//3-14 
.................... 0x00,	0x00,	0x00,	0x00,	0x00,	0x00,	0x00,	0x00,	0x00,	0x00,	0x00,	0x00,	0x00,	0x00,	0x00,	0x00,	//3-15 
.................... 0x00,	0x00,	0x00,	0x00,	0x00,	0x00,	0x00,	0x00,	0x00,	0x00,	0x00,	0x00,	0x00,	0x00,	0x00,	0x00	//3-16 
.................... },{																 
.................... 0x00,	0x00,	0x00,	0x00,	0x00,	0x00,	0x00,	0x00,	0x00,	0x00,	0x00,	0x00,	0x00,	0x00,	0x00,	0x00,	//4-1 
.................... 0x00,	0x00,	0x00,	0x00,	0x00,	0x00,	0x00,	0x00,	0x00,	0x00,	0x00,	0x00,	0x00,	0x00,	0x00,	0x00,	//4-2 
.................... 0x00,	0x00,	0x00,	0x00,	0x00,	0x00,	0x00,	0x00,	0x00,	0x00,	0x00,	0x00,	0x00,	0x00,	0x00,	0x00,	//4-3 
.................... 0x00,	0x00,	0x00,	0x00,	0x00,	0x00,	0x00,	0x00,	0x00,	0x00,	0x00,	0x00,	0x00,	0x00,	0x00,	0x00,	//4-4 
.................... 0x00,	0x00,	0x00,	0x00,	0x00,	0x00,	0x00,	0x00,	0x00,	0x00,	0x00,	0x00,	0x00,	0x00,	0x00,	0x00,	//4-5 
.................... 0x00,	0x00,	0x00,	0x00,	0x00,	0x00,	0x00,	0x00,	0x00,	0x00,	0x00,	0x00,	0x00,	0x00,	0x00,	0x00,	//4-6 
.................... 0x00,	0x00,	0x00,	0x00,	0x00,	0x00,	0x00,	0x00,	0x00,	0x00,	0x00,	0x00,	0x00,	0x00,	0x00,	0x00,	//4-7 
.................... 0x00,	0x00,	0x00,	0x00,	0x00,	0x00,	0x00,	0x00,	0x00,	0x00,	0x00,	0x00,	0x00,	0x00,	0x00,	0x00,	//4-8 
.................... 0x00,	0x00,	0x00,	0x00,	0x00,	0x00,	0x00,	0x00,	0x00,	0x00,	0x00,	0x00,	0x00,	0x00,	0x00,	0x00,	//4-9 
.................... 0x00,	0x00,	0x00,	0x00,	0x00,	0x00,	0x00,	0x00,	0x00,	0x00,	0x00,	0x00,	0x00,	0x00,	0x00,	0x00,	//4-10 
.................... 0x00,	0x00,	0x00,	0x00,	0x00,	0x00,	0x00,	0x00,	0x00,	0x00,	0x00,	0x00,	0x00,	0x00,	0x00,	0x00,	//4-11 
.................... 0x00,	0x00,	0x00,	0x00,	0x00,	0x00,	0x00,	0x00,	0x00,	0x00,	0x00,	0x00,	0x00,	0x00,	0x00,	0x00,	//4-12 
.................... 0x00,	0x00,	0x00,	0x00,	0x00,	0x00,	0x00,	0x00,	0x00,	0x00,	0x00,	0x00,	0x00,	0x00,	0x00,	0x00,	//4-13 
.................... 0x00,	0x00,	0x00,	0x00,	0x00,	0x00,	0x00,	0x00,	0x00,	0x00,	0x00,	0x00,	0x00,	0x00,	0x00,	0x00,	//4-14 
.................... 0x00,	0x00,	0x00,	0x00,	0x00,	0x00,	0x00,	0x00,	0x00,	0x00,	0x00,	0x00,	0x00,	0x00,	0x00,	0x00,	//4-15 
.................... 0x00,	0x00,	0x00,	0x00,	0x00,	0x00,	0x00,	0x00,	0x00,	0x00,	0x00,	0x00,	0x00,	0x00,	0x00,	0x00	//4-16 
.................... },{																 
.................... 0x00,	0x00,	0x00,	0x00,	0x00,	0x00,	0x00,	0x00,	0x00,	0x00,	0x00,	0x00,	0x00,	0x00,	0x00,	0x00,	//5-1 
.................... 0x00,	0x00,	0x00,	0x00,	0x00,	0x00,	0x00,	0x00,	0x00,	0x00,	0x00,	0x00,	0x00,	0x00,	0x00,	0x00,	//5-2 
.................... 0x00,	0x00,	0x00,	0x00,	0x00,	0x00,	0x00,	0x00,	0x00,	0x00,	0x00,	0x00,	0x00,	0x00,	0x00,	0x00,	//5-3 
.................... 0x00,	0x00,	0x00,	0x00,	0x00,	0x00,	0x00,	0x00,	0x00,	0x00,	0x00,	0x00,	0x00,	0x00,	0x00,	0x00,	//5-4 
.................... 0x00,	0x00,	0x00,	0x00,	0x00,	0x00,	0x00,	0x00,	0x00,	0x00,	0x00,	0x00,	0x00,	0x00,	0x00,	0x00,	//5-5 
.................... 0x00,	0x00,	0x00,	0x00,	0x00,	0x00,	0x00,	0x00,	0x00,	0x00,	0x00,	0x00,	0x00,	0x00,	0x00,	0x00,	//5-6 
.................... 0x00,	0x00,	0x00,	0x00,	0x00,	0x00,	0x00,	0x00,	0x00,	0x00,	0x00,	0x00,	0x00,	0x00,	0x00,	0x00,	//5-7 
.................... 0x00,	0x00,	0x00,	0x00,	0x00,	0x00,	0x00,	0x00,	0x00,	0x00,	0x00,	0x00,	0x00,	0x00,	0x00,	0x00,	//5-8 
.................... 0x00,	0x00,	0x00,	0x00,	0x00,	0x00,	0x00,	0x00,	0x00,	0x00,	0x00,	0x00,	0x00,	0x00,	0x00,	0x00,	//5-9 
.................... 0x00,	0x00,	0x00,	0x00,	0x00,	0x00,	0x00,	0x00,	0x00,	0x00,	0x00,	0x00,	0x00,	0x00,	0x00,	0x00,	//5-10 
.................... 0x00,	0x00,	0x00,	0x00,	0x00,	0x00,	0x00,	0x00,	0x00,	0x00,	0x00,	0x00,	0x00,	0x00,	0x00,	0x00,	//5-11 
.................... 0x00,	0x00,	0x00,	0x00,	0x00,	0x00,	0x00,	0x00,	0x00,	0x00,	0x00,	0x00,	0x00,	0x00,	0x00,	0x00,	//5-12 
.................... 0x00,	0x00,	0x00,	0x00,	0x00,	0x00,	0x00,	0x00,	0x00,	0x00,	0x00,	0x00,	0x00,	0x00,	0x00,	0x00,	//5-13 
.................... 0x00,	0x00,	0x00,	0x00,	0x00,	0x00,	0x00,	0x00,	0x00,	0x00,	0x00,	0x00,	0x00,	0x00,	0x00,	0x00,	//5-14 
.................... 0x00,	0x00,	0x00,	0x00,	0x00,	0x00,	0x00,	0x00,	0x00,	0x00,	0x00,	0x00,	0x00,	0x00,	0x00,	0x00,	//5-15 
.................... 0x00,	0x00,	0x00,	0x00,	0x00,	0x00,	0x00,	0x00,	0x00,	0x00,	0x00,	0x00,	0x00,	0x00,	0x00,	0x00	//5-16 
.................... },{																 
.................... 0x00,	0x00,	0x00,	0x00,	0x00,	0x00,	0x00,	0x00,	0x00,	0x00,	0x00,	0x00,	0x00,	0x00,	0x00,	0x00,	//6-1 
.................... 0x00,	0x00,	0x00,	0x00,	0x00,	0x00,	0x00,	0x00,	0x00,	0x00,	0x00,	0x00,	0x00,	0x00,	0x00,	0x00,	//6-2 
.................... 0x00,	0x00,	0x00,	0x00,	0x00,	0x00,	0x00,	0x00,	0x00,	0x00,	0x00,	0x00,	0x00,	0x00,	0x00,	0x00,	//6-3 
.................... 0x00,	0x00,	0x00,	0x00,	0x00,	0x00,	0x00,	0x00,	0x00,	0x00,	0x00,	0x00,	0x00,	0x00,	0x00,	0x00,	//6-4 
.................... 0x00,	0x00,	0x00,	0x00,	0x00,	0x00,	0x00,	0x00,	0x00,	0x00,	0x00,	0x00,	0x00,	0x00,	0x00,	0x00,	//6-5 
.................... 0x00,	0x00,	0x00,	0x00,	0x00,	0x00,	0x00,	0x00,	0x00,	0x00,	0x00,	0x00,	0x00,	0x00,	0x00,	0x00,	//6-6 
.................... 0x00,	0x00,	0x00,	0x00,	0x00,	0x00,	0x00,	0x00,	0x00,	0x00,	0x00,	0x00,	0x00,	0x00,	0x00,	0x00,	//6-7 
.................... 0x00,	0x00,	0x00,	0x00,	0x00,	0x00,	0x00,	0x00,	0x00,	0x00,	0x00,	0x00,	0x00,	0x00,	0x00,	0x00,	//6-8 
.................... 0x00,	0x00,	0x00,	0x00,	0x00,	0x00,	0x00,	0x00,	0x00,	0x00,	0x00,	0x00,	0x00,	0x00,	0x00,	0x00,	//6-9 
.................... 0x00,	0x00,	0x00,	0x00,	0x00,	0x00,	0x00,	0x00,	0x00,	0x00,	0x00,	0x00,	0x00,	0x00,	0x00,	0x00,	//6-10 
.................... 0x00,	0x00,	0x00,	0x00,	0x00,	0x00,	0x00,	0x00,	0x00,	0x00,	0x00,	0x00,	0x00,	0x00,	0x00,	0x00,	//6-11 
.................... 0x00,	0x00,	0x00,	0x00,	0x00,	0x00,	0x00,	0x00,	0x00,	0x00,	0x00,	0x00,	0x00,	0x00,	0x00,	0x00,	//6-12 
.................... 0x00,	0x00,	0x00,	0x00,	0x00,	0x00,	0x00,	0x00,	0x00,	0x00,	0x00,	0x00,	0x00,	0x00,	0x00,	0x00,	//6-13 
.................... 0x00,	0x00,	0x00,	0x00,	0x00,	0x00,	0x00,	0x00,	0x00,	0x00,	0x00,	0x00,	0x00,	0x00,	0x00,	0x00,	//6-14 
.................... 0x00,	0x00,	0x00,	0x00,	0x00,	0x00,	0x00,	0x00,	0x00,	0x00,	0x00,	0x00,	0x00,	0x00,	0x00,	0x00,	//6-15 
.................... 0x00,	0x00,	0x00,	0x00,	0x00,	0x00,	0x00,	0x00,	0x00,	0x00,	0x00,	0x00,	0x00,	0x00,	0x00,	0x00	//6-16 
.................... },{																 
.................... 0x00,	0x00,	0x00,	0x00,	0x00,	0x00,	0x00,	0x00,	0x00,	0x00,	0x00,	0x00,	0x00,	0x00,	0x00,	0x00,	//7-1 
.................... 0x00,	0x00,	0x00,	0x00,	0x00,	0x00,	0x00,	0x00,	0x00,	0x00,	0x00,	0x00,	0x00,	0x00,	0x00,	0x00,	//7-2 
.................... 0x00,	0x00,	0x00,	0x00,	0x00,	0x00,	0x00,	0x00,	0x00,	0x00,	0x00,	0x00,	0x00,	0x00,	0x00,	0x00,	//7-3 
.................... 0x00,	0x00,	0x00,	0x00,	0x00,	0x00,	0x00,	0x00,	0x00,	0x00,	0x00,	0x00,	0x00,	0x00,	0x00,	0x00,	//7-4 
.................... 0x00,	0x00,	0x00,	0x00,	0x00,	0x00,	0x00,	0x00,	0x00,	0x00,	0x00,	0x00,	0x00,	0x00,	0x00,	0x00,	//7-5 
.................... 0x00,	0x00,	0x00,	0x00,	0x00,	0x00,	0x00,	0x00,	0x00,	0x00,	0x00,	0x00,	0x00,	0x00,	0x00,	0x00,	//7-6 
.................... 0x00,	0x00,	0x00,	0x00,	0x00,	0x00,	0x00,	0x00,	0x00,	0x00,	0x00,	0x00,	0x00,	0x00,	0x00,	0x00,	//7-7 
.................... 0x00,	0x00,	0x00,	0x00,	0x00,	0x00,	0x00,	0x00,	0x00,	0x00,	0x00,	0x00,	0x00,	0x00,	0x00,	0x00,	//7-8 
.................... 0x00,	0x00,	0x00,	0x00,	0x00,	0x00,	0x00,	0x00,	0x00,	0x00,	0x00,	0x00,	0x00,	0x00,	0x00,	0x00,	//7-9 
.................... 0x00,	0x00,	0x00,	0x00,	0x00,	0x00,	0x00,	0x00,	0x00,	0x00,	0x00,	0x00,	0x00,	0x00,	0x00,	0x00,	//7-10 
.................... 0x00,	0x00,	0x00,	0x00,	0x00,	0x00,	0x00,	0x00,	0x00,	0x00,	0x00,	0x00,	0x00,	0x00,	0x00,	0x00,	//7-11 
.................... 0x00,	0x00,	0x00,	0x00,	0x00,	0x00,	0x00,	0x00,	0x00,	0x00,	0x00,	0x00,	0x00,	0x00,	0x00,	0x00,	//7-12 
.................... 0x00,	0x00,	0x00,	0x00,	0x00,	0x00,	0x00,	0x00,	0x00,	0x00,	0x00,	0x00,	0x00,	0x00,	0x00,	0x00,	//7-13 
.................... 0x00,	0x00,	0x00,	0x00,	0x00,	0x00,	0x00,	0x00,	0x00,	0x00,	0x00,	0x00,	0x00,	0x00,	0x00,	0x00,	//7-14 
.................... 0x00,	0x00,	0x00,	0x00,	0x00,	0x00,	0x00,	0x00,	0x00,	0x00,	0x00,	0x00,	0x00,	0x00,	0x00,	0x00,	//7-15 
.................... 0x00,	0x00,	0x00,	0x00,	0x00,	0x00,	0x00,	0x00,	0x00,	0x00,	0x00,	0x00,	0x00,	0x00,	0x00,	0x00	//7-16 
.................... },{																 
.................... 0x00,	0x00,	0x00,	0x00,	0x00,	0x00,	0x00,	0x00,	0x00,	0x00,	0x00,	0x00,	0x00,	0x00,	0x00,	0x00,	//8-1 
.................... 0x00,	0x00,	0x00,	0x00,	0x00,	0x00,	0x00,	0x00,	0x00,	0x00,	0x00,	0x00,	0x00,	0x00,	0x00,	0x00,	//8-2 
.................... 0x00,	0x00,	0x00,	0x00,	0x00,	0x00,	0x00,	0x00,	0x00,	0x00,	0x00,	0x00,	0x00,	0x00,	0x00,	0x00,	//8-3 
.................... 0x00,	0x00,	0x00,	0x00,	0x00,	0x00,	0x00,	0x00,	0x00,	0x00,	0x00,	0x00,	0x00,	0x00,	0x00,	0x00,	//8-4 
.................... 0x00,	0x00,	0x00,	0x00,	0x00,	0x00,	0x00,	0x00,	0x00,	0x00,	0x00,	0x00,	0x00,	0x00,	0x00,	0x00,	//8-5 
.................... 0x00,	0x00,	0x00,	0x00,	0x00,	0x00,	0x00,	0x00,	0x00,	0x00,	0x00,	0x00,	0x00,	0x00,	0x00,	0x00,	//8-6 
.................... 0x00,	0x00,	0x00,	0x00,	0x00,	0x00,	0x00,	0x00,	0x00,	0x00,	0x00,	0x00,	0x00,	0x00,	0x00,	0x00,	//8-7 
.................... 0x00,	0x00,	0x00,	0x00,	0x00,	0x00,	0x00,	0x00,	0x00,	0x00,	0x00,	0x00,	0x00,	0x00,	0x00,	0x00,	//8-8 
.................... 0x00,	0x00,	0x00,	0x00,	0x00,	0x00,	0x00,	0x00,	0x00,	0x00,	0x00,	0x00,	0x00,	0x00,	0x00,	0x00,	//8-9 
.................... 0x00,	0x00,	0x00,	0x00,	0x00,	0x00,	0x00,	0x00,	0x00,	0x00,	0x00,	0x00,	0x00,	0x00,	0x00,	0x00,	//8-10 
.................... 0x00,	0x00,	0x00,	0x00,	0x00,	0x00,	0x00,	0x00,	0x00,	0x00,	0x00,	0x00,	0x00,	0x00,	0x00,	0x00,	//8-11 
.................... 0x00,	0x00,	0x00,	0x00,	0x00,	0x00,	0x00,	0x00,	0x00,	0x00,	0x00,	0x00,	0x00,	0x00,	0x00,	0x00,	//8-12 
.................... 0x00,	0x00,	0x00,	0x00,	0x00,	0x00,	0x00,	0x00,	0x00,	0x00,	0x00,	0x00,	0x00,	0x00,	0x00,	0x00,	//8-13 
.................... 0x00,	0x00,	0x00,	0x00,	0x00,	0x00,	0x00,	0x00,	0x00,	0x00,	0x00,	0x00,	0x00,	0x00,	0x00,	0x00,	//8-14 
.................... 0x00,	0x00,	0x00,	0x00,	0x00,	0x00,	0x00,	0x00,	0x00,	0x00,	0x00,	0x00,	0x00,	0x00,	0x00,	0x00,	//8-15 
.................... 0x00,	0x00,	0x00,	0x00,	0x00,	0x00,	0x00,	0x00,	0x00,	0x00,	0x00,	0x00,	0x00,	0x00,	0x00,	0x00	//8-16 
.................... },{																 
.................... 0x00,	0x00,	0x00,	0x00,	0x00,	0x00,	0x00,	0x00,	0x00,	0x00,	0x00,	0x00,	0x00,	0x00,	0x00,	0x00,	//9-1 
.................... 0x00,	0x00,	0x00,	0x00,	0x00,	0x00,	0x00,	0x00,	0x00,	0x00,	0x00,	0x00,	0x00,	0x00,	0x00,	0x00,	//9-2 
.................... 0x00,	0x00,	0x00,	0x00,	0x00,	0x00,	0x00,	0x00,	0x00,	0x00,	0x00,	0x00,	0x00,	0x00,	0x00,	0x00,	//9-3 
.................... 0x00,	0x00,	0x00,	0x00,	0x00,	0x00,	0x00,	0x00,	0x00,	0x00,	0x00,	0x00,	0x00,	0x00,	0x00,	0x00,	//9-4 
.................... 0x00,	0x00,	0x00,	0x00,	0x00,	0x00,	0x00,	0x00,	0x00,	0x00,	0x00,	0x00,	0x00,	0x00,	0x00,	0x00,	//9-5 
.................... 0x00,	0x00,	0x00,	0x00,	0x00,	0x00,	0x00,	0x00,	0x00,	0x00,	0x00,	0x00,	0x00,	0x00,	0x00,	0x00,	//9-6 
.................... 0x00,	0x00,	0x00,	0x00,	0x00,	0x00,	0x00,	0x00,	0x00,	0x00,	0x00,	0x00,	0x00,	0x00,	0x00,	0x00,	//9-7 
.................... 0x00,	0x00,	0x00,	0x00,	0x00,	0x00,	0x00,	0x00,	0x00,	0x00,	0x00,	0x00,	0x00,	0x00,	0x00,	0x00,	//9-8 
.................... 0x00,	0x00,	0x00,	0x00,	0x00,	0x00,	0x00,	0x00,	0x00,	0x00,	0x00,	0x00,	0x00,	0x00,	0x00,	0x00,	//9-9 
.................... 0x00,	0x00,	0x00,	0x00,	0x00,	0x00,	0x00,	0x00,	0x00,	0x00,	0x00,	0x00,	0x00,	0x00,	0x00,	0x00,	//9-10 
.................... 0x00,	0x00,	0x00,	0x00,	0x00,	0x00,	0x00,	0x00,	0x00,	0x00,	0x00,	0x00,	0x00,	0x00,	0x00,	0x00,	//9-11 
.................... 0x00,	0x00,	0x00,	0x00,	0x00,	0x00,	0x00,	0x00,	0x00,	0x00,	0x00,	0x00,	0x00,	0x00,	0x00,	0x00,	//9-12 
.................... 0x00,	0x00,	0x00,	0x00,	0x00,	0x00,	0x00,	0x00,	0x00,	0x00,	0x00,	0x00,	0x00,	0x00,	0x00,	0x00,	//9-13 
.................... 0x00,	0x00,	0x00,	0x00,	0x00,	0x00,	0x00,	0x00,	0x00,	0x00,	0x00,	0x00,	0x00,	0x00,	0x00,	0x00,	//9-14 
.................... 0x00,	0x00,	0x00,	0x00,	0x00,	0x00,	0x00,	0x00,	0x00,	0x00,	0x00,	0x00,	0x00,	0x00,	0x00,	0x00,	//9-15 
.................... 0x00,	0x00,	0x00,	0x00,	0x00,	0x00,	0x00,	0x00,	0x00,	0x00,	0x00,	0x00,	0x00,	0x00,	0x00,	0x00	//9-16 
.................... },{																 
.................... 0x00,	0x00,	0x00,	0x00,	0x00,	0x00,	0x00,	0x00,	0x00,	0x00,	0x00,	0x00,	0x00,	0x00,	0x00,	0x00,	//10-1 
.................... 0x00,	0x00,	0x00,	0x00,	0x00,	0x00,	0x00,	0x00,	0x00,	0x00,	0x00,	0x00,	0x00,	0x00,	0x00,	0x00,	//10-2 
.................... 0x00,	0x00,	0x00,	0x00,	0x00,	0x00,	0x00,	0x00,	0x00,	0x00,	0x00,	0x00,	0x00,	0x00,	0x00,	0x00,	//10-3 
.................... 0x00,	0x00,	0x00,	0x00,	0x00,	0x00,	0x00,	0x00,	0x00,	0x00,	0x00,	0x00,	0x00,	0x00,	0x00,	0x00,	//10-4 
.................... 0x00,	0x00,	0x00,	0x00,	0x00,	0x00,	0x00,	0x00,	0x00,	0x00,	0x00,	0x00,	0x00,	0x00,	0x00,	0x00,	//10-5 
.................... 0x00,	0x00,	0x00,	0x00,	0x00,	0x00,	0x00,	0x00,	0x00,	0x00,	0x00,	0x00,	0x00,	0x00,	0x00,	0x00,	//10-6 
.................... 0x00,	0x00,	0x00,	0x00,	0x00,	0x00,	0x00,	0x00,	0x00,	0x00,	0x00,	0x00,	0x00,	0x00,	0x00,	0x00,	//10-7 
.................... 0x00,	0x00,	0x00,	0x00,	0x00,	0x00,	0x00,	0x00,	0x00,	0x00,	0x00,	0x00,	0x00,	0x00,	0x00,	0x00,	//10-8 
.................... 0x00,	0x00,	0x00,	0x00,	0x00,	0x00,	0x00,	0x00,	0x00,	0x00,	0x00,	0x00,	0x00,	0x00,	0x00,	0x00,	//10-9 
.................... 0x00,	0x00,	0x00,	0x00,	0x00,	0x00,	0x00,	0x00,	0x00,	0x00,	0x00,	0x00,	0x00,	0x00,	0x00,	0x00,	//10-10 
.................... 0x00,	0x00,	0x00,	0x00,	0x00,	0x00,	0x00,	0x00,	0x00,	0x00,	0x00,	0x00,	0x00,	0x00,	0x00,	0x00,	//10-11 
.................... 0x00,	0x00,	0x00,	0x00,	0x00,	0x00,	0x00,	0x00,	0x00,	0x00,	0x00,	0x00,	0x00,	0x00,	0x00,	0x00,	//10-12 
.................... 0x00,	0x00,	0x00,	0x00,	0x00,	0x00,	0x00,	0x00,	0x00,	0x00,	0x00,	0x00,	0x00,	0x00,	0x00,	0x00,	//10-13 
.................... 0x00,	0x00,	0x00,	0x00,	0x00,	0x00,	0x00,	0x00,	0x00,	0x00,	0x00,	0x00,	0x00,	0x00,	0x00,	0x00,	//10-14 
.................... 0x00,	0x00,	0x00,	0x00,	0x00,	0x00,	0x00,	0x00,	0x00,	0x00,	0x00,	0x00,	0x00,	0x00,	0x00,	0x00,	//10-15 
.................... 0x00,	0x00,	0x00,	0x00,	0x00,	0x00,	0x00,	0x00,	0x00,	0x00,	0x00,	0x00,	0x00,	0x00,	0x00,	0x00	//10-16 
.................... },{																 
.................... 0x00,	0x00,	0x00,	0x00,	0x00,	0x00,	0x00,	0x00,	0x00,	0x00,	0x00,	0x00,	0x00,	0x00,	0x00,	0x00,	//11-1 
.................... 0x00,	0x00,	0x00,	0x00,	0x00,	0x00,	0x00,	0x00,	0x00,	0x00,	0x00,	0x00,	0x00,	0x00,	0x00,	0x00,	//11-2 
.................... 0x00,	0x00,	0x00,	0x00,	0x00,	0x00,	0x00,	0x00,	0x00,	0x00,	0x00,	0x00,	0x00,	0x00,	0x00,	0x00,	//11-3 
.................... 0x00,	0x00,	0x00,	0x00,	0x00,	0x00,	0x00,	0x00,	0x00,	0x00,	0x00,	0x00,	0x00,	0x00,	0x00,	0x00,	//11-4 
.................... 0x00,	0x00,	0x00,	0x00,	0x00,	0x00,	0x00,	0x00,	0x00,	0x00,	0x00,	0x00,	0x00,	0x00,	0x00,	0x00,	//11-5 
.................... 0x00,	0x00,	0x00,	0x00,	0x00,	0x00,	0x00,	0x00,	0x00,	0x00,	0x00,	0x00,	0x00,	0x00,	0x00,	0x00,	//11-6 
.................... 0x00,	0x00,	0x00,	0x00,	0x00,	0x00,	0x00,	0x00,	0x00,	0x00,	0x00,	0x00,	0x00,	0x00,	0x00,	0x00,	//11-7 
.................... 0x00,	0x00,	0x00,	0x00,	0x00,	0x00,	0x00,	0x00,	0x00,	0x00,	0x00,	0x00,	0x00,	0x00,	0x00,	0x00,	//11-8 
.................... 0x00,	0x00,	0x00,	0x00,	0x00,	0x00,	0x00,	0x00,	0x00,	0x00,	0x00,	0x00,	0x00,	0x00,	0x00,	0x00,	//11-9 
.................... 0x00,	0x00,	0x00,	0x00,	0x00,	0x00,	0x00,	0x00,	0x00,	0x00,	0x00,	0x00,	0x00,	0x00,	0x00,	0x00,	//11-10 
.................... 0x00,	0x00,	0x00,	0x00,	0x00,	0x00,	0x00,	0x00,	0x00,	0x00,	0x00,	0x00,	0x00,	0x00,	0x00,	0x00,	//11-11 
.................... 0x00,	0x00,	0x00,	0x00,	0x00,	0x00,	0x00,	0x00,	0x00,	0x00,	0x00,	0x00,	0x00,	0x00,	0x00,	0x00,	//11-12 
.................... 0x00,	0x00,	0x00,	0x00,	0x00,	0x00,	0x00,	0x00,	0x00,	0x00,	0x00,	0x00,	0x00,	0x00,	0x00,	0x00,	//11-13 
.................... 0x00,	0x00,	0x00,	0x00,	0x00,	0x00,	0x00,	0x00,	0x00,	0x00,	0x00,	0x00,	0x00,	0x00,	0x00,	0x00,	//11-14 
.................... 0x00,	0x00,	0x00,	0x00,	0x00,	0x00,	0x00,	0x00,	0x00,	0x00,	0x00,	0x00,	0x00,	0x00,	0x00,	0x00,	//11-15 
.................... 0x00,	0x00,	0x00,	0x00,	0x00,	0x00,	0x00,	0x00,	0x00,	0x00,	0x00,	0x00,	0x00,	0x00,	0x00,	0x00	//11-16 
.................... },{																 
.................... 0x00,	0x00,	0x00,	0x00,	0x00,	0x00,	0x00,	0x00,	0x00,	0x00,	0x00,	0x00,	0x00,	0x00,	0x00,	0x00,	//12-1 
.................... 0x00,	0x00,	0x00,	0x00,	0x00,	0x00,	0x00,	0x00,	0x00,	0x00,	0x00,	0x00,	0x00,	0x00,	0x00,	0x00,	//12-2 
.................... 0x00,	0x00,	0x00,	0x00,	0x00,	0x00,	0x00,	0x00,	0x00,	0x00,	0x00,	0x00,	0x00,	0x00,	0x00,	0x00,	//12-3 
.................... 0x00,	0x00,	0x00,	0x00,	0x00,	0x00,	0x00,	0x00,	0x00,	0x00,	0x00,	0x00,	0x00,	0x00,	0x00,	0x00,	//12-4 
.................... 0x00,	0x00,	0x00,	0x00,	0x00,	0x00,	0x00,	0x00,	0x00,	0x00,	0x00,	0x00,	0x00,	0x00,	0x00,	0x00,	//12-5 
.................... 0x00,	0x00,	0x00,	0x00,	0x00,	0x00,	0x00,	0x00,	0x00,	0x00,	0x00,	0x00,	0x00,	0x00,	0x00,	0x00,	//12-6 
.................... 0x00,	0x00,	0x00,	0x00,	0x00,	0x00,	0x00,	0x00,	0x00,	0x00,	0x00,	0x00,	0x00,	0x00,	0x00,	0x00,	//12-7 
.................... 0x00,	0x00,	0x00,	0x00,	0x00,	0x00,	0x00,	0x00,	0x00,	0x00,	0x00,	0x00,	0x00,	0x00,	0x00,	0x00,	//12-8 
.................... 0x00,	0x00,	0x00,	0x00,	0x00,	0x00,	0x00,	0x00,	0x00,	0x00,	0x00,	0x00,	0x00,	0x00,	0x00,	0x00,	//12-9 
.................... 0x00,	0x00,	0x00,	0x00,	0x00,	0x00,	0x00,	0x00,	0x00,	0x00,	0x00,	0x00,	0x00,	0x00,	0x00,	0x00,	//12-10 
.................... 0x00,	0x00,	0x00,	0x00,	0x00,	0x00,	0x00,	0x00,	0x00,	0x00,	0x00,	0x00,	0x00,	0x00,	0x00,	0x00,	//12-11 
.................... 0x00,	0x00,	0x00,	0x00,	0x00,	0x00,	0x00,	0x00,	0x00,	0x00,	0x00,	0x00,	0x00,	0x00,	0x00,	0x00,	//12-12 
.................... 0x00,	0x00,	0x00,	0x00,	0x00,	0x00,	0x00,	0x00,	0x00,	0x00,	0x00,	0x00,	0x00,	0x00,	0x00,	0x00,	//12-13 
.................... 0x00,	0x00,	0x00,	0x00,	0x00,	0x00,	0x00,	0x00,	0x00,	0x00,	0x00,	0x00,	0x00,	0x00,	0x00,	0x00,	//12-14 
.................... 0x00,	0x00,	0x00,	0x00,	0x00,	0x00,	0x00,	0x00,	0x00,	0x00,	0x00,	0x00,	0x00,	0x00,	0x00,	0x00,	//12-15 
.................... 0x00,	0x00,	0x00,	0x00,	0x00,	0x00,	0x00,	0x00,	0x00,	0x00,	0x00,	0x00,	0x00,	0x00,	0x00,	0x00	//12-16 
.................... },{																 
.................... 0x00,	0x00,	0x00,	0x00,	0x00,	0x00,	0x00,	0x00,	0x00,	0x00,	0x00,	0x00,	0x00,	0x00,	0x00,	0x00,	//13-1 
.................... 0x00,	0x00,	0x00,	0x00,	0x00,	0x00,	0x00,	0x00,	0x00,	0x00,	0x00,	0x00,	0x00,	0x00,	0x00,	0x00,	//13-2 
.................... 0x00,	0x00,	0x00,	0x00,	0x00,	0x00,	0x00,	0x00,	0x00,	0x00,	0x00,	0x00,	0x00,	0x00,	0x00,	0x00,	//13-3 
.................... 0x00,	0x00,	0x00,	0x00,	0x00,	0x00,	0x00,	0x00,	0x00,	0x00,	0x00,	0x00,	0x00,	0x00,	0x00,	0x00,	//13-4 
.................... 0x00,	0x00,	0x00,	0x00,	0x00,	0x00,	0x00,	0x00,	0x00,	0x00,	0x00,	0x00,	0x00,	0x00,	0x00,	0x00,	//13-5 
.................... 0x00,	0x00,	0x00,	0x00,	0x00,	0x00,	0x00,	0x00,	0x00,	0x00,	0x00,	0x00,	0x00,	0x00,	0x00,	0x00,	//13-6 
.................... 0x00,	0x00,	0x00,	0x00,	0x00,	0x00,	0x00,	0x00,	0x00,	0x00,	0x00,	0x00,	0x00,	0x00,	0x00,	0x00,	//13-7 
.................... 0x00,	0x00,	0x00,	0x00,	0x00,	0x00,	0x00,	0x00,	0x00,	0x00,	0x00,	0x00,	0x00,	0x00,	0x00,	0x00,	//13-8 
.................... 0x00,	0x00,	0x00,	0x00,	0x00,	0x00,	0x00,	0x00,	0x00,	0x00,	0x00,	0x00,	0x00,	0x00,	0x00,	0x00,	//13-9 
.................... 0x00,	0x00,	0x00,	0x00,	0x00,	0x00,	0x00,	0x00,	0x00,	0x00,	0x00,	0x00,	0x00,	0x00,	0x00,	0x00,	//13-10 
.................... 0x00,	0x00,	0x00,	0x00,	0x00,	0x00,	0x00,	0x00,	0x00,	0x00,	0x00,	0x00,	0x00,	0x00,	0x00,	0x00,	//13-11 
.................... 0x00,	0x00,	0x00,	0x00,	0x00,	0x00,	0x00,	0x00,	0x00,	0x00,	0x00,	0x00,	0x00,	0x00,	0x00,	0x00,	//13-12 
.................... 0x00,	0x00,	0x00,	0x00,	0x00,	0x00,	0x00,	0x00,	0x00,	0x00,	0x00,	0x00,	0x00,	0x00,	0x00,	0x00,	//13-13 
.................... 0x00,	0x00,	0x00,	0x00,	0x00,	0x00,	0x00,	0x00,	0x00,	0x00,	0x00,	0x00,	0x00,	0x00,	0x00,	0x00,	//13-14 
.................... 0x00,	0x00,	0x00,	0x00,	0x00,	0x00,	0x00,	0x00,	0x00,	0x00,	0x00,	0x00,	0x00,	0x00,	0x00,	0x00,	//13-15 
.................... 0x00,	0x00,	0x00,	0x00,	0x00,	0x00,	0x00,	0x00,	0x00,	0x00,	0x00,	0x00,	0x00,	0x00,	0x00,	0x00	//13-16 
.................... },{																 
.................... 0x00,	0x00,	0x00,	0x00,	0x00,	0x00,	0x00,	0x00,	0x00,	0x00,	0x00,	0x00,	0x00,	0x00,	0x00,	0x00,	//14-1 
.................... 0x00,	0x00,	0x00,	0x00,	0x00,	0x00,	0x00,	0x00,	0x00,	0x00,	0x00,	0x00,	0x00,	0x00,	0x00,	0x00,	//14-2 
.................... 0x00,	0x00,	0x00,	0x00,	0x00,	0x00,	0x00,	0x00,	0x00,	0x00,	0x00,	0x00,	0x00,	0x00,	0x00,	0x00,	//14-3 
.................... 0x00,	0x00,	0x00,	0x00,	0x00,	0x00,	0x00,	0x00,	0x00,	0x00,	0x00,	0x00,	0x00,	0x00,	0x00,	0x00,	//14-4 
.................... 0x00,	0x00,	0x00,	0x00,	0x00,	0x00,	0x00,	0x00,	0x00,	0x00,	0x00,	0x00,	0x00,	0x00,	0x00,	0x00,	//14-5 
.................... 0x00,	0x00,	0x00,	0x00,	0x00,	0x00,	0x00,	0x00,	0x00,	0x00,	0x00,	0x00,	0x00,	0x00,	0x00,	0x00,	//14-6 
.................... 0x00,	0x00,	0x00,	0x00,	0x00,	0x00,	0x00,	0x00,	0x00,	0x00,	0x00,	0x00,	0x00,	0x00,	0x00,	0x00,	//14-7 
.................... 0x00,	0x00,	0x00,	0x00,	0x00,	0x00,	0x00,	0x00,	0x00,	0x00,	0x00,	0x00,	0x00,	0x00,	0x00,	0x00,	//14-8 
.................... 0x00,	0x00,	0x00,	0x00,	0x00,	0x00,	0x00,	0x00,	0x00,	0x00,	0x00,	0x00,	0x00,	0x00,	0x00,	0x00,	//14-9 
.................... 0x00,	0x00,	0x00,	0x00,	0x00,	0x00,	0x00,	0x00,	0x00,	0x00,	0x00,	0x00,	0x00,	0x00,	0x00,	0x00,	//14-10 
.................... 0x00,	0x00,	0x00,	0x00,	0x00,	0x00,	0x00,	0x00,	0x00,	0x00,	0x00,	0x00,	0x00,	0x00,	0x00,	0x00,	//14-11 
.................... 0x00,	0x00,	0x00,	0x00,	0x00,	0x00,	0x00,	0x00,	0x00,	0x00,	0x00,	0x00,	0x00,	0x00,	0x00,	0x00,	//14-12 
.................... 0x00,	0x00,	0x00,	0x00,	0x00,	0x00,	0x00,	0x00,	0x00,	0x00,	0x00,	0x00,	0x00,	0x00,	0x00,	0x00,	//14-13 
.................... 0x00,	0x00,	0x00,	0x00,	0x00,	0x00,	0x00,	0x00,	0x00,	0x00,	0x00,	0x00,	0x00,	0x00,	0x00,	0x00,	//14-14 
.................... 0x00,	0x00,	0x00,	0x00,	0x00,	0x00,	0x00,	0x00,	0x00,	0x00,	0x00,	0x00,	0x00,	0x00,	0x00,	0x00,	//14-15 
.................... 0x00,	0x00,	0x00,	0x00,	0x00,	0x00,	0x00,	0x00,	0x00,	0x00,	0x00,	0x00,	0x00,	0x00,	0x00,	0x00	//14-16 
.................... },{																 
.................... 0x00,	0x00,	0x00,	0x00,	0x00,	0x00,	0x00,	0x00,	0x00,	0x00,	0x00,	0x00,	0x00,	0x00,	0x00,	0x00,	//15-1 
.................... 0x00,	0xFF,	0xFF,	0x00,	0x00,	0xFF,	0xFF,	0x00,	0x00,	0xFF,	0xFF,	0x00,	0x00,	0xFF,	0xFF,	0x00,	//15-2 
.................... 0x00,	0xFF,	0xFF,	0x00,	0x00,	0xFF,	0xFF,	0x00,	0x00,	0xFF,	0xFF,	0x00,	0x00,	0xFF,	0xFF,	0x00,	//15-3 
.................... 0x00,	0x00,	0x00,	0xFF,	0xFF,	0x00,	0x00,	0xFF,	0xFF,	0x00,	0x00,	0xFF,	0xFF,	0x00,	0x00,	0x00,	//15-4 
.................... 0x00,	0x00,	0x00,	0xFF,	0xFF,	0x00,	0x00,	0xFF,	0xFF,	0x00,	0x00,	0xFF,	0xFF,	0x00,	0x00,	0x00,	//15-5 
.................... 0x00,	0xFF,	0xFF,	0x00,	0x00,	0xFF,	0xFF,	0x00,	0x00,	0xFF,	0xFF,	0x00,	0x00,	0xFF,	0xFF,	0x00,	//15-6 
.................... 0x00,	0xFF,	0xFF,	0x00,	0x00,	0xFF,	0xFF,	0x00,	0x00,	0xFF,	0xFF,	0x00,	0x00,	0xFF,	0xFF,	0x00,	//15-7 
.................... 0x00,	0x00,	0x00,	0xFF,	0xFF,	0x00,	0x00,	0xFF,	0xFF,	0x00,	0x00,	0xFF,	0xFF,	0x00,	0x00,	0x00,	//15-8 
.................... 0x00,	0x00,	0x00,	0xFF,	0xFF,	0x00,	0x00,	0xFF,	0xFF,	0x00,	0x00,	0xFF,	0xFF,	0x00,	0x00,	0x00,	//15-9 
.................... 0x00,	0xFF,	0xFF,	0x00,	0x00,	0xFF,	0xFF,	0x00,	0x00,	0xFF,	0xFF,	0x00,	0x00,	0xFF,	0xFF,	0x00,	//15-10 
.................... 0x00,	0xFF,	0xFF,	0x00,	0x00,	0xFF,	0xFF,	0x00,	0x00,	0xFF,	0xFF,	0x00,	0x00,	0xFF,	0xFF,	0x00,	//15-11 
.................... 0x00,	0x00,	0x00,	0xFF,	0xFF,	0x00,	0x00,	0xFF,	0xFF,	0x00,	0x00,	0xFF,	0xFF,	0x00,	0x00,	0x00,	//15-12 
.................... 0x00,	0x00,	0x00,	0xFF,	0xFF,	0x00,	0x00,	0xFF,	0xFF,	0x00,	0x00,	0xFF,	0xFF,	0x00,	0x00,	0x00,	//15-13 
.................... 0x00,	0xFF,	0xFF,	0x00,	0x00,	0xFF,	0xFF,	0x00,	0x00,	0xFF,	0xFF,	0x00,	0x00,	0xFF,	0xFF,	0x00,	//15-14 
.................... 0x00,	0xFF,	0xFF,	0x00,	0x00,	0xFF,	0xFF,	0x00,	0x00,	0xFF,	0xFF,	0x00,	0x00,	0xFF,	0xFF,	0x00,	//15-15 
.................... 0x00,	0x00,	0x00,	0x00,	0x00,	0x00,	0x00,	0x00,	0x00,	0x00,	0x00,	0x00,	0x00,	0x00,	0x00,	0x00	//15-16 
.................... }};																 
.................... 																 
.................... 																 
.................... 																 
.................... 																 
.................... 																 
.................... 																 
.................... 																 
.................... 																 
.................... 																 
.................... 																 
.................... 																 
.................... 																 
.................... 																 
.................... 																 
.................... 																 
.................... 																 
.................... 																 
.................... 																 
.................... 																 
.................... 																 
.................... 																 
.................... 																 
.................... 																 
.................... 																 
.................... 																 
.................... 																 
.................... 																 
.................... 																 
.................... 																 
.................... 																 
.................... 																 
.................... 																 
.................... 																 
.................... 																 
.................... 																 
.................... 																 
.................... 																 
.................... 																 
.................... 																 
.................... 																 
.................... 																 
.................... 																 
.................... 																 
.................... 																 
.................... 																 
.................... 																 
.................... 																 
.................... 																 
.................... 																 
.................... 																 
.................... 																 
....................  
.................... //		ff 00 00 
.................... //IW	ff b7 4c 
.................... //		ff ff 00 
.................... //		ff ff ff 
.................... //		00 ff 00 
.................... //		00 00 ff 
.................... //		c4 00 cc 
.................... //sN	ef 8f 9c 
....................  
.................... //`FbNp 
.................... int ws281x_buffer_r[257]; 
.................... int ws281x_buffer_g[257]; 
.................... int ws281x_buffer_b[257]; 
....................  
.................... // 
.................... long ws281x_led_value = 256; 
.................... int ws281x_pattern_value = 16;// 
.................... //int ws281x_process_one = 0; 
.................... //long ws281x_step = 0; 
.................... //int ws281x_pattern_index = 0;// 
.................... //int ws281x_mode = 0;// 
.................... //int ws281x_mode_weight = 0;//100~ 
.................... //int ws281x_mode_weight_count = 0;// 
.................... //int ws281x_powereffect = 100;//ol floatH 
.................... int ws281x_status = 0;//mode=30gp 
.................... int ws281x_checkcount = 0;//mode=30gp 
....................  
.................... //J[p^[obt@ 
.................... void ws281x_color_set(int set_index){ 
*
03598:  MOVLB  4
0359A:  CLRF   x3E
0359C:  CLRF   x3D
.................... 	 
.................... 	long tmp1 = 0; 
....................  
.................... 	for(tmp1=0;tmp1<ws281x_led_value;tmp1++){ 
0359E:  CLRF   x3E
035A0:  CLRF   x3D
035A2:  MOVF   x3E,W
035A4:  SUBWF  x26,W
035A6:  BTFSS  FD8.0
035A8:  BRA    3814
035AA:  BNZ   35B4
035AC:  MOVF   x25,W
035AE:  SUBWF  x3D,W
035B0:  BTFSC  FD8.0
035B2:  BRA    3814
.................... 		ws281x_buffer_r[tmp1] = ws281x_color_r[set_index][tmp1]*(led_brightness*0.01); 
035B4:  MOVLW  22
035B6:  ADDWF  x3D,W
035B8:  MOVWF  FE9
035BA:  MOVLW  01
035BC:  ADDWFC x3E,W
035BE:  MOVWF  FEA
035C0:  CLRF   x42
035C2:  MOVFF  43C,441
035C6:  MOVLW  01
035C8:  MOVWF  x44
035CA:  CLRF   x43
035CC:  MOVLB  0
035CE:  RCALL  340E
035D0:  MOVFF  02,442
035D4:  MOVFF  01,441
035D8:  MOVLB  4
035DA:  MOVF   x3D,W
035DC:  ADDWF  01,W
035DE:  MOVWF  01
035E0:  MOVF   x3E,W
035E2:  ADDWFC 02,W
035E4:  MOVWF  03
035E6:  MOVF   01,W
035E8:  MOVFF  03,FF7
035EC:  MOVLB  0
035EE:  CALL   00BA
035F2:  MOVLB  4
035F4:  MOVWF  x41
035F6:  CLRF   x47
035F8:  MOVFF  11F,446
035FC:  MOVLB  0
035FE:  RCALL  3430
03600:  MOVFF  03,449
03604:  MOVFF  02,448
03608:  MOVFF  01,447
0360C:  MOVFF  00,446
03610:  MOVLW  0A
03612:  MOVLB  4
03614:  MOVWF  x4D
03616:  MOVLW  D7
03618:  MOVWF  x4C
0361A:  MOVLW  23
0361C:  MOVWF  x4B
0361E:  MOVLW  78
03620:  MOVWF  x4A
03622:  MOVLB  0
03624:  RCALL  3466
03626:  MOVFF  00,442
0362A:  MOVFF  01,443
0362E:  MOVFF  02,444
03632:  MOVFF  03,445
03636:  MOVLB  4
03638:  CLRF   x47
0363A:  MOVFF  441,446
0363E:  MOVLB  0
03640:  RCALL  3430
03642:  MOVFF  03,449
03646:  MOVFF  02,448
0364A:  MOVFF  01,447
0364E:  MOVFF  00,446
03652:  MOVFF  445,44D
03656:  MOVFF  444,44C
0365A:  MOVFF  443,44B
0365E:  MOVFF  442,44A
03662:  RCALL  3466
03664:  MOVFF  03,449
03668:  MOVFF  02,448
0366C:  MOVFF  01,447
03670:  MOVFF  00,446
03674:  RCALL  355C
03676:  MOVFF  01,FEF
.................... 		ws281x_buffer_g[tmp1] = ws281x_color_g[set_index][tmp1]*(led_brightness*0.01); 
0367A:  MOVLW  23
0367C:  MOVLB  4
0367E:  ADDWF  x3D,W
03680:  MOVWF  FE9
03682:  MOVLW  02
03684:  ADDWFC x3E,W
03686:  MOVWF  FEA
03688:  CLRF   x42
0368A:  MOVFF  43C,441
0368E:  MOVLW  01
03690:  MOVWF  x44
03692:  CLRF   x43
03694:  MOVLB  0
03696:  RCALL  340E
03698:  MOVFF  02,442
0369C:  MOVFF  01,441
036A0:  MOVLB  4
036A2:  MOVF   x3D,W
036A4:  ADDWF  01,W
036A6:  MOVWF  01
036A8:  MOVF   x3E,W
036AA:  ADDWFC 02,W
036AC:  MOVWF  03
036AE:  MOVF   01,W
036B0:  MOVFF  03,FF7
036B4:  MOVLB  0
036B6:  CALL   10C8
036BA:  MOVLB  4
036BC:  MOVWF  x41
036BE:  CLRF   x47
036C0:  MOVFF  11F,446
036C4:  MOVLB  0
036C6:  RCALL  3430
036C8:  MOVFF  03,449
036CC:  MOVFF  02,448
036D0:  MOVFF  01,447
036D4:  MOVFF  00,446
036D8:  MOVLW  0A
036DA:  MOVLB  4
036DC:  MOVWF  x4D
036DE:  MOVLW  D7
036E0:  MOVWF  x4C
036E2:  MOVLW  23
036E4:  MOVWF  x4B
036E6:  MOVLW  78
036E8:  MOVWF  x4A
036EA:  MOVLB  0
036EC:  RCALL  3466
036EE:  MOVFF  00,442
036F2:  MOVFF  01,443
036F6:  MOVFF  02,444
036FA:  MOVFF  03,445
036FE:  MOVLB  4
03700:  CLRF   x47
03702:  MOVFF  441,446
03706:  MOVLB  0
03708:  RCALL  3430
0370A:  MOVFF  03,449
0370E:  MOVFF  02,448
03712:  MOVFF  01,447
03716:  MOVFF  00,446
0371A:  MOVFF  445,44D
0371E:  MOVFF  444,44C
03722:  MOVFF  443,44B
03726:  MOVFF  442,44A
0372A:  RCALL  3466
0372C:  MOVFF  03,449
03730:  MOVFF  02,448
03734:  MOVFF  01,447
03738:  MOVFF  00,446
0373C:  RCALL  355C
0373E:  MOVFF  01,FEF
.................... 		ws281x_buffer_b[tmp1] = ws281x_color_b[set_index][tmp1]*(led_brightness*0.01); 
03742:  MOVLW  24
03744:  MOVLB  4
03746:  ADDWF  x3D,W
03748:  MOVWF  FE9
0374A:  MOVLW  03
0374C:  ADDWFC x3E,W
0374E:  MOVWF  FEA
03750:  CLRF   x42
03752:  MOVFF  43C,441
03756:  MOVLW  01
03758:  MOVWF  x44
0375A:  CLRF   x43
0375C:  MOVLB  0
0375E:  RCALL  340E
03760:  MOVFF  02,442
03764:  MOVFF  01,441
03768:  MOVLB  4
0376A:  MOVF   x3D,W
0376C:  ADDWF  01,W
0376E:  MOVWF  01
03770:  MOVF   x3E,W
03772:  ADDWFC 02,W
03774:  MOVWF  03
03776:  MOVF   01,W
03778:  MOVFF  03,FF7
0377C:  MOVLB  0
0377E:  CALL   20D6
03782:  MOVLB  4
03784:  MOVWF  x41
03786:  CLRF   x47
03788:  MOVFF  11F,446
0378C:  MOVLB  0
0378E:  RCALL  3430
03790:  MOVFF  03,449
03794:  MOVFF  02,448
03798:  MOVFF  01,447
0379C:  MOVFF  00,446
037A0:  MOVLW  0A
037A2:  MOVLB  4
037A4:  MOVWF  x4D
037A6:  MOVLW  D7
037A8:  MOVWF  x4C
037AA:  MOVLW  23
037AC:  MOVWF  x4B
037AE:  MOVLW  78
037B0:  MOVWF  x4A
037B2:  MOVLB  0
037B4:  RCALL  3466
037B6:  MOVFF  00,442
037BA:  MOVFF  01,443
037BE:  MOVFF  02,444
037C2:  MOVFF  03,445
037C6:  MOVLB  4
037C8:  CLRF   x47
037CA:  MOVFF  441,446
037CE:  MOVLB  0
037D0:  RCALL  3430
037D2:  MOVFF  03,449
037D6:  MOVFF  02,448
037DA:  MOVFF  01,447
037DE:  MOVFF  00,446
037E2:  MOVFF  445,44D
037E6:  MOVFF  444,44C
037EA:  MOVFF  443,44B
037EE:  MOVFF  442,44A
037F2:  RCALL  3466
037F4:  MOVFF  03,449
037F8:  MOVFF  02,448
037FC:  MOVFF  01,447
03800:  MOVFF  00,446
03804:  RCALL  355C
03806:  MOVFF  01,FEF
.................... 	} 
0380A:  MOVLB  4
0380C:  INCF   x3D,F
0380E:  BTFSC  FD8.2
03810:  INCF   x3E,F
03812:  BRA    35A2
.................... } 
03814:  MOVLB  0
03816:  RETURN 0
....................  
.................... //J[ 
.................... void ws281x_mode_set(int mode){ 
.................... 	long tmp1 = 0; 
.................... 	long tmp2 = 0; 
.................... 	int tmp_r = 0; 
.................... 	int tmp_g = 0; 
.................... 	int tmp_b = 0; 
....................  
.................... 	//if(ws281x_mode_weight == ws281x_mode_weight_count){ 
.................... 	//	ws281x_mode_weight_count = 0; 
....................  
.................... 		if(mode == 0){ 
.................... 			// 
....................  
.................... 		}else if(mode == 1){ 
.................... 			//down() 
.................... 			tmp_r = ws281x_buffer_r[0]; 
.................... 			tmp_g = ws281x_buffer_g[0]; 
.................... 			tmp_b = ws281x_buffer_b[0]; 
.................... 			for(tmp1=0;tmp1<ws281x_led_value-1;tmp1++){ 
.................... 				ws281x_buffer_r[tmp1] = ws281x_buffer_r[tmp1+1]; 
.................... 				ws281x_buffer_g[tmp1] = ws281x_buffer_g[tmp1+1]; 
.................... 				ws281x_buffer_b[tmp1] = ws281x_buffer_b[tmp1+1]; 
.................... 			} 
.................... 			ws281x_buffer_r[ws281x_led_value-1] = tmp_r; 
.................... 			ws281x_buffer_g[ws281x_led_value-1] = tmp_g; 
.................... 			ws281x_buffer_b[ws281x_led_value-1] = tmp_b; 
.................... 		}else if(mode == 2){ 
.................... 			//up() 
....................  
.................... 			for(tmp1=ws281x_led_value;tmp1>0;tmp1--){ 
.................... 				tmp2 = tmp1-1; 
.................... 				ws281x_buffer_r[tmp1] = ws281x_buffer_r[tmp2]; 
.................... 				ws281x_buffer_g[tmp1] = ws281x_buffer_g[tmp2]; 
.................... 				ws281x_buffer_b[tmp1] = ws281x_buffer_b[tmp2]; 
.................... 			} 
.................... 			ws281x_buffer_r[0] = ws281x_buffer_r[ws281x_led_value]; 
.................... 			ws281x_buffer_g[0] = ws281x_buffer_g[ws281x_led_value]; 
.................... 			ws281x_buffer_b[0] = ws281x_buffer_b[ws281x_led_value]; 
....................  
.................... 			//tmp_r = ws281x_buffer_r[ws281x_led_value-1]; 
.................... 			//tmp_g = ws281x_buffer_g[ws281x_led_value-1]; 
.................... 			//tmp_b = ws281x_buffer_b[ws281x_led_value-1]; 
.................... 			//for(tmp1=0;tmp1<ws281x_led_value-1;tmp1++){ 
.................... 			//	ws281x_buffer_r[ws281x_led_value-tmp1-1] = ws281x_buffer_r[ws281x_led_value-tmp1-2]; 
.................... 			//	ws281x_buffer_g[ws281x_led_value-tmp1-1] = ws281x_buffer_g[ws281x_led_value-tmp1-2]; 
.................... 			//	ws281x_buffer_b[ws281x_led_value-tmp1-1] = ws281x_buffer_b[ws281x_led_value-tmp1-2]; 
.................... 			//} 
.................... 			//ws281x_buffer_r[0] = tmp_r; 
.................... 			//ws281x_buffer_g[0] = tmp_g; 
.................... 			//ws281x_buffer_b[0] = tmp_b; 
.................... 		}else if(mode == 3){ 
.................... 			//ARs[c 
.................... 			for(tmp1=0;tmp1<ws281x_led_value-1;tmp1++){ 
.................... 				ws281x_buffer_r[tmp1] = ws281x_buffer_r[tmp1+1]; 
.................... 				ws281x_buffer_g[tmp1] = ws281x_buffer_g[tmp1+1]; 
.................... 				ws281x_buffer_b[tmp1] = ws281x_buffer_b[tmp1+1]; 
.................... 			} 
.................... 		}else if(mode == 4){ 
.................... 			//ARs[c 
.................... 			for(tmp1=0;tmp1<ws281x_led_value-1;tmp1++){ 
.................... 				ws281x_buffer_r[ws281x_led_value-tmp1-1] = ws281x_buffer_r[ws281x_led_value-tmp1-2]; 
.................... 				ws281x_buffer_g[ws281x_led_value-tmp1-1] = ws281x_buffer_g[ws281x_led_value-tmp1-2]; 
.................... 				ws281x_buffer_b[ws281x_led_value-tmp1-1] = ws281x_buffer_b[ws281x_led_value-tmp1-2]; 
.................... 			} 
.................... 		}else if(mode == 5){ 
.................... 			//^O 
....................  
.................... 			//^ 
.................... 			tmp_r = ws281x_buffer_r[0]; 
.................... 			tmp_g = ws281x_buffer_g[0]; 
.................... 			tmp_b = ws281x_buffer_b[0]; 
.................... 			for(tmp1=0;tmp1<(ws281x_led_value/2)-1;tmp1++){ 
.................... 				ws281x_buffer_r[tmp1] = ws281x_buffer_r[tmp1+1]; 
.................... 				ws281x_buffer_g[tmp1] = ws281x_buffer_g[tmp1+1]; 
.................... 				ws281x_buffer_b[tmp1] = ws281x_buffer_b[tmp1+1]; 
.................... 			} 
.................... 			ws281x_buffer_r[(ws281x_led_value/2)-1] = tmp_r; 
.................... 			ws281x_buffer_g[(ws281x_led_value/2)-1] = tmp_g; 
.................... 			ws281x_buffer_b[(ws281x_led_value/2)-1] = tmp_b; 
....................  
.................... 			//^ 
.................... 			tmp_r = ws281x_buffer_r[ws281x_led_value-1]; 
.................... 			tmp_g = ws281x_buffer_g[ws281x_led_value-1]; 
.................... 			tmp_b = ws281x_buffer_b[ws281x_led_value-1]; 
.................... 			for(tmp1=0;tmp1<(ws281x_led_value/2)-1;tmp1++){ 
.................... 				ws281x_buffer_r[ws281x_led_value-tmp1-1] = ws281x_buffer_r[ws281x_led_value-tmp1-2]; 
.................... 				ws281x_buffer_g[ws281x_led_value-tmp1-1] = ws281x_buffer_g[ws281x_led_value-tmp1-2]; 
.................... 				ws281x_buffer_b[ws281x_led_value-tmp1-1] = ws281x_buffer_b[ws281x_led_value-tmp1-2]; 
.................... 			} 
.................... 			ws281x_buffer_r[(ws281x_led_value/2)] = tmp_r; 
.................... 			ws281x_buffer_g[(ws281x_led_value/2)] = tmp_g; 
.................... 			ws281x_buffer_b[(ws281x_led_value/2)] = tmp_b; 
.................... 		}else if(mode == 6){ 
.................... 			//O^r 
....................  
.................... 			// 
.................... 			tmp_r = ws281x_buffer_r[(ws281x_led_value/2)-1]; 
.................... 			tmp_g = ws281x_buffer_g[(ws281x_led_value/2)-1]; 
.................... 			tmp_b = ws281x_buffer_b[(ws281x_led_value/2)-1]; 
.................... 			for(tmp1=0;tmp1<(ws281x_led_value/2)-1;tmp1++){ 
.................... 				ws281x_buffer_r[(ws281x_led_value/2)-tmp1-1] = ws281x_buffer_r[ws281x_led_value-tmp1-2]; 
.................... 				ws281x_buffer_g[ws281x_led_value-tmp1-1] = ws281x_buffer_g[ws281x_led_value-tmp1-2]; 
.................... 				ws281x_buffer_b[ws281x_led_value-tmp1-1] = ws281x_buffer_b[ws281x_led_value-tmp1-2]; 
.................... 			} 
.................... 			ws281x_buffer_r[(ws281x_led_value/2)] = tmp_r; 
.................... 			ws281x_buffer_g[(ws281x_led_value/2)] = tmp_g; 
.................... 			ws281x_buffer_b[(ws281x_led_value/2)] = tmp_b; 
....................  
.................... 			// 
.................... 			tmp_r = ws281x_buffer_r[0]; 
.................... 			tmp_g = ws281x_buffer_g[0]; 
.................... 			tmp_b = ws281x_buffer_b[0]; 
.................... 			for(tmp1=0;tmp1<(ws281x_led_value/2)-1;tmp1++){ 
.................... 				ws281x_buffer_r[tmp1] = ws281x_buffer_r[tmp1+1]; 
.................... 				ws281x_buffer_g[tmp1] = ws281x_buffer_g[tmp1+1]; 
.................... 				ws281x_buffer_b[tmp1] = ws281x_buffer_b[tmp1+1]; 
.................... 			} 
.................... 			ws281x_buffer_r[(ws281x_led_value/2)-1] = tmp_r; 
.................... 			ws281x_buffer_g[(ws281x_led_value/2)-1] = tmp_g; 
.................... 			ws281x_buffer_b[(ws281x_led_value/2)-1] = tmp_b; 
....................  
.................... 		}else if(mode == 7){ 
.................... 			//S 
.................... 			for(tmp1=0;tmp1<ws281x_led_value;tmp1++){ 
....................  
.................... 				if(ws281x_buffer_r[tmp1] > 9){	ws281x_buffer_r[tmp1] = ws281x_buffer_r[tmp1]-10;}else{	ws281x_buffer_r[tmp1] = 0;} 
.................... 				if(ws281x_buffer_g[tmp1] > 9){	ws281x_buffer_g[tmp1] = ws281x_buffer_g[tmp1]-10;}else{	ws281x_buffer_g[tmp1] = 0;} 
.................... 				if(ws281x_buffer_b[tmp1] > 9){	ws281x_buffer_b[tmp1] = ws281x_buffer_b[tmp1]-10;}else{	ws281x_buffer_b[tmp1] = 0;} 
.................... 			} 
.................... 		}else if(mode == 8){ 
.................... 			//S 
.................... 			for(tmp1=0;tmp1<ws281x_led_value;tmp1++){ 
.................... 				if(ws281x_buffer_r[tmp1] < 246){ws281x_buffer_r[tmp1] = ws281x_buffer_r[tmp1]+10;}else{ws281x_buffer_r[tmp1] = 255;} 
.................... 				if(ws281x_buffer_g[tmp1] < 246){ws281x_buffer_g[tmp1] = ws281x_buffer_g[tmp1]+10;}else{ws281x_buffer_g[tmp1] = 255;} 
.................... 				if(ws281x_buffer_b[tmp1] < 246){ws281x_buffer_b[tmp1] = ws281x_buffer_b[tmp1]+10;}else{ws281x_buffer_b[tmp1] = 255;} 
.................... 			} 
.................... 		}else if(mode == 9){ 
.................... 			//23 dF 
.................... 			for(tmp1=0;tmp1<ws281x_led_value;tmp1++){ 
.................... 				//157 
.................... 				if(ws281x_buffer_r[tmp1] < (157-9)){ 
.................... 					ws281x_buffer_r[tmp1] = ws281x_buffer_r[tmp1]+10; 
.................... 				}else if(ws281x_buffer_r[tmp1] > (157+9)){ 
.................... 					ws281x_buffer_r[tmp1] = ws281x_buffer_r[tmp1]-10; 
.................... 				}else{ 
.................... 					ws281x_buffer_r[tmp1] = 157; 
.................... 				} 
....................  
.................... 				//98 
.................... 				if(ws281x_buffer_g[tmp1] < (98-9)){ 
.................... 					ws281x_buffer_g[tmp1] = ws281x_buffer_g[tmp1]+10; 
.................... 				}else if(ws281x_buffer_g[tmp1] > (98+9)){ 
.................... 					ws281x_buffer_g[tmp1] = ws281x_buffer_g[tmp1]-10; 
.................... 				}else{ 
.................... 					ws281x_buffer_g[tmp1] = 98; 
.................... 				} 
....................  
.................... 				//0 
.................... 				if(ws281x_buffer_b[tmp1] > 9){	ws281x_buffer_b[tmp1] = ws281x_buffer_b[tmp1]-10;}else{	ws281x_buffer_b[tmp1] = 0;} 
.................... 			} 
.................... 		}else if(mode == 10){ 
.................... 			//SFvFB 
....................  
.................... 			if(ws281x_status == 0){ 
.................... 				//S^ 
.................... 				ws281x_checkcount = 0; 
.................... 				for(tmp1=0;tmp1<ws281x_led_value;tmp1++){ 
.................... 					if(ws281x_buffer_r[tmp1] < 246){ws281x_buffer_r[tmp1] = ws281x_buffer_r[tmp1]+10;}else{ws281x_buffer_r[tmp1] = 255;}//		+ 
.................... 					//if(ws281x_buffer_g[tmp1] < 246){ws281x_buffer_g[tmp1] = ws281x_buffer_g[tmp1]+10;}else{ws281x_buffer_g[tmp1] = 255;}//	+ 
.................... 					//if(ws281x_buffer_b[tmp1] < 246){ws281x_buffer_b[tmp1] = ws281x_buffer_b[tmp1]+10;}else{ws281x_buffer_b[tmp1] = 255;}//	+ 
.................... 					//if(ws281x_buffer_r[tmp1] > 9){	ws281x_buffer_r[tmp1] = ws281x_buffer_r[tmp1]-10;}else{	ws281x_buffer_r[tmp1] = 0;}//	- 
.................... 					if(ws281x_buffer_g[tmp1] > 9){	ws281x_buffer_g[tmp1] = ws281x_buffer_g[tmp1]-10;}else{	ws281x_buffer_g[tmp1] = 0;}//		- 
.................... 					if(ws281x_buffer_b[tmp1] > 9){	ws281x_buffer_b[tmp1] = ws281x_buffer_b[tmp1]-10;}else{	ws281x_buffer_b[tmp1] = 0;}//		- 
....................  
.................... 					// 
.................... 					if(ws281x_buffer_r[tmp1] == 255 && ws281x_buffer_g[tmp1] == 0 && ws281x_buffer_b[tmp1] == 0){ 
.................... 						ws281x_checkcount++; 
.................... 					} 
.................... 				} 
.................... 				if(ws281x_checkcount == ws281x_led_value){ 
.................... 					ws281x_status = 1; 
.................... 				} 
....................  
.................... 			}else if(ws281x_status == 1){ 
.................... 				// 
.................... 				ws281x_checkcount = 0; 
.................... 				for(tmp1=0;tmp1<ws281x_led_value;tmp1++){ 
.................... 					//if(ws281x_buffer_r[tmp1] < 246){ws281x_buffer_r[tmp1] = ws281x_buffer_r[tmp1]+10;}else{ws281x_buffer_r[tmp1] = 255;}//	+ 
.................... 					if(ws281x_buffer_g[tmp1] < 246){ws281x_buffer_g[tmp1] = ws281x_buffer_g[tmp1]+10;}else{ws281x_buffer_g[tmp1] = 255;}//		+ 
.................... 					//if(ws281x_buffer_b[tmp1] < 246){ws281x_buffer_b[tmp1] = ws281x_buffer_b[tmp1]+10;}else{ws281x_buffer_b[tmp1] = 255;}//	+ 
.................... 					if(ws281x_buffer_r[tmp1] > 9){	ws281x_buffer_r[tmp1] = ws281x_buffer_r[tmp1]-10;}else{	ws281x_buffer_r[tmp1] = 0;}//		- 
.................... 					//if(ws281x_buffer_g[tmp1] > 9){	ws281x_buffer_g[tmp1] = ws281x_buffer_g[tmp1]-10;}else{	ws281x_buffer_g[tmp1] = 0;}//	- 
.................... 					if(ws281x_buffer_b[tmp1] > 9){	ws281x_buffer_b[tmp1] = ws281x_buffer_b[tmp1]-10;}else{	ws281x_buffer_b[tmp1] = 0;}//		- 
....................  
.................... 					// 
.................... 					if(ws281x_buffer_r[tmp1] == 0 && ws281x_buffer_g[tmp1] == 255 && ws281x_buffer_b[tmp1] == 0){ 
.................... 						ws281x_checkcount++; 
.................... 					} 
.................... 				} 
....................  
.................... 				if(ws281x_checkcount == ws281x_led_value){ 
.................... 					ws281x_status = 2; 
.................... 				} 
....................  
.................... 			}else if(ws281x_status == 2){ 
.................... 				// 
.................... 				ws281x_checkcount = 0; 
.................... 				for(tmp1=0;tmp1<ws281x_led_value;tmp1++){ 
.................... 					//if(ws281x_buffer_r[tmp1] < 246){ws281x_buffer_r[tmp1] = ws281x_buffer_r[tmp1]+10;}else{ws281x_buffer_r[tmp1] = 255;}//	+ 
.................... 					//if(ws281x_buffer_g[tmp1] < 246){ws281x_buffer_g[tmp1] = ws281x_buffer_g[tmp1]+10;}else{ws281x_buffer_g[tmp1] = 255;}//	+ 
.................... 					if(ws281x_buffer_b[tmp1] < 246){ws281x_buffer_b[tmp1] = ws281x_buffer_b[tmp1]+10;}else{ws281x_buffer_b[tmp1] = 255;}//		+ 
.................... 					if(ws281x_buffer_r[tmp1] > 9){	ws281x_buffer_r[tmp1] = ws281x_buffer_r[tmp1]-10;}else{	ws281x_buffer_r[tmp1] = 0;}//		- 
.................... 					if(ws281x_buffer_g[tmp1] > 9){	ws281x_buffer_g[tmp1] = ws281x_buffer_g[tmp1]-10;}else{	ws281x_buffer_g[tmp1] = 0;}//		- 
.................... 					//if(ws281x_buffer_b[tmp1] > 9){	ws281x_buffer_b[tmp1] = ws281x_buffer_b[tmp1]-10;}else{	ws281x_buffer_b[tmp1] = 0;}//	- 
....................  
.................... 					// 
.................... 					if(ws281x_buffer_r[tmp1] == 0 && ws281x_buffer_g[tmp1] == 0 && ws281x_buffer_b[tmp1] == 255){ 
.................... 						ws281x_checkcount++; 
.................... 					} 
.................... 				} 
.................... 				if(ws281x_checkcount == ws281x_led_value){ 
.................... 					ws281x_status = 0; 
.................... 				} 
....................  
.................... 			} 
.................... 		}else if(mode == 11){ 
.................... 			//SFvF()B 
....................  
.................... 			if(ws281x_status == 0){ 
.................... 				//S^ 
.................... 				ws281x_checkcount = 0; 
.................... 				for(tmp1=0;tmp1<ws281x_led_value;tmp1++){ 
.................... 					if(ws281x_buffer_r[tmp1] < 246){ws281x_buffer_r[tmp1] = ws281x_buffer_r[tmp1]+10;}else{ws281x_buffer_r[tmp1] = 255;}//		+ 
.................... 					//if(ws281x_buffer_g[tmp1] < 246){ws281x_buffer_g[tmp1] = ws281x_buffer_g[tmp1]+10;}else{ws281x_buffer_g[tmp1] = 255;}//	+ 
.................... 					//if(ws281x_buffer_b[tmp1] < 246){ws281x_buffer_b[tmp1] = ws281x_buffer_b[tmp1]+10;}else{ws281x_buffer_b[tmp1] = 255;}//	+ 
.................... 					//if(ws281x_buffer_r[tmp1] > 9){	ws281x_buffer_r[tmp1] = ws281x_buffer_r[tmp1]-10;}else{	ws281x_buffer_r[tmp1] = 0;}//	- 
.................... 					if(ws281x_buffer_g[tmp1] > 9){	ws281x_buffer_g[tmp1] = ws281x_buffer_g[tmp1]-10;}else{	ws281x_buffer_g[tmp1] = 0;}//		- 
.................... 					if(ws281x_buffer_b[tmp1] > 9){	ws281x_buffer_b[tmp1] = ws281x_buffer_b[tmp1]-10;}else{	ws281x_buffer_b[tmp1] = 0;}//		- 
....................  
.................... 					// 
.................... 					if(ws281x_buffer_r[tmp1] == 255 && ws281x_buffer_g[tmp1] == 0 && ws281x_buffer_b[tmp1] == 0){ 
.................... 						ws281x_checkcount++; 
.................... 					} 
.................... 				} 
.................... 				if(ws281x_checkcount == ws281x_led_value){ 
.................... 					ws281x_status = 1; 
.................... 				} 
....................  
.................... 			}else if(ws281x_status == 1){ 
.................... 				// 
.................... 				ws281x_checkcount = 0; 
.................... 				for(tmp1=0;tmp1<ws281x_led_value;tmp1++){ 
.................... 					//if(ws281x_buffer_r[tmp1] < 246){ws281x_buffer_r[tmp1] = ws281x_buffer_r[tmp1]+10;}else{ws281x_buffer_r[tmp1] = 255;}//	+ 
.................... 					if(ws281x_buffer_g[tmp1] < 246){ws281x_buffer_g[tmp1] = ws281x_buffer_g[tmp1]+10;}else{ws281x_buffer_g[tmp1] = 255;}//		+ 
.................... 					//if(ws281x_buffer_b[tmp1] < 246){ws281x_buffer_b[tmp1] = ws281x_buffer_b[tmp1]+10;}else{ws281x_buffer_b[tmp1] = 255;}//	+ 
.................... 					if(ws281x_buffer_r[tmp1] > 9){	ws281x_buffer_r[tmp1] = ws281x_buffer_r[tmp1]-10;}else{	ws281x_buffer_r[tmp1] = 0;}//		- 
.................... 					//if(ws281x_buffer_g[tmp1] > 9){	ws281x_buffer_g[tmp1] = ws281x_buffer_g[tmp1]-10;}else{	ws281x_buffer_g[tmp1] = 0;}//	- 
.................... 					if(ws281x_buffer_b[tmp1] > 9){	ws281x_buffer_b[tmp1] = ws281x_buffer_b[tmp1]-10;}else{	ws281x_buffer_b[tmp1] = 0;}//		- 
....................  
.................... 					// 
.................... 					if(ws281x_buffer_r[tmp1] == 0 && ws281x_buffer_g[tmp1] == 255 && ws281x_buffer_b[tmp1] == 0){ 
.................... 						ws281x_checkcount++; 
.................... 					} 
.................... 				} 
....................  
.................... 				if(ws281x_checkcount == ws281x_led_value){ 
.................... 					ws281x_status = 0; 
.................... 				} 
....................  
....................  
.................... 			} 
.................... 		}else if(mode == 12){ 
.................... 			//SFvFB 
....................  
.................... 			if(ws281x_status == 0){ 
.................... 				//S^ 
.................... 				ws281x_checkcount = 0; 
.................... 				for(tmp1=0;tmp1<ws281x_led_value;tmp1++){ 
.................... 					if(ws281x_buffer_r[tmp1] < 246){ws281x_buffer_r[tmp1] = ws281x_buffer_r[tmp1]+10;}else{ws281x_buffer_r[tmp1] = 255;}//		+ 
.................... 					//if(ws281x_buffer_g[tmp1] < 246){ws281x_buffer_g[tmp1] = ws281x_buffer_g[tmp1]+10;}else{ws281x_buffer_g[tmp1] = 255;}//	+ 
.................... 					//if(ws281x_buffer_b[tmp1] < 246){ws281x_buffer_b[tmp1] = ws281x_buffer_b[tmp1]+10;}else{ws281x_buffer_b[tmp1] = 255;}//	+ 
.................... 					//if(ws281x_buffer_r[tmp1] > 9){	ws281x_buffer_r[tmp1] = ws281x_buffer_r[tmp1]-10;}else{	ws281x_buffer_r[tmp1] = 0;}//	- 
.................... 					if(ws281x_buffer_g[tmp1] > 9){	ws281x_buffer_g[tmp1] = ws281x_buffer_g[tmp1]-10;}else{	ws281x_buffer_g[tmp1] = 0;}//		- 
.................... 					if(ws281x_buffer_b[tmp1] > 9){	ws281x_buffer_b[tmp1] = ws281x_buffer_b[tmp1]-10;}else{	ws281x_buffer_b[tmp1] = 0;}//		- 
....................  
.................... 					// 
.................... 					if(ws281x_buffer_r[tmp1] == 255 && ws281x_buffer_g[tmp1] == 0 && ws281x_buffer_b[tmp1] == 0){ 
.................... 						ws281x_checkcount++; 
.................... 					} 
.................... 				} 
.................... 				if(ws281x_checkcount == ws281x_led_value){ 
.................... 					ws281x_status = 1; 
.................... 				} 
....................  
.................... 			}else if(ws281x_status == 1){ 
.................... 				// 
.................... 				ws281x_checkcount = 0; 
.................... 				for(tmp1=0;tmp1<ws281x_led_value;tmp1++){ 
.................... 					//if(ws281x_buffer_r[tmp1] < 246){ws281x_buffer_r[tmp1] = ws281x_buffer_r[tmp1]+10;}else{ws281x_buffer_r[tmp1] = 255;}//	+ 
.................... 					if(ws281x_buffer_g[tmp1] < 246){ws281x_buffer_g[tmp1] = ws281x_buffer_g[tmp1]+10;}else{ws281x_buffer_g[tmp1] = 255;}//		+ 
.................... 					//if(ws281x_buffer_b[tmp1] < 246){ws281x_buffer_b[tmp1] = ws281x_buffer_b[tmp1]+10;}else{ws281x_buffer_b[tmp1] = 255;}//	+ 
.................... 					if(ws281x_buffer_r[tmp1] > 9){	ws281x_buffer_r[tmp1] = ws281x_buffer_r[tmp1]-10;}else{	ws281x_buffer_r[tmp1] = 0;}//		- 
.................... 					//if(ws281x_buffer_g[tmp1] > 9){	ws281x_buffer_g[tmp1] = ws281x_buffer_g[tmp1]-10;}else{	ws281x_buffer_g[tmp1] = 0;}//	- 
.................... 					if(ws281x_buffer_b[tmp1] > 9){	ws281x_buffer_b[tmp1] = ws281x_buffer_b[tmp1]-10;}else{	ws281x_buffer_b[tmp1] = 0;}//		- 
....................  
.................... 					// 
.................... 					if(ws281x_buffer_r[tmp1] == 0 && ws281x_buffer_g[tmp1] == 255 && ws281x_buffer_b[tmp1] == 0){ 
.................... 						ws281x_checkcount++; 
.................... 					} 
.................... 				} 
....................  
.................... 				if(ws281x_checkcount == ws281x_led_value){ 
.................... 					ws281x_status = 2; 
.................... 				} 
....................  
.................... 			}else if(ws281x_status == 2){ 
.................... 				//GhO[ 
.................... 				ws281x_checkcount = 0; 
.................... 				for(tmp1=0;tmp1<ws281x_led_value;tmp1++){ 
.................... 					//if(ws281x_buffer_r[tmp1] < 246){ws281x_buffer_r[tmp1] = ws281x_buffer_r[tmp1]+10;}else{ws281x_buffer_r[tmp1] = 255;}//	+ 
.................... 					//if(ws281x_buffer_g[tmp1] < 246){ws281x_buffer_g[tmp1] = ws281x_buffer_g[tmp1]+10;}else{ws281x_buffer_g[tmp1] = 255;}//	+ 
.................... 					if(ws281x_buffer_b[tmp1] < 49){ws281x_buffer_b[tmp1] = ws281x_buffer_b[tmp1]+10;}else{ws281x_buffer_b[tmp1] = 48;}//		+ 
.................... 					if(ws281x_buffer_r[tmp1] > 9){	ws281x_buffer_r[tmp1] = ws281x_buffer_r[tmp1]-10;}else{	ws281x_buffer_r[tmp1] = 0;}//		- 
.................... 					if(ws281x_buffer_g[tmp1] > 9){	ws281x_buffer_g[tmp1] = ws281x_buffer_g[tmp1]-10;}else{	ws281x_buffer_g[tmp1] = 0;}//		- 
.................... 					//if(ws281x_buffer_b[tmp1] > 9){	ws281x_buffer_b[tmp1] = ws281x_buffer_b[tmp1]-10;}else{	ws281x_buffer_b[tmp1] = 0;}//	- 
....................  
.................... 					// 
.................... 					if(ws281x_buffer_b[tmp1] == 48){ 
.................... 						ws281x_checkcount++; 
.................... 					} 
.................... 				} 
.................... 				if(ws281x_checkcount == ws281x_led_value){ 
.................... 					ws281x_status = 0; 
.................... 				} 
....................  
.................... 			} 
.................... 		}else if(mode == 13){ 
.................... 			//SIWB 
....................  
.................... 			if(ws281x_status == 0){ 
.................... 				//S^ 
.................... 				ws281x_checkcount = 0; 
.................... 				for(tmp1=0;tmp1<ws281x_led_value;tmp1++){ 
.................... 					if(ws281x_buffer_r[tmp1] < 246){ws281x_buffer_r[tmp1] = ws281x_buffer_r[tmp1]+10;}else{ws281x_buffer_r[tmp1] = 255;}//		+ 
.................... 					//if(ws281x_buffer_g[tmp1] < 246){ws281x_buffer_g[tmp1] = ws281x_buffer_g[tmp1]+10;}else{ws281x_buffer_g[tmp1] = 255;}//	+ 
.................... 					//if(ws281x_buffer_b[tmp1] < 246){ws281x_buffer_b[tmp1] = ws281x_buffer_b[tmp1]+10;}else{ws281x_buffer_b[tmp1] = 255;}//	+ 
.................... 					//if(ws281x_buffer_r[tmp1] > 9){	ws281x_buffer_r[tmp1] = ws281x_buffer_r[tmp1]-10;}else{	ws281x_buffer_r[tmp1] = 0;}//	- 
.................... 					if(ws281x_buffer_g[tmp1] > 9){	ws281x_buffer_g[tmp1] = ws281x_buffer_g[tmp1]-10;}else{	ws281x_buffer_g[tmp1] = 0;}//		- 
.................... 					if(ws281x_buffer_b[tmp1] > 9){	ws281x_buffer_b[tmp1] = ws281x_buffer_b[tmp1]-10;}else{	ws281x_buffer_b[tmp1] = 0;}//		- 
....................  
.................... 					// 
.................... 					if(ws281x_buffer_r[tmp1] == 255 && ws281x_buffer_g[tmp1] == 0 && ws281x_buffer_b[tmp1] == 0){ 
.................... 						ws281x_checkcount++; 
.................... 					} 
.................... 				} 
.................... 				if(ws281x_checkcount == ws281x_led_value){ 
.................... 					ws281x_status = 1; 
.................... 				} 
....................  
.................... 			}else if(ws281x_status == 1){ 
.................... 				// 
.................... 				ws281x_checkcount = 0; 
.................... 				for(tmp1=0;tmp1<ws281x_led_value;tmp1++){ 
.................... 					//if(ws281x_buffer_r[tmp1] < 246){ws281x_buffer_r[tmp1] = ws281x_buffer_r[tmp1]+10;}else{ws281x_buffer_r[tmp1] = 255;}//	+ 
.................... 					if(ws281x_buffer_g[tmp1] < 81){ws281x_buffer_g[tmp1] = ws281x_buffer_g[tmp1]+10;}else{ws281x_buffer_g[tmp1] = 90;}//		+ 
.................... 					//if(ws281x_buffer_b[tmp1] < 246){ws281x_buffer_b[tmp1] = ws281x_buffer_b[tmp1]+10;}else{ws281x_buffer_b[tmp1] = 255;}//	+ 
.................... 					if(ws281x_buffer_r[tmp1] > 209){	ws281x_buffer_r[tmp1] = ws281x_buffer_r[tmp1]-10;}else{	ws281x_buffer_r[tmp1] = 200;}//		- 
.................... 					//if(ws281x_buffer_g[tmp1] > 9){	ws281x_buffer_g[tmp1] = ws281x_buffer_g[tmp1]-10;}else{	ws281x_buffer_g[tmp1] = 0;}//	- 
.................... 					if(ws281x_buffer_b[tmp1] > 9){	ws281x_buffer_b[tmp1] = ws281x_buffer_b[tmp1]-10;}else{	ws281x_buffer_b[tmp1] = 0;}//		- 
....................  
.................... 					// 
.................... 					if(ws281x_buffer_r[tmp1] == 200 && ws281x_buffer_g[tmp1] == 90 && ws281x_buffer_b[tmp1] == 0){ 
.................... 						ws281x_checkcount++; 
.................... 					} 
.................... 				} 
....................  
.................... 				if(ws281x_checkcount == ws281x_led_value){ 
.................... 					ws281x_status = 0; 
.................... 				} 
....................  
.................... 			} 
.................... 		}else if(mode == 99){ 
....................  
.................... 		}else if(mode == 100){ 
....................  
.................... 		} 
.................... 	//}else{ 
.................... 	//	ws281x_mode_weight_count++; 
.................... 	//} 
....................  
.................... } 
....................  
.................... //J[vZX 
.................... //eFbufferLED_OUToB 
.................... void ws281x_process(){ 
*
04044:  MOVLB  4
04046:  CLRF   x3D
04048:  CLRF   x3C
.................... 	long tmp1 = 0; 
....................  
.................... 	int tmp_buffer_1; 
.................... 	int tmp_buffer_2; 
.................... 	int tmp_buffer_3; 
....................  
.................... 	//^C~O 
.................... 	if(led_timing == 0){ 
0404A:  MOVLB  1
0404C:  MOVF   x1E,F
0404E:  BTFSS  FD8.2
04050:  BRA    438E
.................... 		//RESET 
.................... 		output_bit(LED_OUT,1);//DEF 
04052:  BSF    F8A.0
04054:  BCF    F93.0
.................... 		output_bit(LED_OUT,0);//RESET 
04056:  BCF    F8A.0
04058:  BCF    F93.0
.................... 		delay_us(55);//t@X50uSecPYB 
0405A:  MOVLW  37
0405C:  MOVLB  4
0405E:  MOVWF  x41
04060:  MOVLB  0
04062:  RCALL  3886
....................  
.................... 		//f[^M 
.................... 		for(tmp1 = 0;tmp1<ws281x_led_value;tmp1++){ 
04064:  MOVLB  4
04066:  CLRF   x3D
04068:  CLRF   x3C
0406A:  MOVF   x3D,W
0406C:  SUBWF  x26,W
0406E:  BTFSS  FD8.0
04070:  BRA    4384
04072:  BNZ   407C
04074:  MOVF   x25,W
04076:  SUBWF  x3C,W
04078:  BTFSC  FD8.0
0407A:  BRA    4384
.................... 			tmp_buffer_1 = ws281x_buffer_g[tmp1]; 
0407C:  MOVLW  23
0407E:  ADDWF  x3C,W
04080:  MOVWF  FE9
04082:  MOVLW  02
04084:  ADDWFC x3D,W
04086:  MOVWF  FEA
04088:  MOVFF  FEF,43E
.................... 			tmp_buffer_2 = ws281x_buffer_r[tmp1]; 
0408C:  MOVLW  22
0408E:  ADDWF  x3C,W
04090:  MOVWF  FE9
04092:  MOVLW  01
04094:  ADDWFC x3D,W
04096:  MOVWF  FEA
04098:  MOVFF  FEF,43F
.................... 			tmp_buffer_3 = ws281x_buffer_b[tmp1];			 
0409C:  MOVLW  24
0409E:  ADDWF  x3C,W
040A0:  MOVWF  FE9
040A2:  MOVLW  03
040A4:  ADDWFC x3D,W
040A6:  MOVWF  FEA
040A8:  MOVFF  FEF,440
.................... 			// if(led_signaltype == 0){ 
.................... 			// 	//0=grb 
.................... 			// 	tmp_buffer_1 = ws281x_buffer_g[tmp1]; 
.................... 			// 	tmp_buffer_2 = ws281x_buffer_r[tmp1]; 
.................... 			// 	tmp_buffer_3 = ws281x_buffer_b[tmp1]; 
.................... 			// }else if(led_signaltype == 1){ 
.................... 			// 	//1=rgb 
.................... 			// 	tmp_buffer_1 = ws281x_buffer_r[tmp1]; 
.................... 			// 	tmp_buffer_2 = ws281x_buffer_g[tmp1]; 
.................... 			// 	tmp_buffer_3 = ws281x_buffer_b[tmp1]; 
.................... 			// } 
....................  
.................... 			//f[^M 
.................... 			output_bit(LED_OUT,1);delay_cycles(2);			output_bit(LED_OUT,bit_test(tmp_buffer_1,7));delay_cycles(2);			output_bit(LED_OUT,0);delay_cycles(6); 
040AC:  BSF    F8A.0
040AE:  BCF    F93.0
040B0:  BRA    40B2
040B2:  BTFSC  x3E.7
040B4:  BRA    40BA
040B6:  BCF    F8A.0
040B8:  BRA    40BC
040BA:  BSF    F8A.0
040BC:  BCF    F93.0
040BE:  BRA    40C0
040C0:  BCF    F8A.0
040C2:  BCF    F93.0
040C4:  BRA    40C6
040C6:  BRA    40C8
040C8:  BRA    40CA
.................... 			output_bit(LED_OUT,1);delay_cycles(2);			output_bit(LED_OUT,bit_test(tmp_buffer_1,6));delay_cycles(2);			output_bit(LED_OUT,0);delay_cycles(6); 
040CA:  BSF    F8A.0
040CC:  BCF    F93.0
040CE:  BRA    40D0
040D0:  BTFSC  x3E.6
040D2:  BRA    40D8
040D4:  BCF    F8A.0
040D6:  BRA    40DA
040D8:  BSF    F8A.0
040DA:  BCF    F93.0
040DC:  BRA    40DE
040DE:  BCF    F8A.0
040E0:  BCF    F93.0
040E2:  BRA    40E4
040E4:  BRA    40E6
040E6:  BRA    40E8
.................... 			output_bit(LED_OUT,1);delay_cycles(2);			output_bit(LED_OUT,bit_test(tmp_buffer_1,5));delay_cycles(2);			output_bit(LED_OUT,0);delay_cycles(6); 
040E8:  BSF    F8A.0
040EA:  BCF    F93.0
040EC:  BRA    40EE
040EE:  BTFSC  x3E.5
040F0:  BRA    40F6
040F2:  BCF    F8A.0
040F4:  BRA    40F8
040F6:  BSF    F8A.0
040F8:  BCF    F93.0
040FA:  BRA    40FC
040FC:  BCF    F8A.0
040FE:  BCF    F93.0
04100:  BRA    4102
04102:  BRA    4104
04104:  BRA    4106
.................... 			output_bit(LED_OUT,1);delay_cycles(2);			output_bit(LED_OUT,bit_test(tmp_buffer_1,4));delay_cycles(2);			output_bit(LED_OUT,0);delay_cycles(6); 
04106:  BSF    F8A.0
04108:  BCF    F93.0
0410A:  BRA    410C
0410C:  BTFSC  x3E.4
0410E:  BRA    4114
04110:  BCF    F8A.0
04112:  BRA    4116
04114:  BSF    F8A.0
04116:  BCF    F93.0
04118:  BRA    411A
0411A:  BCF    F8A.0
0411C:  BCF    F93.0
0411E:  BRA    4120
04120:  BRA    4122
04122:  BRA    4124
.................... 			output_bit(LED_OUT,1);delay_cycles(2);			output_bit(LED_OUT,bit_test(tmp_buffer_1,3));delay_cycles(2);			output_bit(LED_OUT,0);delay_cycles(6); 
04124:  BSF    F8A.0
04126:  BCF    F93.0
04128:  BRA    412A
0412A:  BTFSC  x3E.3
0412C:  BRA    4132
0412E:  BCF    F8A.0
04130:  BRA    4134
04132:  BSF    F8A.0
04134:  BCF    F93.0
04136:  BRA    4138
04138:  BCF    F8A.0
0413A:  BCF    F93.0
0413C:  BRA    413E
0413E:  BRA    4140
04140:  BRA    4142
.................... 			output_bit(LED_OUT,1);delay_cycles(2);			output_bit(LED_OUT,bit_test(tmp_buffer_1,2));delay_cycles(2);			output_bit(LED_OUT,0);delay_cycles(6); 
04142:  BSF    F8A.0
04144:  BCF    F93.0
04146:  BRA    4148
04148:  BTFSC  x3E.2
0414A:  BRA    4150
0414C:  BCF    F8A.0
0414E:  BRA    4152
04150:  BSF    F8A.0
04152:  BCF    F93.0
04154:  BRA    4156
04156:  BCF    F8A.0
04158:  BCF    F93.0
0415A:  BRA    415C
0415C:  BRA    415E
0415E:  BRA    4160
.................... 			output_bit(LED_OUT,1);delay_cycles(2);			output_bit(LED_OUT,bit_test(tmp_buffer_1,1));delay_cycles(2);			output_bit(LED_OUT,0);delay_cycles(6); 
04160:  BSF    F8A.0
04162:  BCF    F93.0
04164:  BRA    4166
04166:  BTFSC  x3E.1
04168:  BRA    416E
0416A:  BCF    F8A.0
0416C:  BRA    4170
0416E:  BSF    F8A.0
04170:  BCF    F93.0
04172:  BRA    4174
04174:  BCF    F8A.0
04176:  BCF    F93.0
04178:  BRA    417A
0417A:  BRA    417C
0417C:  BRA    417E
.................... 			output_bit(LED_OUT,1);delay_cycles(2);			output_bit(LED_OUT,bit_test(tmp_buffer_1,0));delay_cycles(2);			output_bit(LED_OUT,0);delay_cycles(6); 
0417E:  BSF    F8A.0
04180:  BCF    F93.0
04182:  BRA    4184
04184:  BTFSC  x3E.0
04186:  BRA    418C
04188:  BCF    F8A.0
0418A:  BRA    418E
0418C:  BSF    F8A.0
0418E:  BCF    F93.0
04190:  BRA    4192
04192:  BCF    F8A.0
04194:  BCF    F93.0
04196:  BRA    4198
04198:  BRA    419A
0419A:  BRA    419C
....................  
.................... 			//f[^M 
.................... 			output_bit(LED_OUT,1);delay_cycles(2);			output_bit(LED_OUT,bit_test(tmp_buffer_2,7));delay_cycles(2);			output_bit(LED_OUT,0);delay_cycles(6); 
0419C:  BSF    F8A.0
0419E:  BCF    F93.0
041A0:  BRA    41A2
041A2:  BTFSC  x3F.7
041A4:  BRA    41AA
041A6:  BCF    F8A.0
041A8:  BRA    41AC
041AA:  BSF    F8A.0
041AC:  BCF    F93.0
041AE:  BRA    41B0
041B0:  BCF    F8A.0
041B2:  BCF    F93.0
041B4:  BRA    41B6
041B6:  BRA    41B8
041B8:  BRA    41BA
.................... 			output_bit(LED_OUT,1);delay_cycles(2);			output_bit(LED_OUT,bit_test(tmp_buffer_2,6));delay_cycles(2);			output_bit(LED_OUT,0);delay_cycles(6); 
041BA:  BSF    F8A.0
041BC:  BCF    F93.0
041BE:  BRA    41C0
041C0:  BTFSC  x3F.6
041C2:  BRA    41C8
041C4:  BCF    F8A.0
041C6:  BRA    41CA
041C8:  BSF    F8A.0
041CA:  BCF    F93.0
041CC:  BRA    41CE
041CE:  BCF    F8A.0
041D0:  BCF    F93.0
041D2:  BRA    41D4
041D4:  BRA    41D6
041D6:  BRA    41D8
.................... 			output_bit(LED_OUT,1);delay_cycles(2);			output_bit(LED_OUT,bit_test(tmp_buffer_2,5));delay_cycles(2);			output_bit(LED_OUT,0);delay_cycles(6); 
041D8:  BSF    F8A.0
041DA:  BCF    F93.0
041DC:  BRA    41DE
041DE:  BTFSC  x3F.5
041E0:  BRA    41E6
041E2:  BCF    F8A.0
041E4:  BRA    41E8
041E6:  BSF    F8A.0
041E8:  BCF    F93.0
041EA:  BRA    41EC
041EC:  BCF    F8A.0
041EE:  BCF    F93.0
041F0:  BRA    41F2
041F2:  BRA    41F4
041F4:  BRA    41F6
.................... 			output_bit(LED_OUT,1);delay_cycles(2);			output_bit(LED_OUT,bit_test(tmp_buffer_2,4));delay_cycles(2);			output_bit(LED_OUT,0);delay_cycles(6); 
041F6:  BSF    F8A.0
041F8:  BCF    F93.0
041FA:  BRA    41FC
041FC:  BTFSC  x3F.4
041FE:  BRA    4204
04200:  BCF    F8A.0
04202:  BRA    4206
04204:  BSF    F8A.0
04206:  BCF    F93.0
04208:  BRA    420A
0420A:  BCF    F8A.0
0420C:  BCF    F93.0
0420E:  BRA    4210
04210:  BRA    4212
04212:  BRA    4214
.................... 			output_bit(LED_OUT,1);delay_cycles(2);			output_bit(LED_OUT,bit_test(tmp_buffer_2,3));delay_cycles(2);			output_bit(LED_OUT,0);delay_cycles(6); 
04214:  BSF    F8A.0
04216:  BCF    F93.0
04218:  BRA    421A
0421A:  BTFSC  x3F.3
0421C:  BRA    4222
0421E:  BCF    F8A.0
04220:  BRA    4224
04222:  BSF    F8A.0
04224:  BCF    F93.0
04226:  BRA    4228
04228:  BCF    F8A.0
0422A:  BCF    F93.0
0422C:  BRA    422E
0422E:  BRA    4230
04230:  BRA    4232
.................... 			output_bit(LED_OUT,1);delay_cycles(2);			output_bit(LED_OUT,bit_test(tmp_buffer_2,2));delay_cycles(2);			output_bit(LED_OUT,0);delay_cycles(6); 
04232:  BSF    F8A.0
04234:  BCF    F93.0
04236:  BRA    4238
04238:  BTFSC  x3F.2
0423A:  BRA    4240
0423C:  BCF    F8A.0
0423E:  BRA    4242
04240:  BSF    F8A.0
04242:  BCF    F93.0
04244:  BRA    4246
04246:  BCF    F8A.0
04248:  BCF    F93.0
0424A:  BRA    424C
0424C:  BRA    424E
0424E:  BRA    4250
.................... 			output_bit(LED_OUT,1);delay_cycles(2);			output_bit(LED_OUT,bit_test(tmp_buffer_2,1));delay_cycles(2);			output_bit(LED_OUT,0);delay_cycles(6); 
04250:  BSF    F8A.0
04252:  BCF    F93.0
04254:  BRA    4256
04256:  BTFSC  x3F.1
04258:  BRA    425E
0425A:  BCF    F8A.0
0425C:  BRA    4260
0425E:  BSF    F8A.0
04260:  BCF    F93.0
04262:  BRA    4264
04264:  BCF    F8A.0
04266:  BCF    F93.0
04268:  BRA    426A
0426A:  BRA    426C
0426C:  BRA    426E
.................... 			output_bit(LED_OUT,1);delay_cycles(2);			output_bit(LED_OUT,bit_test(tmp_buffer_2,0));delay_cycles(2);			output_bit(LED_OUT,0);delay_cycles(6); 
0426E:  BSF    F8A.0
04270:  BCF    F93.0
04272:  BRA    4274
04274:  BTFSC  x3F.0
04276:  BRA    427C
04278:  BCF    F8A.0
0427A:  BRA    427E
0427C:  BSF    F8A.0
0427E:  BCF    F93.0
04280:  BRA    4282
04282:  BCF    F8A.0
04284:  BCF    F93.0
04286:  BRA    4288
04288:  BRA    428A
0428A:  BRA    428C
....................  
.................... 			//Of[^M 
.................... 			output_bit(LED_OUT,1);delay_cycles(2);			output_bit(LED_OUT,bit_test(tmp_buffer_3,7));delay_cycles(2);			output_bit(LED_OUT,0);delay_cycles(6); 
0428C:  BSF    F8A.0
0428E:  BCF    F93.0
04290:  BRA    4292
04292:  BTFSC  x40.7
04294:  BRA    429A
04296:  BCF    F8A.0
04298:  BRA    429C
0429A:  BSF    F8A.0
0429C:  BCF    F93.0
0429E:  BRA    42A0
042A0:  BCF    F8A.0
042A2:  BCF    F93.0
042A4:  BRA    42A6
042A6:  BRA    42A8
042A8:  BRA    42AA
.................... 			output_bit(LED_OUT,1);delay_cycles(2);			output_bit(LED_OUT,bit_test(tmp_buffer_3,6));delay_cycles(2);			output_bit(LED_OUT,0);delay_cycles(6); 
042AA:  BSF    F8A.0
042AC:  BCF    F93.0
042AE:  BRA    42B0
042B0:  BTFSC  x40.6
042B2:  BRA    42B8
042B4:  BCF    F8A.0
042B6:  BRA    42BA
042B8:  BSF    F8A.0
042BA:  BCF    F93.0
042BC:  BRA    42BE
042BE:  BCF    F8A.0
042C0:  BCF    F93.0
042C2:  BRA    42C4
042C4:  BRA    42C6
042C6:  BRA    42C8
.................... 			output_bit(LED_OUT,1);delay_cycles(2);			output_bit(LED_OUT,bit_test(tmp_buffer_3,5));delay_cycles(2);			output_bit(LED_OUT,0);delay_cycles(6); 
042C8:  BSF    F8A.0
042CA:  BCF    F93.0
042CC:  BRA    42CE
042CE:  BTFSC  x40.5
042D0:  BRA    42D6
042D2:  BCF    F8A.0
042D4:  BRA    42D8
042D6:  BSF    F8A.0
042D8:  BCF    F93.0
042DA:  BRA    42DC
042DC:  BCF    F8A.0
042DE:  BCF    F93.0
042E0:  BRA    42E2
042E2:  BRA    42E4
042E4:  BRA    42E6
.................... 			output_bit(LED_OUT,1);delay_cycles(2);			output_bit(LED_OUT,bit_test(tmp_buffer_3,4));delay_cycles(2);			output_bit(LED_OUT,0);delay_cycles(6); 
042E6:  BSF    F8A.0
042E8:  BCF    F93.0
042EA:  BRA    42EC
042EC:  BTFSC  x40.4
042EE:  BRA    42F4
042F0:  BCF    F8A.0
042F2:  BRA    42F6
042F4:  BSF    F8A.0
042F6:  BCF    F93.0
042F8:  BRA    42FA
042FA:  BCF    F8A.0
042FC:  BCF    F93.0
042FE:  BRA    4300
04300:  BRA    4302
04302:  BRA    4304
.................... 			output_bit(LED_OUT,1);delay_cycles(2);			output_bit(LED_OUT,bit_test(tmp_buffer_3,3));delay_cycles(2);			output_bit(LED_OUT,0);delay_cycles(6); 
04304:  BSF    F8A.0
04306:  BCF    F93.0
04308:  BRA    430A
0430A:  BTFSC  x40.3
0430C:  BRA    4312
0430E:  BCF    F8A.0
04310:  BRA    4314
04312:  BSF    F8A.0
04314:  BCF    F93.0
04316:  BRA    4318
04318:  BCF    F8A.0
0431A:  BCF    F93.0
0431C:  BRA    431E
0431E:  BRA    4320
04320:  BRA    4322
.................... 			output_bit(LED_OUT,1);delay_cycles(2);			output_bit(LED_OUT,bit_test(tmp_buffer_3,2));delay_cycles(2);			output_bit(LED_OUT,0);delay_cycles(6); 
04322:  BSF    F8A.0
04324:  BCF    F93.0
04326:  BRA    4328
04328:  BTFSC  x40.2
0432A:  BRA    4330
0432C:  BCF    F8A.0
0432E:  BRA    4332
04330:  BSF    F8A.0
04332:  BCF    F93.0
04334:  BRA    4336
04336:  BCF    F8A.0
04338:  BCF    F93.0
0433A:  BRA    433C
0433C:  BRA    433E
0433E:  BRA    4340
.................... 			output_bit(LED_OUT,1);delay_cycles(2);			output_bit(LED_OUT,bit_test(tmp_buffer_3,1));delay_cycles(2);			output_bit(LED_OUT,0);delay_cycles(6); 
04340:  BSF    F8A.0
04342:  BCF    F93.0
04344:  BRA    4346
04346:  BTFSC  x40.1
04348:  BRA    434E
0434A:  BCF    F8A.0
0434C:  BRA    4350
0434E:  BSF    F8A.0
04350:  BCF    F93.0
04352:  BRA    4354
04354:  BCF    F8A.0
04356:  BCF    F93.0
04358:  BRA    435A
0435A:  BRA    435C
0435C:  BRA    435E
.................... 			output_bit(LED_OUT,1);delay_cycles(2);			output_bit(LED_OUT,bit_test(tmp_buffer_3,0));delay_cycles(2);			output_bit(LED_OUT,0);delay_cycles(6); 
0435E:  BSF    F8A.0
04360:  BCF    F93.0
04362:  BRA    4364
04364:  BTFSC  x40.0
04366:  BRA    436C
04368:  BCF    F8A.0
0436A:  BRA    436E
0436C:  BSF    F8A.0
0436E:  BCF    F93.0
04370:  BRA    4372
04372:  BCF    F8A.0
04374:  BCF    F93.0
04376:  BRA    4378
04378:  BRA    437A
0437A:  BRA    437C
.................... 			 
.................... 			//delay_us(1);delay_cycles(3); 
.................... 		} 
0437C:  INCF   x3C,F
0437E:  BTFSC  FD8.2
04380:  INCF   x3D,F
04382:  BRA    406A
.................... 		//end 
.................... 		output_bit(LED_OUT,1);// 
04384:  BSF    F8A.0
04386:  BCF    F93.0
.................... 	}else if(led_timing == 1){ 
04388:  GOTO   4D8E
0438C:  MOVLB  1
0438E:  DECFSZ x1E,W
04390:  BRA    464C
.................... 		//RESET 
.................... 		output_bit(LED_OUT,1);//DEF 
04392:  BSF    F8A.0
04394:  BCF    F93.0
.................... 		output_bit(LED_OUT,0);//RESET 
04396:  BCF    F8A.0
04398:  BCF    F93.0
.................... 		delay_ms(1);//t@X50uSecPYB 
0439A:  MOVLW  01
0439C:  MOVLB  4
0439E:  MOVWF  x41
043A0:  MOVLB  0
043A2:  CALL   385C
....................  
.................... 		//f[^M 
.................... 		for(tmp1 = 0;tmp1<ws281x_led_value;tmp1++){ 
043A6:  MOVLB  4
043A8:  CLRF   x3D
043AA:  CLRF   x3C
043AC:  MOVF   x3D,W
043AE:  SUBWF  x26,W
043B0:  BTFSS  FD8.0
043B2:  BRA    4642
043B4:  BNZ   43BE
043B6:  MOVF   x25,W
043B8:  SUBWF  x3C,W
043BA:  BTFSC  FD8.0
043BC:  BRA    4642
.................... 			tmp_buffer_1 = ws281x_buffer_g[tmp1]; 
043BE:  MOVLW  23
043C0:  ADDWF  x3C,W
043C2:  MOVWF  FE9
043C4:  MOVLW  02
043C6:  ADDWFC x3D,W
043C8:  MOVWF  FEA
043CA:  MOVFF  FEF,43E
.................... 			tmp_buffer_2 = ws281x_buffer_r[tmp1]; 
043CE:  MOVLW  22
043D0:  ADDWF  x3C,W
043D2:  MOVWF  FE9
043D4:  MOVLW  01
043D6:  ADDWFC x3D,W
043D8:  MOVWF  FEA
043DA:  MOVFF  FEF,43F
.................... 			tmp_buffer_3 = ws281x_buffer_b[tmp1];			 
043DE:  MOVLW  24
043E0:  ADDWF  x3C,W
043E2:  MOVWF  FE9
043E4:  MOVLW  03
043E6:  ADDWFC x3D,W
043E8:  MOVWF  FEA
043EA:  MOVFF  FEF,440
.................... 			// if(led_signaltype == 0){ 
.................... 			// 	//0=grb 
.................... 			// 	tmp_buffer_1 = ws281x_buffer_g[tmp1]; 
.................... 			// 	tmp_buffer_2 = ws281x_buffer_r[tmp1]; 
.................... 			// 	tmp_buffer_3 = ws281x_buffer_b[tmp1]; 
.................... 			// }else if(led_signaltype == 1){ 
.................... 			// 	//1=rgb 
.................... 			// 	tmp_buffer_1 = ws281x_buffer_r[tmp1]; 
.................... 			// 	tmp_buffer_2 = ws281x_buffer_g[tmp1]; 
.................... 			// 	tmp_buffer_3 = ws281x_buffer_b[tmp1]; 
.................... 			// } 
....................  
.................... 			//f[^M 
.................... 			output_bit(LED_OUT,1);delay_cycles(1);	output_bit(LED_OUT,bit_test(tmp_buffer_1,7));delay_cycles(2);	output_bit(LED_OUT,0); 
043EE:  BSF    F8A.0
043F0:  BCF    F93.0
043F2:  NOP   
043F4:  BTFSC  x3E.7
043F6:  BRA    43FC
043F8:  BCF    F8A.0
043FA:  BRA    43FE
043FC:  BSF    F8A.0
043FE:  BCF    F93.0
04400:  BRA    4402
04402:  BCF    F8A.0
04404:  BCF    F93.0
.................... 			output_bit(LED_OUT,1);delay_cycles(1);	output_bit(LED_OUT,bit_test(tmp_buffer_1,6));delay_cycles(2);	output_bit(LED_OUT,0); 
04406:  BSF    F8A.0
04408:  BCF    F93.0
0440A:  NOP   
0440C:  BTFSC  x3E.6
0440E:  BRA    4414
04410:  BCF    F8A.0
04412:  BRA    4416
04414:  BSF    F8A.0
04416:  BCF    F93.0
04418:  BRA    441A
0441A:  BCF    F8A.0
0441C:  BCF    F93.0
.................... 			output_bit(LED_OUT,1);delay_cycles(1);	output_bit(LED_OUT,bit_test(tmp_buffer_1,5));delay_cycles(2);	output_bit(LED_OUT,0); 
0441E:  BSF    F8A.0
04420:  BCF    F93.0
04422:  NOP   
04424:  BTFSC  x3E.5
04426:  BRA    442C
04428:  BCF    F8A.0
0442A:  BRA    442E
0442C:  BSF    F8A.0
0442E:  BCF    F93.0
04430:  BRA    4432
04432:  BCF    F8A.0
04434:  BCF    F93.0
.................... 			output_bit(LED_OUT,1);delay_cycles(1);	output_bit(LED_OUT,bit_test(tmp_buffer_1,4));delay_cycles(2);	output_bit(LED_OUT,0); 
04436:  BSF    F8A.0
04438:  BCF    F93.0
0443A:  NOP   
0443C:  BTFSC  x3E.4
0443E:  BRA    4444
04440:  BCF    F8A.0
04442:  BRA    4446
04444:  BSF    F8A.0
04446:  BCF    F93.0
04448:  BRA    444A
0444A:  BCF    F8A.0
0444C:  BCF    F93.0
.................... 			output_bit(LED_OUT,1);delay_cycles(1);	output_bit(LED_OUT,bit_test(tmp_buffer_1,3));delay_cycles(2);	output_bit(LED_OUT,0); 
0444E:  BSF    F8A.0
04450:  BCF    F93.0
04452:  NOP   
04454:  BTFSC  x3E.3
04456:  BRA    445C
04458:  BCF    F8A.0
0445A:  BRA    445E
0445C:  BSF    F8A.0
0445E:  BCF    F93.0
04460:  BRA    4462
04462:  BCF    F8A.0
04464:  BCF    F93.0
.................... 			output_bit(LED_OUT,1);delay_cycles(1);	output_bit(LED_OUT,bit_test(tmp_buffer_1,2));delay_cycles(2);	output_bit(LED_OUT,0); 
04466:  BSF    F8A.0
04468:  BCF    F93.0
0446A:  NOP   
0446C:  BTFSC  x3E.2
0446E:  BRA    4474
04470:  BCF    F8A.0
04472:  BRA    4476
04474:  BSF    F8A.0
04476:  BCF    F93.0
04478:  BRA    447A
0447A:  BCF    F8A.0
0447C:  BCF    F93.0
.................... 			output_bit(LED_OUT,1);delay_cycles(1);	output_bit(LED_OUT,bit_test(tmp_buffer_1,1));delay_cycles(2);	output_bit(LED_OUT,0); 
0447E:  BSF    F8A.0
04480:  BCF    F93.0
04482:  NOP   
04484:  BTFSC  x3E.1
04486:  BRA    448C
04488:  BCF    F8A.0
0448A:  BRA    448E
0448C:  BSF    F8A.0
0448E:  BCF    F93.0
04490:  BRA    4492
04492:  BCF    F8A.0
04494:  BCF    F93.0
.................... 			output_bit(LED_OUT,1);delay_cycles(1);	output_bit(LED_OUT,bit_test(tmp_buffer_1,0));delay_cycles(2);	output_bit(LED_OUT,0); 
04496:  BSF    F8A.0
04498:  BCF    F93.0
0449A:  NOP   
0449C:  BTFSC  x3E.0
0449E:  BRA    44A4
044A0:  BCF    F8A.0
044A2:  BRA    44A6
044A4:  BSF    F8A.0
044A6:  BCF    F93.0
044A8:  BRA    44AA
044AA:  BCF    F8A.0
044AC:  BCF    F93.0
....................  
.................... 			//f[^M 
.................... 			output_bit(LED_OUT,1);delay_cycles(1);	output_bit(LED_OUT,bit_test(tmp_buffer_2,7));delay_cycles(2);	output_bit(LED_OUT,0); 
044AE:  BSF    F8A.0
044B0:  BCF    F93.0
044B2:  NOP   
044B4:  BTFSC  x3F.7
044B6:  BRA    44BC
044B8:  BCF    F8A.0
044BA:  BRA    44BE
044BC:  BSF    F8A.0
044BE:  BCF    F93.0
044C0:  BRA    44C2
044C2:  BCF    F8A.0
044C4:  BCF    F93.0
.................... 			output_bit(LED_OUT,1);delay_cycles(1);	output_bit(LED_OUT,bit_test(tmp_buffer_2,6));delay_cycles(2);	output_bit(LED_OUT,0); 
044C6:  BSF    F8A.0
044C8:  BCF    F93.0
044CA:  NOP   
044CC:  BTFSC  x3F.6
044CE:  BRA    44D4
044D0:  BCF    F8A.0
044D2:  BRA    44D6
044D4:  BSF    F8A.0
044D6:  BCF    F93.0
044D8:  BRA    44DA
044DA:  BCF    F8A.0
044DC:  BCF    F93.0
.................... 			output_bit(LED_OUT,1);delay_cycles(1);	output_bit(LED_OUT,bit_test(tmp_buffer_2,5));delay_cycles(2);	output_bit(LED_OUT,0); 
044DE:  BSF    F8A.0
044E0:  BCF    F93.0
044E2:  NOP   
044E4:  BTFSC  x3F.5
044E6:  BRA    44EC
044E8:  BCF    F8A.0
044EA:  BRA    44EE
044EC:  BSF    F8A.0
044EE:  BCF    F93.0
044F0:  BRA    44F2
044F2:  BCF    F8A.0
044F4:  BCF    F93.0
.................... 			output_bit(LED_OUT,1);delay_cycles(1);	output_bit(LED_OUT,bit_test(tmp_buffer_2,4));delay_cycles(2);	output_bit(LED_OUT,0); 
044F6:  BSF    F8A.0
044F8:  BCF    F93.0
044FA:  NOP   
044FC:  BTFSC  x3F.4
044FE:  BRA    4504
04500:  BCF    F8A.0
04502:  BRA    4506
04504:  BSF    F8A.0
04506:  BCF    F93.0
04508:  BRA    450A
0450A:  BCF    F8A.0
0450C:  BCF    F93.0
.................... 			output_bit(LED_OUT,1);delay_cycles(1);	output_bit(LED_OUT,bit_test(tmp_buffer_2,3));delay_cycles(2);	output_bit(LED_OUT,0); 
0450E:  BSF    F8A.0
04510:  BCF    F93.0
04512:  NOP   
04514:  BTFSC  x3F.3
04516:  BRA    451C
04518:  BCF    F8A.0
0451A:  BRA    451E
0451C:  BSF    F8A.0
0451E:  BCF    F93.0
04520:  BRA    4522
04522:  BCF    F8A.0
04524:  BCF    F93.0
.................... 			output_bit(LED_OUT,1);delay_cycles(1);	output_bit(LED_OUT,bit_test(tmp_buffer_2,2));delay_cycles(2);	output_bit(LED_OUT,0); 
04526:  BSF    F8A.0
04528:  BCF    F93.0
0452A:  NOP   
0452C:  BTFSC  x3F.2
0452E:  BRA    4534
04530:  BCF    F8A.0
04532:  BRA    4536
04534:  BSF    F8A.0
04536:  BCF    F93.0
04538:  BRA    453A
0453A:  BCF    F8A.0
0453C:  BCF    F93.0
.................... 			output_bit(LED_OUT,1);delay_cycles(1);	output_bit(LED_OUT,bit_test(tmp_buffer_2,1));delay_cycles(2);	output_bit(LED_OUT,0); 
0453E:  BSF    F8A.0
04540:  BCF    F93.0
04542:  NOP   
04544:  BTFSC  x3F.1
04546:  BRA    454C
04548:  BCF    F8A.0
0454A:  BRA    454E
0454C:  BSF    F8A.0
0454E:  BCF    F93.0
04550:  BRA    4552
04552:  BCF    F8A.0
04554:  BCF    F93.0
.................... 			output_bit(LED_OUT,1);delay_cycles(1);	output_bit(LED_OUT,bit_test(tmp_buffer_2,0));delay_cycles(2);	output_bit(LED_OUT,0); 
04556:  BSF    F8A.0
04558:  BCF    F93.0
0455A:  NOP   
0455C:  BTFSC  x3F.0
0455E:  BRA    4564
04560:  BCF    F8A.0
04562:  BRA    4566
04564:  BSF    F8A.0
04566:  BCF    F93.0
04568:  BRA    456A
0456A:  BCF    F8A.0
0456C:  BCF    F93.0
....................  
.................... 			//Of[^M 
.................... 			output_bit(LED_OUT,1);delay_cycles(1);	output_bit(LED_OUT,bit_test(tmp_buffer_3,7));delay_cycles(2);	output_bit(LED_OUT,0); 
0456E:  BSF    F8A.0
04570:  BCF    F93.0
04572:  NOP   
04574:  BTFSC  x40.7
04576:  BRA    457C
04578:  BCF    F8A.0
0457A:  BRA    457E
0457C:  BSF    F8A.0
0457E:  BCF    F93.0
04580:  BRA    4582
04582:  BCF    F8A.0
04584:  BCF    F93.0
.................... 			output_bit(LED_OUT,1);delay_cycles(1);	output_bit(LED_OUT,bit_test(tmp_buffer_3,6));delay_cycles(2);	output_bit(LED_OUT,0); 
04586:  BSF    F8A.0
04588:  BCF    F93.0
0458A:  NOP   
0458C:  BTFSC  x40.6
0458E:  BRA    4594
04590:  BCF    F8A.0
04592:  BRA    4596
04594:  BSF    F8A.0
04596:  BCF    F93.0
04598:  BRA    459A
0459A:  BCF    F8A.0
0459C:  BCF    F93.0
.................... 			output_bit(LED_OUT,1);delay_cycles(1);	output_bit(LED_OUT,bit_test(tmp_buffer_3,5));delay_cycles(2);	output_bit(LED_OUT,0); 
0459E:  BSF    F8A.0
045A0:  BCF    F93.0
045A2:  NOP   
045A4:  BTFSC  x40.5
045A6:  BRA    45AC
045A8:  BCF    F8A.0
045AA:  BRA    45AE
045AC:  BSF    F8A.0
045AE:  BCF    F93.0
045B0:  BRA    45B2
045B2:  BCF    F8A.0
045B4:  BCF    F93.0
.................... 			output_bit(LED_OUT,1);delay_cycles(1);	output_bit(LED_OUT,bit_test(tmp_buffer_3,4));delay_cycles(2);	output_bit(LED_OUT,0); 
045B6:  BSF    F8A.0
045B8:  BCF    F93.0
045BA:  NOP   
045BC:  BTFSC  x40.4
045BE:  BRA    45C4
045C0:  BCF    F8A.0
045C2:  BRA    45C6
045C4:  BSF    F8A.0
045C6:  BCF    F93.0
045C8:  BRA    45CA
045CA:  BCF    F8A.0
045CC:  BCF    F93.0
.................... 			output_bit(LED_OUT,1);delay_cycles(1);	output_bit(LED_OUT,bit_test(tmp_buffer_3,3));delay_cycles(2);	output_bit(LED_OUT,0); 
045CE:  BSF    F8A.0
045D0:  BCF    F93.0
045D2:  NOP   
045D4:  BTFSC  x40.3
045D6:  BRA    45DC
045D8:  BCF    F8A.0
045DA:  BRA    45DE
045DC:  BSF    F8A.0
045DE:  BCF    F93.0
045E0:  BRA    45E2
045E2:  BCF    F8A.0
045E4:  BCF    F93.0
.................... 			output_bit(LED_OUT,1);delay_cycles(1);	output_bit(LED_OUT,bit_test(tmp_buffer_3,2));delay_cycles(2);	output_bit(LED_OUT,0); 
045E6:  BSF    F8A.0
045E8:  BCF    F93.0
045EA:  NOP   
045EC:  BTFSC  x40.2
045EE:  BRA    45F4
045F0:  BCF    F8A.0
045F2:  BRA    45F6
045F4:  BSF    F8A.0
045F6:  BCF    F93.0
045F8:  BRA    45FA
045FA:  BCF    F8A.0
045FC:  BCF    F93.0
.................... 			output_bit(LED_OUT,1);delay_cycles(1);	output_bit(LED_OUT,bit_test(tmp_buffer_3,1));delay_cycles(2);	output_bit(LED_OUT,0); 
045FE:  BSF    F8A.0
04600:  BCF    F93.0
04602:  NOP   
04604:  BTFSC  x40.1
04606:  BRA    460C
04608:  BCF    F8A.0
0460A:  BRA    460E
0460C:  BSF    F8A.0
0460E:  BCF    F93.0
04610:  BRA    4612
04612:  BCF    F8A.0
04614:  BCF    F93.0
.................... 			output_bit(LED_OUT,1);delay_cycles(1);	output_bit(LED_OUT,bit_test(tmp_buffer_3,0));delay_cycles(2);	output_bit(LED_OUT,0); 
04616:  BSF    F8A.0
04618:  BCF    F93.0
0461A:  NOP   
0461C:  BTFSC  x40.0
0461E:  BRA    4624
04620:  BCF    F8A.0
04622:  BRA    4626
04624:  BSF    F8A.0
04626:  BCF    F93.0
04628:  BRA    462A
0462A:  BCF    F8A.0
0462C:  BCF    F93.0
.................... 			 
.................... 			delay_us(1);delay_cycles(3); 
0462E:  MOVLW  05
04630:  MOVWF  00
04632:  DECFSZ 00,F
04634:  BRA    4632
04636:  BRA    4638
04638:  NOP   
.................... 		} 
0463A:  INCF   x3C,F
0463C:  BTFSC  FD8.2
0463E:  INCF   x3D,F
04640:  BRA    43AC
....................  
.................... 		//end 
.................... 		output_bit(LED_OUT,1);// 
04642:  BSF    F8A.0
04644:  BCF    F93.0
.................... 	}else if(led_timing == 2){ 
04646:  GOTO   4D8E
0464A:  MOVLB  1
0464C:  MOVF   x1E,W
0464E:  SUBLW  02
04650:  BTFSS  FD8.2
04652:  BRA    4A12
.................... 		//RESET 
.................... 		output_bit(LED_OUT,1);//DEF 
04654:  BSF    F8A.0
04656:  BCF    F93.0
.................... 		output_bit(LED_OUT,0);//RESET 
04658:  BCF    F8A.0
0465A:  BCF    F93.0
.................... 		delay_ms(1);//t@X50uSecPYB 
0465C:  MOVLW  01
0465E:  MOVLB  4
04660:  MOVWF  x41
04662:  MOVLB  0
04664:  CALL   385C
.................... 		//delay_ms(20);//t@X50uSecPYB 
....................  
.................... 		//f[^M 
.................... 		for(tmp1 = 0;tmp1<ws281x_led_value;tmp1++){ 
04668:  MOVLB  4
0466A:  CLRF   x3D
0466C:  CLRF   x3C
0466E:  MOVF   x3D,W
04670:  SUBWF  x26,W
04672:  BTFSS  FD8.0
04674:  BRA    4A0A
04676:  BNZ   4680
04678:  MOVF   x25,W
0467A:  SUBWF  x3C,W
0467C:  BTFSC  FD8.0
0467E:  BRA    4A0A
.................... 			if(led_signaltype == 0){ 
04680:  MOVLB  1
04682:  MOVF   x1D,F
04684:  BNZ   46BC
.................... 				//0=grb 
.................... 				tmp_buffer_1 = ws281x_buffer_g[tmp1]; 
04686:  MOVLW  23
04688:  MOVLB  4
0468A:  ADDWF  x3C,W
0468C:  MOVWF  FE9
0468E:  MOVLW  02
04690:  ADDWFC x3D,W
04692:  MOVWF  FEA
04694:  MOVFF  FEF,43E
.................... 				tmp_buffer_2 = ws281x_buffer_r[tmp1]; 
04698:  MOVLW  22
0469A:  ADDWF  x3C,W
0469C:  MOVWF  FE9
0469E:  MOVLW  01
046A0:  ADDWFC x3D,W
046A2:  MOVWF  FEA
046A4:  MOVFF  FEF,43F
.................... 				tmp_buffer_3 = ws281x_buffer_b[tmp1]; 
046A8:  MOVLW  24
046AA:  ADDWF  x3C,W
046AC:  MOVWF  FE9
046AE:  MOVLW  03
046B0:  ADDWFC x3D,W
046B2:  MOVWF  FEA
046B4:  MOVFF  FEF,440
.................... 			}else if(led_signaltype == 1){ 
046B8:  BRA    46F2
046BA:  MOVLB  1
046BC:  DECFSZ x1D,W
046BE:  BRA    46F4
.................... 				//1=rgb 
.................... 				tmp_buffer_1 = ws281x_buffer_r[tmp1]; 
046C0:  MOVLW  22
046C2:  MOVLB  4
046C4:  ADDWF  x3C,W
046C6:  MOVWF  FE9
046C8:  MOVLW  01
046CA:  ADDWFC x3D,W
046CC:  MOVWF  FEA
046CE:  MOVFF  FEF,43E
.................... 				tmp_buffer_2 = ws281x_buffer_g[tmp1]; 
046D2:  MOVLW  23
046D4:  ADDWF  x3C,W
046D6:  MOVWF  FE9
046D8:  MOVLW  02
046DA:  ADDWFC x3D,W
046DC:  MOVWF  FEA
046DE:  MOVFF  FEF,43F
.................... 				tmp_buffer_3 = ws281x_buffer_b[tmp1]; 
046E2:  MOVLW  24
046E4:  ADDWF  x3C,W
046E6:  MOVWF  FE9
046E8:  MOVLW  03
046EA:  ADDWFC x3D,W
046EC:  MOVWF  FEA
046EE:  MOVFF  FEF,440
046F2:  MOVLB  1
.................... 			} 
....................  
.................... 			//f[^M 
.................... 			output_bit(LED_OUT,1);delay_cycles(1);			output_bit(LED_OUT,bit_test(tmp_buffer_1,7));delay_cycles(5);			output_bit(LED_OUT,0);delay_cycles(4); 
046F4:  BSF    F8A.0
046F6:  BCF    F93.0
046F8:  NOP   
046FA:  MOVLB  4
046FC:  BTFSC  x3E.7
046FE:  BRA    4704
04700:  BCF    F8A.0
04702:  BRA    4706
04704:  BSF    F8A.0
04706:  BCF    F93.0
04708:  BRA    470A
0470A:  BRA    470C
0470C:  NOP   
0470E:  BCF    F8A.0
04710:  BCF    F93.0
04712:  BRA    4714
04714:  BRA    4716
.................... 			output_bit(LED_OUT,1);delay_cycles(1);			output_bit(LED_OUT,bit_test(tmp_buffer_1,6));delay_cycles(5);			output_bit(LED_OUT,0);delay_cycles(4); 
04716:  BSF    F8A.0
04718:  BCF    F93.0
0471A:  NOP   
0471C:  BTFSC  x3E.6
0471E:  BRA    4724
04720:  BCF    F8A.0
04722:  BRA    4726
04724:  BSF    F8A.0
04726:  BCF    F93.0
04728:  BRA    472A
0472A:  BRA    472C
0472C:  NOP   
0472E:  BCF    F8A.0
04730:  BCF    F93.0
04732:  BRA    4734
04734:  BRA    4736
.................... 			output_bit(LED_OUT,1);delay_cycles(1);			output_bit(LED_OUT,bit_test(tmp_buffer_1,5));delay_cycles(5);			output_bit(LED_OUT,0);delay_cycles(4); 
04736:  BSF    F8A.0
04738:  BCF    F93.0
0473A:  NOP   
0473C:  BTFSC  x3E.5
0473E:  BRA    4744
04740:  BCF    F8A.0
04742:  BRA    4746
04744:  BSF    F8A.0
04746:  BCF    F93.0
04748:  BRA    474A
0474A:  BRA    474C
0474C:  NOP   
0474E:  BCF    F8A.0
04750:  BCF    F93.0
04752:  BRA    4754
04754:  BRA    4756
.................... 			output_bit(LED_OUT,1);delay_cycles(1);			output_bit(LED_OUT,bit_test(tmp_buffer_1,4));delay_cycles(5);			output_bit(LED_OUT,0);delay_cycles(4); 
04756:  BSF    F8A.0
04758:  BCF    F93.0
0475A:  NOP   
0475C:  BTFSC  x3E.4
0475E:  BRA    4764
04760:  BCF    F8A.0
04762:  BRA    4766
04764:  BSF    F8A.0
04766:  BCF    F93.0
04768:  BRA    476A
0476A:  BRA    476C
0476C:  NOP   
0476E:  BCF    F8A.0
04770:  BCF    F93.0
04772:  BRA    4774
04774:  BRA    4776
.................... 			output_bit(LED_OUT,1);delay_cycles(1);			output_bit(LED_OUT,bit_test(tmp_buffer_1,3));delay_cycles(5);			output_bit(LED_OUT,0);delay_cycles(4); 
04776:  BSF    F8A.0
04778:  BCF    F93.0
0477A:  NOP   
0477C:  BTFSC  x3E.3
0477E:  BRA    4784
04780:  BCF    F8A.0
04782:  BRA    4786
04784:  BSF    F8A.0
04786:  BCF    F93.0
04788:  BRA    478A
0478A:  BRA    478C
0478C:  NOP   
0478E:  BCF    F8A.0
04790:  BCF    F93.0
04792:  BRA    4794
04794:  BRA    4796
.................... 			output_bit(LED_OUT,1);delay_cycles(1);			output_bit(LED_OUT,bit_test(tmp_buffer_1,2));delay_cycles(5);			output_bit(LED_OUT,0);delay_cycles(4); 
04796:  BSF    F8A.0
04798:  BCF    F93.0
0479A:  NOP   
0479C:  BTFSC  x3E.2
0479E:  BRA    47A4
047A0:  BCF    F8A.0
047A2:  BRA    47A6
047A4:  BSF    F8A.0
047A6:  BCF    F93.0
047A8:  BRA    47AA
047AA:  BRA    47AC
047AC:  NOP   
047AE:  BCF    F8A.0
047B0:  BCF    F93.0
047B2:  BRA    47B4
047B4:  BRA    47B6
.................... 			output_bit(LED_OUT,1);delay_cycles(1);			output_bit(LED_OUT,bit_test(tmp_buffer_1,1));delay_cycles(5);			output_bit(LED_OUT,0);delay_cycles(4); 
047B6:  BSF    F8A.0
047B8:  BCF    F93.0
047BA:  NOP   
047BC:  BTFSC  x3E.1
047BE:  BRA    47C4
047C0:  BCF    F8A.0
047C2:  BRA    47C6
047C4:  BSF    F8A.0
047C6:  BCF    F93.0
047C8:  BRA    47CA
047CA:  BRA    47CC
047CC:  NOP   
047CE:  BCF    F8A.0
047D0:  BCF    F93.0
047D2:  BRA    47D4
047D4:  BRA    47D6
.................... 			output_bit(LED_OUT,1);delay_cycles(1);			output_bit(LED_OUT,bit_test(tmp_buffer_1,0));delay_cycles(5);			output_bit(LED_OUT,0);delay_cycles(4); 
047D6:  BSF    F8A.0
047D8:  BCF    F93.0
047DA:  NOP   
047DC:  BTFSC  x3E.0
047DE:  BRA    47E4
047E0:  BCF    F8A.0
047E2:  BRA    47E6
047E4:  BSF    F8A.0
047E6:  BCF    F93.0
047E8:  BRA    47EA
047EA:  BRA    47EC
047EC:  NOP   
047EE:  BCF    F8A.0
047F0:  BCF    F93.0
047F2:  BRA    47F4
047F4:  BRA    47F6
....................  
.................... 			//f[^M 
.................... 			output_bit(LED_OUT,1);delay_cycles(1);			output_bit(LED_OUT,bit_test(tmp_buffer_2,7));delay_cycles(5);			output_bit(LED_OUT,0);delay_cycles(4); 
047F6:  BSF    F8A.0
047F8:  BCF    F93.0
047FA:  NOP   
047FC:  BTFSC  x3F.7
047FE:  BRA    4804
04800:  BCF    F8A.0
04802:  BRA    4806
04804:  BSF    F8A.0
04806:  BCF    F93.0
04808:  BRA    480A
0480A:  BRA    480C
0480C:  NOP   
0480E:  BCF    F8A.0
04810:  BCF    F93.0
04812:  BRA    4814
04814:  BRA    4816
.................... 			output_bit(LED_OUT,1);delay_cycles(1);			output_bit(LED_OUT,bit_test(tmp_buffer_2,6));delay_cycles(5);			output_bit(LED_OUT,0);delay_cycles(4); 
04816:  BSF    F8A.0
04818:  BCF    F93.0
0481A:  NOP   
0481C:  BTFSC  x3F.6
0481E:  BRA    4824
04820:  BCF    F8A.0
04822:  BRA    4826
04824:  BSF    F8A.0
04826:  BCF    F93.0
04828:  BRA    482A
0482A:  BRA    482C
0482C:  NOP   
0482E:  BCF    F8A.0
04830:  BCF    F93.0
04832:  BRA    4834
04834:  BRA    4836
.................... 			output_bit(LED_OUT,1);delay_cycles(1);			output_bit(LED_OUT,bit_test(tmp_buffer_2,5));delay_cycles(5);			output_bit(LED_OUT,0);delay_cycles(4); 
04836:  BSF    F8A.0
04838:  BCF    F93.0
0483A:  NOP   
0483C:  BTFSC  x3F.5
0483E:  BRA    4844
04840:  BCF    F8A.0
04842:  BRA    4846
04844:  BSF    F8A.0
04846:  BCF    F93.0
04848:  BRA    484A
0484A:  BRA    484C
0484C:  NOP   
0484E:  BCF    F8A.0
04850:  BCF    F93.0
04852:  BRA    4854
04854:  BRA    4856
.................... 			output_bit(LED_OUT,1);delay_cycles(1);			output_bit(LED_OUT,bit_test(tmp_buffer_2,4));delay_cycles(5);			output_bit(LED_OUT,0);delay_cycles(4); 
04856:  BSF    F8A.0
04858:  BCF    F93.0
0485A:  NOP   
0485C:  BTFSC  x3F.4
0485E:  BRA    4864
04860:  BCF    F8A.0
04862:  BRA    4866
04864:  BSF    F8A.0
04866:  BCF    F93.0
04868:  BRA    486A
0486A:  BRA    486C
0486C:  NOP   
0486E:  BCF    F8A.0
04870:  BCF    F93.0
04872:  BRA    4874
04874:  BRA    4876
.................... 			output_bit(LED_OUT,1);delay_cycles(1);			output_bit(LED_OUT,bit_test(tmp_buffer_2,3));delay_cycles(5);			output_bit(LED_OUT,0);delay_cycles(4); 
04876:  BSF    F8A.0
04878:  BCF    F93.0
0487A:  NOP   
0487C:  BTFSC  x3F.3
0487E:  BRA    4884
04880:  BCF    F8A.0
04882:  BRA    4886
04884:  BSF    F8A.0
04886:  BCF    F93.0
04888:  BRA    488A
0488A:  BRA    488C
0488C:  NOP   
0488E:  BCF    F8A.0
04890:  BCF    F93.0
04892:  BRA    4894
04894:  BRA    4896
.................... 			output_bit(LED_OUT,1);delay_cycles(1);			output_bit(LED_OUT,bit_test(tmp_buffer_2,2));delay_cycles(5);			output_bit(LED_OUT,0);delay_cycles(4); 
04896:  BSF    F8A.0
04898:  BCF    F93.0
0489A:  NOP   
0489C:  BTFSC  x3F.2
0489E:  BRA    48A4
048A0:  BCF    F8A.0
048A2:  BRA    48A6
048A4:  BSF    F8A.0
048A6:  BCF    F93.0
048A8:  BRA    48AA
048AA:  BRA    48AC
048AC:  NOP   
048AE:  BCF    F8A.0
048B0:  BCF    F93.0
048B2:  BRA    48B4
048B4:  BRA    48B6
.................... 			output_bit(LED_OUT,1);delay_cycles(1);			output_bit(LED_OUT,bit_test(tmp_buffer_2,1));delay_cycles(5);			output_bit(LED_OUT,0);delay_cycles(4); 
048B6:  BSF    F8A.0
048B8:  BCF    F93.0
048BA:  NOP   
048BC:  BTFSC  x3F.1
048BE:  BRA    48C4
048C0:  BCF    F8A.0
048C2:  BRA    48C6
048C4:  BSF    F8A.0
048C6:  BCF    F93.0
048C8:  BRA    48CA
048CA:  BRA    48CC
048CC:  NOP   
048CE:  BCF    F8A.0
048D0:  BCF    F93.0
048D2:  BRA    48D4
048D4:  BRA    48D6
.................... 			output_bit(LED_OUT,1);delay_cycles(1);			output_bit(LED_OUT,bit_test(tmp_buffer_2,0));delay_cycles(5);			output_bit(LED_OUT,0);delay_cycles(4); 
048D6:  BSF    F8A.0
048D8:  BCF    F93.0
048DA:  NOP   
048DC:  BTFSC  x3F.0
048DE:  BRA    48E4
048E0:  BCF    F8A.0
048E2:  BRA    48E6
048E4:  BSF    F8A.0
048E6:  BCF    F93.0
048E8:  BRA    48EA
048EA:  BRA    48EC
048EC:  NOP   
048EE:  BCF    F8A.0
048F0:  BCF    F93.0
048F2:  BRA    48F4
048F4:  BRA    48F6
....................  
.................... 			//Of[^M 
.................... 			output_bit(LED_OUT,1);delay_cycles(1);			output_bit(LED_OUT,bit_test(tmp_buffer_3,7));delay_cycles(5);			output_bit(LED_OUT,0);delay_cycles(4); 
048F6:  BSF    F8A.0
048F8:  BCF    F93.0
048FA:  NOP   
048FC:  BTFSC  x40.7
048FE:  BRA    4904
04900:  BCF    F8A.0
04902:  BRA    4906
04904:  BSF    F8A.0
04906:  BCF    F93.0
04908:  BRA    490A
0490A:  BRA    490C
0490C:  NOP   
0490E:  BCF    F8A.0
04910:  BCF    F93.0
04912:  BRA    4914
04914:  BRA    4916
.................... 			output_bit(LED_OUT,1);delay_cycles(1);			output_bit(LED_OUT,bit_test(tmp_buffer_3,6));delay_cycles(5);			output_bit(LED_OUT,0);delay_cycles(4); 
04916:  BSF    F8A.0
04918:  BCF    F93.0
0491A:  NOP   
0491C:  BTFSC  x40.6
0491E:  BRA    4924
04920:  BCF    F8A.0
04922:  BRA    4926
04924:  BSF    F8A.0
04926:  BCF    F93.0
04928:  BRA    492A
0492A:  BRA    492C
0492C:  NOP   
0492E:  BCF    F8A.0
04930:  BCF    F93.0
04932:  BRA    4934
04934:  BRA    4936
.................... 			output_bit(LED_OUT,1);delay_cycles(1);			output_bit(LED_OUT,bit_test(tmp_buffer_3,5));delay_cycles(5);			output_bit(LED_OUT,0);delay_cycles(4); 
04936:  BSF    F8A.0
04938:  BCF    F93.0
0493A:  NOP   
0493C:  BTFSC  x40.5
0493E:  BRA    4944
04940:  BCF    F8A.0
04942:  BRA    4946
04944:  BSF    F8A.0
04946:  BCF    F93.0
04948:  BRA    494A
0494A:  BRA    494C
0494C:  NOP   
0494E:  BCF    F8A.0
04950:  BCF    F93.0
04952:  BRA    4954
04954:  BRA    4956
.................... 			output_bit(LED_OUT,1);delay_cycles(1);			output_bit(LED_OUT,bit_test(tmp_buffer_3,4));delay_cycles(5);			output_bit(LED_OUT,0);delay_cycles(4); 
04956:  BSF    F8A.0
04958:  BCF    F93.0
0495A:  NOP   
0495C:  BTFSC  x40.4
0495E:  BRA    4964
04960:  BCF    F8A.0
04962:  BRA    4966
04964:  BSF    F8A.0
04966:  BCF    F93.0
04968:  BRA    496A
0496A:  BRA    496C
0496C:  NOP   
0496E:  BCF    F8A.0
04970:  BCF    F93.0
04972:  BRA    4974
04974:  BRA    4976
.................... 			output_bit(LED_OUT,1);delay_cycles(1);			output_bit(LED_OUT,bit_test(tmp_buffer_3,3));delay_cycles(5);			output_bit(LED_OUT,0);delay_cycles(4); 
04976:  BSF    F8A.0
04978:  BCF    F93.0
0497A:  NOP   
0497C:  BTFSC  x40.3
0497E:  BRA    4984
04980:  BCF    F8A.0
04982:  BRA    4986
04984:  BSF    F8A.0
04986:  BCF    F93.0
04988:  BRA    498A
0498A:  BRA    498C
0498C:  NOP   
0498E:  BCF    F8A.0
04990:  BCF    F93.0
04992:  BRA    4994
04994:  BRA    4996
.................... 			output_bit(LED_OUT,1);delay_cycles(1);			output_bit(LED_OUT,bit_test(tmp_buffer_3,2));delay_cycles(5);			output_bit(LED_OUT,0);delay_cycles(4); 
04996:  BSF    F8A.0
04998:  BCF    F93.0
0499A:  NOP   
0499C:  BTFSC  x40.2
0499E:  BRA    49A4
049A0:  BCF    F8A.0
049A2:  BRA    49A6
049A4:  BSF    F8A.0
049A6:  BCF    F93.0
049A8:  BRA    49AA
049AA:  BRA    49AC
049AC:  NOP   
049AE:  BCF    F8A.0
049B0:  BCF    F93.0
049B2:  BRA    49B4
049B4:  BRA    49B6
.................... 			output_bit(LED_OUT,1);delay_cycles(1);			output_bit(LED_OUT,bit_test(tmp_buffer_3,1));delay_cycles(5);			output_bit(LED_OUT,0);delay_cycles(4); 
049B6:  BSF    F8A.0
049B8:  BCF    F93.0
049BA:  NOP   
049BC:  BTFSC  x40.1
049BE:  BRA    49C4
049C0:  BCF    F8A.0
049C2:  BRA    49C6
049C4:  BSF    F8A.0
049C6:  BCF    F93.0
049C8:  BRA    49CA
049CA:  BRA    49CC
049CC:  NOP   
049CE:  BCF    F8A.0
049D0:  BCF    F93.0
049D2:  BRA    49D4
049D4:  BRA    49D6
.................... 			output_bit(LED_OUT,1);delay_cycles(1);			output_bit(LED_OUT,bit_test(tmp_buffer_3,0));delay_cycles(5);			output_bit(LED_OUT,0);delay_cycles(4); 
049D6:  BSF    F8A.0
049D8:  BCF    F93.0
049DA:  NOP   
049DC:  BTFSC  x40.0
049DE:  BRA    49E4
049E0:  BCF    F8A.0
049E2:  BRA    49E6
049E4:  BSF    F8A.0
049E6:  BCF    F93.0
049E8:  BRA    49EA
049EA:  BRA    49EC
049EC:  NOP   
049EE:  BCF    F8A.0
049F0:  BCF    F93.0
049F2:  BRA    49F4
049F4:  BRA    49F6
.................... 			 
.................... 			delay_us(1);delay_cycles(3); 
049F6:  MOVLW  05
049F8:  MOVWF  00
049FA:  DECFSZ 00,F
049FC:  BRA    49FA
049FE:  BRA    4A00
04A00:  NOP   
.................... 		} 
04A02:  INCF   x3C,F
04A04:  BTFSC  FD8.2
04A06:  INCF   x3D,F
04A08:  BRA    466E
....................  
.................... 		//end 
.................... 		output_bit(LED_OUT,1);//			 
04A0A:  BSF    F8A.0
04A0C:  BCF    F93.0
.................... 	}else if(led_timing == 3){ 
04A0E:  BRA    4D8E
04A10:  MOVLB  1
04A12:  MOVF   x1E,W
04A14:  SUBLW  03
04A16:  BTFSS  FD8.2
04A18:  BRA    4D90
.................... 		//eXgp^C~OCLED 
....................  
.................... 		//RESET 
.................... 		output_bit(LED_OUT,1);//DEF 
04A1A:  BSF    F8A.0
04A1C:  BCF    F93.0
.................... 		output_bit(LED_OUT,0);//RESET 
04A1E:  BCF    F8A.0
04A20:  BCF    F93.0
.................... 		delay_ms(1);//t@X50uSecPYB 
04A22:  MOVLW  01
04A24:  MOVLB  4
04A26:  MOVWF  x41
04A28:  MOVLB  0
04A2A:  CALL   385C
.................... 		//delay_ms(20);//t@X50uSecPYB 
....................  
.................... 		//f[^M 
.................... 		for(tmp1 = 0;tmp1<ws281x_led_value;tmp1++){ 
04A2E:  MOVLB  4
04A30:  CLRF   x3D
04A32:  CLRF   x3C
04A34:  MOVF   x3D,W
04A36:  SUBWF  x26,W
04A38:  BTFSS  FD8.0
04A3A:  BRA    4D8A
04A3C:  BNZ   4A46
04A3E:  MOVF   x25,W
04A40:  SUBWF  x3C,W
04A42:  BTFSC  FD8.0
04A44:  BRA    4D8A
.................... 			tmp_buffer_1 = ws281x_buffer_g[tmp1]; 
04A46:  MOVLW  23
04A48:  ADDWF  x3C,W
04A4A:  MOVWF  FE9
04A4C:  MOVLW  02
04A4E:  ADDWFC x3D,W
04A50:  MOVWF  FEA
04A52:  MOVFF  FEF,43E
.................... 			tmp_buffer_2 = ws281x_buffer_r[tmp1]; 
04A56:  MOVLW  22
04A58:  ADDWF  x3C,W
04A5A:  MOVWF  FE9
04A5C:  MOVLW  01
04A5E:  ADDWFC x3D,W
04A60:  MOVWF  FEA
04A62:  MOVFF  FEF,43F
.................... 			tmp_buffer_3 = ws281x_buffer_b[tmp1]; 
04A66:  MOVLW  24
04A68:  ADDWF  x3C,W
04A6A:  MOVWF  FE9
04A6C:  MOVLW  03
04A6E:  ADDWFC x3D,W
04A70:  MOVWF  FEA
04A72:  MOVFF  FEF,440
.................... 			// if(led_signaltype == 0){ 
.................... 			// 	//0=grb 
.................... 			// 	tmp_buffer_1 = ws281x_buffer_g[tmp1]; 
.................... 			// 	tmp_buffer_2 = ws281x_buffer_r[tmp1]; 
.................... 			// 	tmp_buffer_3 = ws281x_buffer_b[tmp1]; 
.................... 			// }else if(led_signaltype == 1){ 
.................... 			// 	//1=rgb 
.................... 			// 	tmp_buffer_1 = ws281x_buffer_r[tmp1]; 
.................... 			// 	tmp_buffer_2 = ws281x_buffer_g[tmp1]; 
.................... 			// 	tmp_buffer_3 = ws281x_buffer_b[tmp1]; 
.................... 			// } 
....................  
.................... 			//f[^M 
.................... 			output_bit(LED_OUT,1);delay_cycles(2);			output_bit(LED_OUT,bit_test(tmp_buffer_1,7));delay_cycles(5);			output_bit(LED_OUT,0);delay_cycles(4); 
04A76:  BSF    F8A.0
04A78:  BCF    F93.0
04A7A:  BRA    4A7C
04A7C:  BTFSC  x3E.7
04A7E:  BRA    4A84
04A80:  BCF    F8A.0
04A82:  BRA    4A86
04A84:  BSF    F8A.0
04A86:  BCF    F93.0
04A88:  BRA    4A8A
04A8A:  BRA    4A8C
04A8C:  NOP   
04A8E:  BCF    F8A.0
04A90:  BCF    F93.0
04A92:  BRA    4A94
04A94:  BRA    4A96
.................... 			output_bit(LED_OUT,1);delay_cycles(2);			output_bit(LED_OUT,bit_test(tmp_buffer_1,6));delay_cycles(5);			output_bit(LED_OUT,0);delay_cycles(4); 
04A96:  BSF    F8A.0
04A98:  BCF    F93.0
04A9A:  BRA    4A9C
04A9C:  BTFSC  x3E.6
04A9E:  BRA    4AA4
04AA0:  BCF    F8A.0
04AA2:  BRA    4AA6
04AA4:  BSF    F8A.0
04AA6:  BCF    F93.0
04AA8:  BRA    4AAA
04AAA:  BRA    4AAC
04AAC:  NOP   
04AAE:  BCF    F8A.0
04AB0:  BCF    F93.0
04AB2:  BRA    4AB4
04AB4:  BRA    4AB6
.................... 			output_bit(LED_OUT,1);delay_cycles(2);			output_bit(LED_OUT,bit_test(tmp_buffer_1,5));delay_cycles(5);			output_bit(LED_OUT,0);delay_cycles(4); 
04AB6:  BSF    F8A.0
04AB8:  BCF    F93.0
04ABA:  BRA    4ABC
04ABC:  BTFSC  x3E.5
04ABE:  BRA    4AC4
04AC0:  BCF    F8A.0
04AC2:  BRA    4AC6
04AC4:  BSF    F8A.0
04AC6:  BCF    F93.0
04AC8:  BRA    4ACA
04ACA:  BRA    4ACC
04ACC:  NOP   
04ACE:  BCF    F8A.0
04AD0:  BCF    F93.0
04AD2:  BRA    4AD4
04AD4:  BRA    4AD6
.................... 			output_bit(LED_OUT,1);delay_cycles(2);			output_bit(LED_OUT,bit_test(tmp_buffer_1,4));delay_cycles(5);			output_bit(LED_OUT,0);delay_cycles(4); 
04AD6:  BSF    F8A.0
04AD8:  BCF    F93.0
04ADA:  BRA    4ADC
04ADC:  BTFSC  x3E.4
04ADE:  BRA    4AE4
04AE0:  BCF    F8A.0
04AE2:  BRA    4AE6
04AE4:  BSF    F8A.0
04AE6:  BCF    F93.0
04AE8:  BRA    4AEA
04AEA:  BRA    4AEC
04AEC:  NOP   
04AEE:  BCF    F8A.0
04AF0:  BCF    F93.0
04AF2:  BRA    4AF4
04AF4:  BRA    4AF6
.................... 			output_bit(LED_OUT,1);delay_cycles(2);			output_bit(LED_OUT,bit_test(tmp_buffer_1,3));delay_cycles(5);			output_bit(LED_OUT,0);delay_cycles(4); 
04AF6:  BSF    F8A.0
04AF8:  BCF    F93.0
04AFA:  BRA    4AFC
04AFC:  BTFSC  x3E.3
04AFE:  BRA    4B04
04B00:  BCF    F8A.0
04B02:  BRA    4B06
04B04:  BSF    F8A.0
04B06:  BCF    F93.0
04B08:  BRA    4B0A
04B0A:  BRA    4B0C
04B0C:  NOP   
04B0E:  BCF    F8A.0
04B10:  BCF    F93.0
04B12:  BRA    4B14
04B14:  BRA    4B16
.................... 			output_bit(LED_OUT,1);delay_cycles(2);			output_bit(LED_OUT,bit_test(tmp_buffer_1,2));delay_cycles(5);			output_bit(LED_OUT,0);delay_cycles(4); 
04B16:  BSF    F8A.0
04B18:  BCF    F93.0
04B1A:  BRA    4B1C
04B1C:  BTFSC  x3E.2
04B1E:  BRA    4B24
04B20:  BCF    F8A.0
04B22:  BRA    4B26
04B24:  BSF    F8A.0
04B26:  BCF    F93.0
04B28:  BRA    4B2A
04B2A:  BRA    4B2C
04B2C:  NOP   
04B2E:  BCF    F8A.0
04B30:  BCF    F93.0
04B32:  BRA    4B34
04B34:  BRA    4B36
.................... 			output_bit(LED_OUT,1);delay_cycles(2);			output_bit(LED_OUT,bit_test(tmp_buffer_1,1));delay_cycles(5);			output_bit(LED_OUT,0);delay_cycles(4); 
04B36:  BSF    F8A.0
04B38:  BCF    F93.0
04B3A:  BRA    4B3C
04B3C:  BTFSC  x3E.1
04B3E:  BRA    4B44
04B40:  BCF    F8A.0
04B42:  BRA    4B46
04B44:  BSF    F8A.0
04B46:  BCF    F93.0
04B48:  BRA    4B4A
04B4A:  BRA    4B4C
04B4C:  NOP   
04B4E:  BCF    F8A.0
04B50:  BCF    F93.0
04B52:  BRA    4B54
04B54:  BRA    4B56
.................... 			output_bit(LED_OUT,1);delay_cycles(2);			output_bit(LED_OUT,bit_test(tmp_buffer_1,0));delay_cycles(5);			output_bit(LED_OUT,0);delay_cycles(4); 
04B56:  BSF    F8A.0
04B58:  BCF    F93.0
04B5A:  BRA    4B5C
04B5C:  BTFSC  x3E.0
04B5E:  BRA    4B64
04B60:  BCF    F8A.0
04B62:  BRA    4B66
04B64:  BSF    F8A.0
04B66:  BCF    F93.0
04B68:  BRA    4B6A
04B6A:  BRA    4B6C
04B6C:  NOP   
04B6E:  BCF    F8A.0
04B70:  BCF    F93.0
04B72:  BRA    4B74
04B74:  BRA    4B76
....................  
.................... 			//f[^M 
.................... 			output_bit(LED_OUT,1);delay_cycles(2);			output_bit(LED_OUT,bit_test(tmp_buffer_2,7));delay_cycles(5);			output_bit(LED_OUT,0);delay_cycles(4); 
04B76:  BSF    F8A.0
04B78:  BCF    F93.0
04B7A:  BRA    4B7C
04B7C:  BTFSC  x3F.7
04B7E:  BRA    4B84
04B80:  BCF    F8A.0
04B82:  BRA    4B86
04B84:  BSF    F8A.0
04B86:  BCF    F93.0
04B88:  BRA    4B8A
04B8A:  BRA    4B8C
04B8C:  NOP   
04B8E:  BCF    F8A.0
04B90:  BCF    F93.0
04B92:  BRA    4B94
04B94:  BRA    4B96
.................... 			output_bit(LED_OUT,1);delay_cycles(2);			output_bit(LED_OUT,bit_test(tmp_buffer_2,6));delay_cycles(5);			output_bit(LED_OUT,0);delay_cycles(4); 
04B96:  BSF    F8A.0
04B98:  BCF    F93.0
04B9A:  BRA    4B9C
04B9C:  BTFSC  x3F.6
04B9E:  BRA    4BA4
04BA0:  BCF    F8A.0
04BA2:  BRA    4BA6
04BA4:  BSF    F8A.0
04BA6:  BCF    F93.0
04BA8:  BRA    4BAA
04BAA:  BRA    4BAC
04BAC:  NOP   
04BAE:  BCF    F8A.0
04BB0:  BCF    F93.0
04BB2:  BRA    4BB4
04BB4:  BRA    4BB6
.................... 			output_bit(LED_OUT,1);delay_cycles(2);			output_bit(LED_OUT,bit_test(tmp_buffer_2,5));delay_cycles(5);			output_bit(LED_OUT,0);delay_cycles(4); 
04BB6:  BSF    F8A.0
04BB8:  BCF    F93.0
04BBA:  BRA    4BBC
04BBC:  BTFSC  x3F.5
04BBE:  BRA    4BC4
04BC0:  BCF    F8A.0
04BC2:  BRA    4BC6
04BC4:  BSF    F8A.0
04BC6:  BCF    F93.0
04BC8:  BRA    4BCA
04BCA:  BRA    4BCC
04BCC:  NOP   
04BCE:  BCF    F8A.0
04BD0:  BCF    F93.0
04BD2:  BRA    4BD4
04BD4:  BRA    4BD6
.................... 			output_bit(LED_OUT,1);delay_cycles(2);			output_bit(LED_OUT,bit_test(tmp_buffer_2,4));delay_cycles(5);			output_bit(LED_OUT,0);delay_cycles(4); 
04BD6:  BSF    F8A.0
04BD8:  BCF    F93.0
04BDA:  BRA    4BDC
04BDC:  BTFSC  x3F.4
04BDE:  BRA    4BE4
04BE0:  BCF    F8A.0
04BE2:  BRA    4BE6
04BE4:  BSF    F8A.0
04BE6:  BCF    F93.0
04BE8:  BRA    4BEA
04BEA:  BRA    4BEC
04BEC:  NOP   
04BEE:  BCF    F8A.0
04BF0:  BCF    F93.0
04BF2:  BRA    4BF4
04BF4:  BRA    4BF6
.................... 			output_bit(LED_OUT,1);delay_cycles(2);			output_bit(LED_OUT,bit_test(tmp_buffer_2,3));delay_cycles(5);			output_bit(LED_OUT,0);delay_cycles(4); 
04BF6:  BSF    F8A.0
04BF8:  BCF    F93.0
04BFA:  BRA    4BFC
04BFC:  BTFSC  x3F.3
04BFE:  BRA    4C04
04C00:  BCF    F8A.0
04C02:  BRA    4C06
04C04:  BSF    F8A.0
04C06:  BCF    F93.0
04C08:  BRA    4C0A
04C0A:  BRA    4C0C
04C0C:  NOP   
04C0E:  BCF    F8A.0
04C10:  BCF    F93.0
04C12:  BRA    4C14
04C14:  BRA    4C16
.................... 			output_bit(LED_OUT,1);delay_cycles(2);			output_bit(LED_OUT,bit_test(tmp_buffer_2,2));delay_cycles(5);			output_bit(LED_OUT,0);delay_cycles(4); 
04C16:  BSF    F8A.0
04C18:  BCF    F93.0
04C1A:  BRA    4C1C
04C1C:  BTFSC  x3F.2
04C1E:  BRA    4C24
04C20:  BCF    F8A.0
04C22:  BRA    4C26
04C24:  BSF    F8A.0
04C26:  BCF    F93.0
04C28:  BRA    4C2A
04C2A:  BRA    4C2C
04C2C:  NOP   
04C2E:  BCF    F8A.0
04C30:  BCF    F93.0
04C32:  BRA    4C34
04C34:  BRA    4C36
.................... 			output_bit(LED_OUT,1);delay_cycles(2);			output_bit(LED_OUT,bit_test(tmp_buffer_2,1));delay_cycles(5);			output_bit(LED_OUT,0);delay_cycles(4); 
04C36:  BSF    F8A.0
04C38:  BCF    F93.0
04C3A:  BRA    4C3C
04C3C:  BTFSC  x3F.1
04C3E:  BRA    4C44
04C40:  BCF    F8A.0
04C42:  BRA    4C46
04C44:  BSF    F8A.0
04C46:  BCF    F93.0
04C48:  BRA    4C4A
04C4A:  BRA    4C4C
04C4C:  NOP   
04C4E:  BCF    F8A.0
04C50:  BCF    F93.0
04C52:  BRA    4C54
04C54:  BRA    4C56
.................... 			output_bit(LED_OUT,1);delay_cycles(2);			output_bit(LED_OUT,bit_test(tmp_buffer_2,0));delay_cycles(5);			output_bit(LED_OUT,0);delay_cycles(4); 
04C56:  BSF    F8A.0
04C58:  BCF    F93.0
04C5A:  BRA    4C5C
04C5C:  BTFSC  x3F.0
04C5E:  BRA    4C64
04C60:  BCF    F8A.0
04C62:  BRA    4C66
04C64:  BSF    F8A.0
04C66:  BCF    F93.0
04C68:  BRA    4C6A
04C6A:  BRA    4C6C
04C6C:  NOP   
04C6E:  BCF    F8A.0
04C70:  BCF    F93.0
04C72:  BRA    4C74
04C74:  BRA    4C76
....................  
.................... 			//Of[^M 
.................... 			output_bit(LED_OUT,1);delay_cycles(2);			output_bit(LED_OUT,bit_test(tmp_buffer_3,7));delay_cycles(5);			output_bit(LED_OUT,0);delay_cycles(4); 
04C76:  BSF    F8A.0
04C78:  BCF    F93.0
04C7A:  BRA    4C7C
04C7C:  BTFSC  x40.7
04C7E:  BRA    4C84
04C80:  BCF    F8A.0
04C82:  BRA    4C86
04C84:  BSF    F8A.0
04C86:  BCF    F93.0
04C88:  BRA    4C8A
04C8A:  BRA    4C8C
04C8C:  NOP   
04C8E:  BCF    F8A.0
04C90:  BCF    F93.0
04C92:  BRA    4C94
04C94:  BRA    4C96
.................... 			output_bit(LED_OUT,1);delay_cycles(2);			output_bit(LED_OUT,bit_test(tmp_buffer_3,6));delay_cycles(5);			output_bit(LED_OUT,0);delay_cycles(4); 
04C96:  BSF    F8A.0
04C98:  BCF    F93.0
04C9A:  BRA    4C9C
04C9C:  BTFSC  x40.6
04C9E:  BRA    4CA4
04CA0:  BCF    F8A.0
04CA2:  BRA    4CA6
04CA4:  BSF    F8A.0
04CA6:  BCF    F93.0
04CA8:  BRA    4CAA
04CAA:  BRA    4CAC
04CAC:  NOP   
04CAE:  BCF    F8A.0
04CB0:  BCF    F93.0
04CB2:  BRA    4CB4
04CB4:  BRA    4CB6
.................... 			output_bit(LED_OUT,1);delay_cycles(2);			output_bit(LED_OUT,bit_test(tmp_buffer_3,5));delay_cycles(5);			output_bit(LED_OUT,0);delay_cycles(4); 
04CB6:  BSF    F8A.0
04CB8:  BCF    F93.0
04CBA:  BRA    4CBC
04CBC:  BTFSC  x40.5
04CBE:  BRA    4CC4
04CC0:  BCF    F8A.0
04CC2:  BRA    4CC6
04CC4:  BSF    F8A.0
04CC6:  BCF    F93.0
04CC8:  BRA    4CCA
04CCA:  BRA    4CCC
04CCC:  NOP   
04CCE:  BCF    F8A.0
04CD0:  BCF    F93.0
04CD2:  BRA    4CD4
04CD4:  BRA    4CD6
.................... 			output_bit(LED_OUT,1);delay_cycles(2);			output_bit(LED_OUT,bit_test(tmp_buffer_3,4));delay_cycles(5);			output_bit(LED_OUT,0);delay_cycles(4); 
04CD6:  BSF    F8A.0
04CD8:  BCF    F93.0
04CDA:  BRA    4CDC
04CDC:  BTFSC  x40.4
04CDE:  BRA    4CE4
04CE0:  BCF    F8A.0
04CE2:  BRA    4CE6
04CE4:  BSF    F8A.0
04CE6:  BCF    F93.0
04CE8:  BRA    4CEA
04CEA:  BRA    4CEC
04CEC:  NOP   
04CEE:  BCF    F8A.0
04CF0:  BCF    F93.0
04CF2:  BRA    4CF4
04CF4:  BRA    4CF6
.................... 			output_bit(LED_OUT,1);delay_cycles(2);			output_bit(LED_OUT,bit_test(tmp_buffer_3,3));delay_cycles(5);			output_bit(LED_OUT,0);delay_cycles(4); 
04CF6:  BSF    F8A.0
04CF8:  BCF    F93.0
04CFA:  BRA    4CFC
04CFC:  BTFSC  x40.3
04CFE:  BRA    4D04
04D00:  BCF    F8A.0
04D02:  BRA    4D06
04D04:  BSF    F8A.0
04D06:  BCF    F93.0
04D08:  BRA    4D0A
04D0A:  BRA    4D0C
04D0C:  NOP   
04D0E:  BCF    F8A.0
04D10:  BCF    F93.0
04D12:  BRA    4D14
04D14:  BRA    4D16
.................... 			output_bit(LED_OUT,1);delay_cycles(2);			output_bit(LED_OUT,bit_test(tmp_buffer_3,2));delay_cycles(5);			output_bit(LED_OUT,0);delay_cycles(4); 
04D16:  BSF    F8A.0
04D18:  BCF    F93.0
04D1A:  BRA    4D1C
04D1C:  BTFSC  x40.2
04D1E:  BRA    4D24
04D20:  BCF    F8A.0
04D22:  BRA    4D26
04D24:  BSF    F8A.0
04D26:  BCF    F93.0
04D28:  BRA    4D2A
04D2A:  BRA    4D2C
04D2C:  NOP   
04D2E:  BCF    F8A.0
04D30:  BCF    F93.0
04D32:  BRA    4D34
04D34:  BRA    4D36
.................... 			output_bit(LED_OUT,1);delay_cycles(2);			output_bit(LED_OUT,bit_test(tmp_buffer_3,1));delay_cycles(5);			output_bit(LED_OUT,0);delay_cycles(4); 
04D36:  BSF    F8A.0
04D38:  BCF    F93.0
04D3A:  BRA    4D3C
04D3C:  BTFSC  x40.1
04D3E:  BRA    4D44
04D40:  BCF    F8A.0
04D42:  BRA    4D46
04D44:  BSF    F8A.0
04D46:  BCF    F93.0
04D48:  BRA    4D4A
04D4A:  BRA    4D4C
04D4C:  NOP   
04D4E:  BCF    F8A.0
04D50:  BCF    F93.0
04D52:  BRA    4D54
04D54:  BRA    4D56
.................... 			output_bit(LED_OUT,1);delay_cycles(2);			output_bit(LED_OUT,bit_test(tmp_buffer_3,0));delay_cycles(5);			output_bit(LED_OUT,0);delay_cycles(4); 
04D56:  BSF    F8A.0
04D58:  BCF    F93.0
04D5A:  BRA    4D5C
04D5C:  BTFSC  x40.0
04D5E:  BRA    4D64
04D60:  BCF    F8A.0
04D62:  BRA    4D66
04D64:  BSF    F8A.0
04D66:  BCF    F93.0
04D68:  BRA    4D6A
04D6A:  BRA    4D6C
04D6C:  NOP   
04D6E:  BCF    F8A.0
04D70:  BCF    F93.0
04D72:  BRA    4D74
04D74:  BRA    4D76
.................... 			 
.................... 			delay_us(1);delay_cycles(3); 
04D76:  MOVLW  05
04D78:  MOVWF  00
04D7A:  DECFSZ 00,F
04D7C:  BRA    4D7A
04D7E:  BRA    4D80
04D80:  NOP   
.................... 		} 
04D82:  INCF   x3C,F
04D84:  BTFSC  FD8.2
04D86:  INCF   x3D,F
04D88:  BRA    4A34
....................  
.................... 		//end 
.................... 		output_bit(LED_OUT,1);// 
04D8A:  BSF    F8A.0
04D8C:  BCF    F93.0
04D8E:  MOVLB  1
.................... 	} 
.................... } 
04D90:  MOVLB  0
04D92:  GOTO   4EA4 (RETURN)
....................  
....................  
....................  
....................  
....................  
.................... void signboard_process(){ 
04D96:  MOVLB  4
04D98:  CLRF   x38
04D9A:  CLRF   x39
04D9C:  CLRF   x3A
04D9E:  CLRF   x3B
.................... 	int tmp_sw1_true = 0,tmp_sw2_true = 0,tmp_sw3_true = 0,tmp_sw4_true = 0; 
....................  
.................... 	//XCb` 
.................... 	if(sw1_re != sw1 && sw1 == 0){	tmp_sw1_true = 1;}	sw1_re = sw1; 
04DA0:  MOVF   54,W
04DA2:  SUBWF  55,W
04DA4:  BZ    4DAE
04DA6:  MOVF   54,F
04DA8:  BNZ   4DAE
04DAA:  MOVLW  01
04DAC:  MOVWF  x38
04DAE:  MOVFF  54,55
.................... 	if(sw2_re != sw2 && sw2 == 0){	tmp_sw2_true = 1;}	sw2_re = sw2; 
04DB2:  MOVF   56,W
04DB4:  SUBWF  57,W
04DB6:  BZ    4DC0
04DB8:  MOVF   56,F
04DBA:  BNZ   4DC0
04DBC:  MOVLW  01
04DBE:  MOVWF  x39
04DC0:  MOVFF  56,57
.................... 	if(sw3_re != sw3 && sw3 == 0){	tmp_sw3_true = 1;}	sw3_re = sw3; 
04DC4:  MOVF   58,W
04DC6:  SUBWF  59,W
04DC8:  BZ    4DD2
04DCA:  MOVF   58,F
04DCC:  BNZ   4DD2
04DCE:  MOVLW  01
04DD0:  MOVWF  x3A
04DD2:  MOVFF  58,59
.................... 	if(sw4_re != sw4 && sw4 == 0){	tmp_sw4_true = 1;}	sw4_re = sw4; 
04DD6:  MOVF   5A,W
04DD8:  SUBWF  5B,W
04DDA:  BZ    4DE4
04DDC:  MOVF   5A,F
04DDE:  BNZ   4DE4
04DE0:  MOVLW  01
04DE2:  MOVWF  x3B
04DE4:  MOVFF  5A,5B
....................  
.................... 	if(mode == 0){ 
04DE8:  MOVLB  1
04DEA:  MOVF   x0B,F
04DEC:  BNZ   4EA6
04DEE:  MOVF   x0C,F
04DF0:  BNZ   4EA6
.................... 		//enter 
.................... 		if(tmp_sw1_true != 0){tmp_sw1_true = 0; 
04DF2:  MOVLB  4
04DF4:  MOVF   x38,F
04DF6:  BZ    4DFA
04DF8:  CLRF   x38
.................... 			//mode = 701;//	lcd_mode = mode; 
.................... 			//cursor_index = 1; 
.................... 			 
.................... 			// save_mode(mode);//[ 
....................  
.................... 			// ws281x_color_set(signboard_color_set); 
.................... 		} 
....................  
.................... 		//cansel 
.................... 		if(tmp_sw2_true != 0){tmp_sw2_true = 0; 
04DFA:  MOVF   x39,F
04DFC:  BZ    4E00
04DFE:  CLRF   x39
....................  
.................... 		} 
....................  
.................... 		//up 
.................... 		if(tmp_sw3_true != 0){tmp_sw3_true = 0; 
04E00:  MOVF   x3A,F
04E02:  BZ    4E4E
04E04:  CLRF   x3A
.................... 			if(signboard_color_set >= (ws281x_pattern_value-1)){		signboard_color_set = 0; 
04E06:  MOVLW  01
04E08:  SUBWF  x27,W
04E0A:  MOVLB  1
04E0C:  SUBWF  x1A,W
04E0E:  BNC   4E14
04E10:  CLRF   x1A
.................... 			}else{							signboard_color_set++;	} 
04E12:  BRA    4E16
04E14:  INCF   x1A,F
.................... 			ws281x_color_set(signboard_color_set); 
04E16:  MOVFF  11A,43C
04E1A:  MOVLB  0
04E1C:  CALL   3598
.................... 			write_eeprom(0x10,signboard_color_set);//ul 
04E20:  CLRF   FAA
04E22:  MOVLW  10
04E24:  MOVWF  FA9
04E26:  MOVFF  11A,FA8
04E2A:  BCF    FA6.6
04E2C:  BCF    FA6.7
04E2E:  BSF    FA6.2
04E30:  MOVF   FF2,W
04E32:  MOVWF  00
04E34:  BCF    FF2.7
04E36:  MOVLB  F
04E38:  MOVLW  55
04E3A:  MOVWF  FA7
04E3C:  MOVLW  AA
04E3E:  MOVWF  FA7
04E40:  BSF    FA6.1
04E42:  BTFSC  FA6.1
04E44:  BRA    4E42
04E46:  BCF    FA6.2
04E48:  MOVF   00,W
04E4A:  IORWF  FF2,F
04E4C:  MOVLB  4
.................... 			//MZbg 
.................... 			//signboard_putcount = 0; 
.................... 		} 
....................  
.................... 		//down 
.................... 		if(tmp_sw4_true != 0){tmp_sw4_true = 0; 
04E4E:  MOVF   x3B,F
04E50:  BZ    4E9E
04E52:  CLRF   x3B
.................... 			if(signboard_color_set == 0){		signboard_color_set = ws281x_pattern_value-1; 
04E54:  MOVLB  1
04E56:  MOVF   x1A,F
04E58:  BNZ   4E66
04E5A:  MOVLW  01
04E5C:  MOVLB  4
04E5E:  SUBWF  x27,W
04E60:  MOVLB  1
04E62:  MOVWF  x1A
.................... 			}else{							signboard_color_set--;	} 
04E64:  BRA    4E68
04E66:  DECF   x1A,F
.................... 			ws281x_color_set(signboard_color_set); 
04E68:  MOVFF  11A,43C
04E6C:  MOVLB  0
04E6E:  CALL   3598
.................... 			write_eeprom(0x10,signboard_color_set);//ul 
04E72:  CLRF   FAA
04E74:  MOVLW  10
04E76:  MOVWF  FA9
04E78:  MOVFF  11A,FA8
04E7C:  BCF    FA6.6
04E7E:  BCF    FA6.7
04E80:  BSF    FA6.2
04E82:  MOVF   FF2,W
04E84:  MOVWF  00
04E86:  BCF    FF2.7
04E88:  MOVLB  F
04E8A:  MOVLW  55
04E8C:  MOVWF  FA7
04E8E:  MOVLW  AA
04E90:  MOVWF  FA7
04E92:  BSF    FA6.1
04E94:  BTFSC  FA6.1
04E96:  BRA    4E94
04E98:  BCF    FA6.2
04E9A:  MOVF   00,W
04E9C:  IORWF  FF2,F
.................... 			//MZbg 
.................... 			//signboard_putcount = 0; 
.................... 		} 
....................  
.................... 		//LEDMOUTso 
.................... 		ws281x_process(); 
04E9E:  MOVLB  0
04EA0:  GOTO   4044
04EA4:  MOVLB  1
....................  
.................... 	//}else if(mode == 701 || mode == 702){ 
....................  
.................... 		// if(signboard_process_one > signboard_speed){ 
.................... 		// 	signboard_process_one = 0; 
.................... 		// 	//ws281x_mode_set 
.................... 		// 	//1=down() 
.................... 		// 	//2=up() ...etc 
.................... 		// 	//ws281x_mode_set(signboard_mode_set); 
.................... 		// 	if(signboard_putcount < signboard_putcount_max){ 
.................... 		// 		signboard_putcount++; 
....................  
.................... 		// 		//LEDf[^so 
.................... 		// 		ws281x_process(); 
.................... 		// 	} 
.................... 		// } 
....................  
.................... 		//enter 
.................... // 		if(tmp_sw1_true != 0){tmp_sw1_true = 0; 
.................... // /* 			if(cursor_index == 6){ 
.................... // 				mode = 701;//lcd_mode = mode; 
.................... // 				cursor_index = 1; 
.................... // 				save_mode(mode);//[ 
.................... // 			}else if(cursor_index == 5){ 
.................... // 				mode = 702;//lcd_mode = mode; 
.................... // 				cursor_index = 6; 
.................... // 				save_mode(mode);//[ 
.................... // 			}else{ 
.................... // 				cursor_index++; 
.................... // 			} */ 
.................... // 		} 
....................  
.................... /* 		if(cursor_index == 1){ 
.................... 			//signboard_color_set 
....................  
.................... 			//up 
.................... 			if(tmp_sw3_true != 0){tmp_sw3_true = 0; 
.................... 				if(signboard_color_set >= (ws281x_pattern_value-1)){		signboard_color_set = 0; 
.................... 				}else{							signboard_color_set++;	} 
.................... 				ws281x_color_set(signboard_color_set); 
.................... 				write_eeprom(0x10,signboard_color_set);//ul 
.................... 				//MZbg 
.................... 				signboard_putcount = 0; 
.................... 			} 
....................  
.................... 			//down 
.................... 			if(tmp_sw4_true != 0){tmp_sw4_true = 0; 
.................... 				if(signboard_color_set == 0){		signboard_color_set = ws281x_pattern_value-1; 
.................... 				}else{							signboard_color_set--;	} 
.................... 				ws281x_color_set(signboard_color_set); 
.................... 				write_eeprom(0x10,signboard_color_set);//ul 
.................... 				//MZbg 
.................... 				signboard_putcount = 0; 
.................... 			} 
.................... 		}else if(cursor_index == 2){ 
.................... 			//signboard_mode_set 
....................  
.................... 			//up 
.................... 			if(tmp_sw3_true != 0){tmp_sw3_true = 0; 
.................... 				if(signboard_mode_set >= 13){		signboard_mode_set = 0; 
.................... 				}else{							signboard_mode_set++;	} 
.................... 				ws281x_mode_set(signboard_mode_set); 
.................... 				write_eeprom(0x11,signboard_mode_set);//ul 
....................  
.................... 			} 
....................  
.................... 			//down 
.................... 			if(tmp_sw4_true != 0){tmp_sw4_true = 0; 
.................... 				if(signboard_mode_set == 0){		signboard_mode_set = 13; 
.................... 				}else{							signboard_mode_set--;	} 
.................... 				ws281x_mode_set(signboard_mode_set); 
.................... 				write_eeprom(0x11,signboard_mode_set);//ul 
.................... 			} 
.................... 		}else if(cursor_index == 3){ 
.................... 			//signboard_speed 
....................  
.................... 			//up 
.................... 			if(tmp_sw3_true != 0){tmp_sw3_true = 0; 
.................... 				if(signboard_speed >= 99){		signboard_speed = 0; 
.................... 				}else{						signboard_speed++;	}	 
.................... 				write_eeprom(0x12,signboard_speed);//ul 
.................... 			} 
....................  
.................... 			//down 
.................... 			if(tmp_sw4_true != 0){tmp_sw4_true = 0; 
.................... 				if(signboard_speed == 0){		signboard_speed = 99; 
.................... 				}else{						signboard_speed--;	} 
.................... 				write_eeprom(0x12,signboard_speed);//ul 
.................... 			} 
.................... 		}else if(cursor_index == 4){ 
.................... 			//signboard_signaltype 
....................  
.................... 			//up 
.................... 			if(tmp_sw3_true != 0){tmp_sw3_true = 0; 
.................... 				signboard_signaltype = !signboard_signaltype; 
.................... 				write_eeprom(0x13,signboard_signaltype);//ul 
.................... 			} 
....................  
.................... 			//down 
.................... 			if(tmp_sw4_true != 0){tmp_sw4_true = 0; 
.................... 				signboard_signaltype = !signboard_signaltype; 
.................... 				write_eeprom(0x13,signboard_signaltype);//ul 
.................... 			} 
.................... 		}else if(cursor_index == 5){ 
.................... 			//signboard_timing 
....................  
.................... 			//up 
.................... 			if(tmp_sw3_true != 0){tmp_sw3_true = 0; 
.................... 				if(signboard_timing >= 3){	signboard_timing = 0; 
.................... 				}else{					signboard_timing++;	} 
.................... 				write_eeprom(0x14,signboard_timing);//ul 
.................... 			} 
....................  
.................... 			//down 
.................... 			if(tmp_sw4_true != 0){tmp_sw4_true = 0; 
.................... 				if(signboard_timing == 0){	signboard_timing = 3; 
.................... 				}else{					signboard_timing--;	} 
.................... 				write_eeprom(0x14,signboard_timing);//ul 
.................... 			} 
.................... 		}else if(cursor_index == 6){ 
.................... 			//signboard_brightness 
....................  
.................... 			//up 
.................... 			if(tmp_sw3_true != 0){tmp_sw3_true = 0; 
.................... 				if(signboard_brightness == 100){	signboard_brightness = 0; 
.................... 				}else{							signboard_brightness++;	} 
.................... 				ws281x_color_set(signboard_color_set); 
.................... 				write_eeprom(0x15,signboard_brightness);//ul 
.................... 			} 
....................  
.................... 			//down 
.................... 			if(tmp_sw4_true != 0){tmp_sw4_true = 0; 
.................... 				if(signboard_brightness == 0){	signboard_brightness = 100; 
.................... 				}else{							signboard_brightness--;	} 
.................... 				ws281x_color_set(signboard_color_set); 
.................... 				write_eeprom(0x15,signboard_brightness);//ul 
.................... 			} 
.................... 		} */ 
....................  
.................... 	} 
....................  
....................  
....................  
.................... 	////enter 
.................... 	//if(tmp_sw1_true != 0){tmp_sw1_true = 0; 
.................... 	//	 
....................  
.................... 	//} 
.................... 	//cansel 
.................... // 	if(tmp_sw2_true != 0){tmp_sw2_true = 0; 
.................... // /* 		mode = 10;	 
.................... // 		cursor_index = 7; */ 
.................... // 	} 
....................  
.................... 	//// 
.................... 	//if(tmp_sw3_true != 0){tmp_sw3_true = 0; 
....................  
.................... 	//} 
....................  
.................... 	//// 
.................... 	//if(tmp_sw4_true != 0){tmp_sw4_true = 0; 
....................  
.................... 	//} 
....................  
....................  
.................... } 
04EA6:  MOVLB  0
04EA8:  GOTO   52EA (RETURN)
....................  
.................... //#include "process_lcd128x64dot.c"//gpt@CgpW[CuLB 
.................... #include "process_lcd16x2txt.c" 
.................... //#include "so1602awxb.c"//L@ELLN^W[ 
.................... #include "aqmxx02a.c"//LN^LCDW[ 
.................... /***************************************************************************************** 
.................... LCDW[(AQM1602XA-RN-GBW,AQM1602Y-RN-GBW)pCu 2019/10/07 
....................  
....................  
.................... ZEATEC co.,ltd.  
....................  
.................... p 
.................... ]EfgpBCugpsAe 
.................... CB 
....................  
.................... @ 
.................... AQM0802A-RN-GBW,AQM1602A-RN-GBW 
....................  
.................... gp@ 
.................... lcd_ini(5)X^[gAbvBJbRgpdwB3.3V 
.................... 3wBlcd_start(0)\uwAlcd_char("abc") 
.................... C\wBprintf(lcd_char,"%02x:%02x:%02x",hour,min,sec); 
.................... l\B 
.................... I2Cn[hEFAALB 
....................  
.................... #use i2c(MASTER, SDA=PIN_C4, SCL=PIN_C3,SLOW,FORCE_HW)//FAST=400kbps SLOW=100kbps  
.................... sATCPIC18F46k22gpB 
....................  
.................... *****************************************************************************************/ 
....................  
.................... void aqmxx02a_cmd(char c){ 
.................... 	//X^[gRfBVs 
.................... 	i2c_start(); 
*
03834:  BSF    FC5.0
03836:  BTFSC  FC5.0
03838:  BRA    3836
.................... 	//LCDAhX 
.................... 	i2c_write(0x7c); 
0383A:  MOVLW  7C
0383C:  MOVLB  4
0383E:  MOVWF  x4D
03840:  MOVLB  0
03842:  RCALL  3818
.................... 	// control byte M(R}hw) 
.................... 	i2c_write(0b10000000); 
03844:  MOVLW  80
03846:  MOVLB  4
03848:  MOVWF  x4D
0384A:  MOVLB  0
0384C:  RCALL  3818
.................... 	// data byte M 
.................... 	i2c_write(c); 
0384E:  MOVFF  448,44D
03852:  RCALL  3818
.................... 	// XgbvRfBVs 
.................... 	i2c_stop(); 
03854:  BSF    FC5.2
03856:  BTFSC  FC5.2
03858:  BRA    3856
.................... 	//delay_us(27); 
.................... } 
0385A:  RETURN 0
....................  
.................... void aqmxx02a_setcursor(int col, int row){ 
.................... 	int row_offsets[] = { 0x00, 0x40 }; 
*
03942:  MOVLB  4
03944:  CLRF   x45
03946:  MOVLW  40
03948:  MOVWF  x46
....................  
.................... 	aqmxx02a_cmd(0x80 | (col + row_offsets[row])) ; // Set DDRAM Adddress : 00H-07H,40H-47H 
0394A:  CLRF   03
0394C:  MOVF   x44,W
0394E:  ADDLW  45
03950:  MOVWF  FE9
03952:  MOVLW  04
03954:  ADDWFC 03,W
03956:  MOVWF  FEA
03958:  MOVF   FEF,W
0395A:  ADDWF  x43,W
0395C:  IORLW  80
0395E:  MOVWF  x47
03960:  MOVWF  x48
03962:  MOVLB  0
03964:  RCALL  3834
.................... } 
03966:  RETURN 0
....................  
.................... void lcd_char(char s){ 
.................... 	//X^[gRfBVs 
.................... 	i2c_start(); 
*
0398E:  BSF    FC5.0
03990:  BTFSC  FC5.0
03992:  BRA    3990
.................... 	//LCDAhX 
.................... 	i2c_write(0x7c); 
03994:  MOVLW  7C
03996:  MOVLB  4
03998:  MOVWF  x4D
0399A:  MOVLB  0
0399C:  RCALL  3818
.................... 	//control byte M(f[^w) 
.................... 	i2c_write(0b01000000); 
0399E:  MOVLW  40
039A0:  MOVLB  4
039A2:  MOVWF  x4D
039A4:  MOVLB  0
039A6:  RCALL  3818
.................... 	//data byte M 
.................... 	i2c_write(s); 
039A8:  MOVFF  44C,44D
039AC:  RCALL  3818
.................... 	//XgbvRfBVs 
.................... 	i2c_stop(); 
039AE:  BSF    FC5.2
039B0:  BTFSC  FC5.2
039B2:  BRA    39B0
.................... } 
039B4:  RETURN 0
....................  
.................... void lcd_start(int line){ 
.................... 	if(line == 0){ 
*
03968:  MOVLB  4
0396A:  MOVF   x42,F
0396C:  BNZ   397A
.................... 		aqmxx02a_setcursor(0,0); 
0396E:  CLRF   x43
03970:  CLRF   x44
03972:  MOVLB  0
03974:  RCALL  3942
.................... 	}else if(line == 1){ 
03976:  BRA    3988
03978:  MOVLB  4
0397A:  DECFSZ x42,W
0397C:  BRA    398A
.................... 		aqmxx02a_setcursor(0,1); 
0397E:  CLRF   x43
03980:  MOVLW  01
03982:  MOVWF  x44
03984:  MOVLB  0
03986:  RCALL  3942
03988:  MOVLB  4
.................... 	} 
.................... } 
0398A:  MOVLB  0
0398C:  RETURN 0
....................  
.................... void lcd_ini(int volt){ 
.................... 	aqmxx02a_cmd(0x38) ;     // function set           : f[^8{E\QsEtHg5x8hbg 
*
038AA:  MOVLW  38
038AC:  MOVLB  4
038AE:  MOVWF  x48
038B0:  MOVLB  0
038B2:  RCALL  3834
.................... 	aqmxx02a_cmd(0x39) ;     // function set           : gR}hL 
038B4:  MOVLW  39
038B6:  MOVLB  4
038B8:  MOVWF  x48
038BA:  MOVLB  0
038BC:  RCALL  3834
.................... 	aqmxx02a_cmd(0x14) ;     // Internal OSC frequency : oCAXIOSCg 
038BE:  MOVLW  14
038C0:  MOVLB  4
038C2:  MOVWF  x48
038C4:  MOVLB  0
038C6:  RCALL  3834
.................... 	if(volt == 3){ 
038C8:  MOVLB  4
038CA:  MOVF   x38,W
038CC:  SUBLW  03
038CE:  BNZ   38E6
.................... 		//RgXg(3.3V) 
.................... 		aqmxx02a_cmd(0x70) ;     // Contrast set           : RgXgf[^(4rbg) 
038D0:  MOVLW  70
038D2:  MOVWF  x48
038D4:  MOVLB  0
038D6:  RCALL  3834
.................... 		aqmxx02a_cmd(0x5e) ;     // Contrast set           : HLAACRLARgXgf[^(2rbg) 
038D8:  MOVLW  5E
038DA:  MOVLB  4
038DC:  MOVWF  x48
038DE:  MOVLB  0
038E0:  RCALL  3834
.................... 		//aqmxx02a_cmd(0x56) ;     // Contrast set           : HLAACRARgXgf[^(2rbg) 
.................... 	}else{ 
038E2:  BRA    38F8
038E4:  MOVLB  4
.................... 		//RgXg(5V) 
.................... 		aqmxx02a_cmd(0x7A) ;     // Contrast set           : RgXgf[^(4rbg) 
038E6:  MOVLW  7A
038E8:  MOVWF  x48
038EA:  MOVLB  0
038EC:  RCALL  3834
.................... 		aqmxx02a_cmd(0x5c) ;     // Contrast set           : HLAACRLARgXgf[^(2rbg)	 
038EE:  MOVLW  5C
038F0:  MOVLB  4
038F2:  MOVWF  x48
038F4:  MOVLB  0
038F6:  RCALL  3834
.................... 		//aqmxx02a_cmd(0x54) ;     // Contrast set           : HLAACRARgXgf[^(2rbg)	 
.................... 	} 
.................... 	aqmxx02a_cmd(0x6C) ;     // Follower control       : tHAHONAs 
038F8:  MOVLW  6C
038FA:  MOVLB  4
038FC:  MOVWF  x48
038FE:  MOVLB  0
03900:  RCALL  3834
.................... 	delay_ms(200) ;			// d 
03902:  MOVLW  C8
03904:  MOVLB  4
03906:  MOVWF  x41
03908:  MOVLB  0
0390A:  RCALL  385C
.................... 	aqmxx02a_cmd(0x38) ;     // function set           : gR}h 
0390C:  MOVLW  38
0390E:  MOVLB  4
03910:  MOVWF  x48
03912:  MOVLB  0
03914:  RCALL  3834
.................... 	aqmxx02a_cmd(0x0C) ;     // display control        : \ONEJ[\\OFFEJ[\_OFF 
03916:  MOVLW  0C
03918:  MOVLB  4
0391A:  MOVWF  x48
0391C:  MOVLB  0
0391E:  RCALL  3834
.................... 	aqmxx02a_cmd(0x01) ;     // Clear Display : S20H\Acol=0,row=0 
03920:  MOVLW  01
03922:  MOVLB  4
03924:  MOVWF  x48
03926:  MOVLB  0
03928:  RCALL  3834
.................... 	delay_us(1100) ;  // LCD(1.08ms) 
0392A:  MOVLW  01
0392C:  MOVLB  4
0392E:  MOVWF  x41
03930:  MOVLB  0
03932:  RCALL  385C
03934:  MOVLW  64
03936:  MOVLB  4
03938:  MOVWF  x41
0393A:  MOVLB  0
0393C:  RCALL  3886
.................... } 
0393E:  GOTO   3BBC (RETURN)
....................  
.................... //IWiACR@ 
.................... char aqmxx02a_icon_1[7] = { 
....................   0b00100, 
....................   0b01110, 
....................   0b10101, 
....................   0b00100, 
....................   0b00100, 
....................   0b00100, 
....................   0b00000, 
.................... }; 
....................  
.................... //IWiACR@ 
.................... char aqmxx02a_icon_2[7] = { 
....................   0b00100, 
....................   0b00100, 
....................   0b00100, 
....................   0b10101, 
....................   0b01110, 
....................   0b00100, 
....................   0b00000, 
.................... }; 
....................  
.................... void LCD_CreateChar(int p,char *dt){ 
....................  
.................... 	int tmp1 = 0; 
....................  
.................... 	i2c_start();     // X^[gRfBVs 
.................... 	//LCDAhX 
.................... 	i2c_write(0x7c); 
.................... 	//  LCDLAhXw 
.................... 	i2c_write(0b10000000) ;             // control byte M(R}hw) 
.................... 	i2c_write(0x40 | (p << 3)) ; 
.................... 	//delay_us(27) ; 
.................... 	//  LCDLf[^M 
.................... 	i2c_write(0b01000000) ;             // control byte M(f[^w) 
.................... 	for (tmp1=0; tmp1 < 7; tmp1++) { 
.................... 	   i2c_write(*dt++) ; 
.................... 	   //delay_us(27) ; 
.................... 	} 
....................  
.................... 	i2c_stop() ;                            // XgbvRfBVs 
.................... } 
....................  
....................  
....................  
.................... void lcd_process(){ 
.................... 	//LN^LCD(AQM1602A) 
.................... 	//if(mode <= 1){ 
.................... 	//	//S\ 
.................... 	//	if(lcd_row == 0){	lcd_row = 1; 
.................... 	//		aqmxx02a_setcursor(0,0); 
.................... 	//		printf(aqmxx02a_puts,"TemplateSoftware"); 
.................... 	//	}else if(lcd_row == 1){	lcd_row = 0; 
.................... 	//		aqmxx02a_setcursor(0,1); 
.................... 	//		printf(aqmxx02a_puts," ZEATEC co.,ltd."); 
.................... 	//	} 
.................... 	//}else if(mode == 10){ 
.................... 	//	if(lcd_row == 0){	lcd_row = 1; 
.................... 	//		aqmxx02a_setcursor(0,0); 
.................... 	//		printf(aqmxx02a_puts,"re0-1=%04lu,%04lu ",re0,re1); 
.................... 	//	}else if(lcd_row == 1){	lcd_row = 0; 
.................... 	//		aqmxx02a_setcursor(0,1); 
.................... 	//		printf(aqmxx02a_puts,"ra0-3=%01u,%01u,%01u,%01u  %c",ra0,ra1,ra2,ra3,life_char[life_index]); 
.................... 	//	} 
.................... 	//} 
....................  
.................... 	lcd_start(0);printf(lcd_char,"ZEATEC co.,ltd.%c",life_char[life_index]); 
*
04EAC:  MOVLB  4
04EAE:  CLRF   x42
04EB0:  MOVLB  0
04EB2:  CALL   3968
04EB6:  CLRF   03
04EB8:  MOVLB  1
04EBA:  MOVF   x14,W
04EBC:  ADDLW  15
04EBE:  MOVWF  FE9
04EC0:  MOVLW  01
04EC2:  ADDWFC 03,W
04EC4:  MOVWF  FEA
04EC6:  MOVFF  FEF,438
04ECA:  MOVLW  E4
04ECC:  MOVWF  FF6
04ECE:  MOVLW  30
04ED0:  MOVWF  FF7
04ED2:  MOVLW  0F
04ED4:  MOVLB  4
04ED6:  MOVWF  x43
04ED8:  MOVLB  0
04EDA:  CALL   39D6
04EDE:  MOVFF  438,44C
04EE2:  CALL   398E
.................... 	lcd_start(1);printf(lcd_char," PIC16F46K22+LCD"); 
04EE6:  MOVLW  01
04EE8:  MOVLB  4
04EEA:  MOVWF  x42
04EEC:  MOVLB  0
04EEE:  CALL   3968
04EF2:  MOVLW  F6
04EF4:  MOVWF  FF6
04EF6:  MOVLW  30
04EF8:  MOVWF  FF7
04EFA:  CALL   39B6
....................  
.................... 	//float f; 
.................... 	//f=12.345; 
.................... 	//printf(tostring,"\f%6.3f",f); 
.................... } 
04EFE:  GOTO   52F8 (RETURN)
.................... void signboard_lcd_process(){ 
....................  
.................... 	int cursor[10] = {0x20,0x20,0x20,0x20,0x20,0x20,0x20,0x20,0x20}; 
*
03EB6:  MOVLW  20
03EB8:  MOVLB  4
03EBA:  MOVWF  x38
03EBC:  MOVWF  x39
03EBE:  MOVWF  x3A
03EC0:  MOVWF  x3B
03EC2:  MOVWF  x3C
03EC4:  MOVWF  x3D
03EC6:  MOVWF  x3E
03EC8:  MOVWF  x3F
03ECA:  MOVWF  x40
03ECC:  CLRF   x41
.................... 	cursor[cursor_index] = 0x3e;//0x3e=">",0x2a="*" 
03ECE:  MOVLW  38
03ED0:  MOVLB  1
03ED2:  ADDWF  x0F,W
03ED4:  MOVWF  FE9
03ED6:  MOVLW  04
03ED8:  ADDWFC x10,W
03EDA:  MOVWF  FEA
03EDC:  MOVLW  3E
03EDE:  MOVWF  FEF
....................  
.................... 	if(mode == 0){ 
03EE0:  MOVF   x0B,F
03EE2:  BNZ   3F7A
03EE4:  MOVF   x0C,F
03EE6:  BNZ   3F7A
.................... 		lcd_start(0);printf(lcd_char,"Signboard UNIT%c",life_char[life_index]); 
03EE8:  MOVLB  4
03EEA:  CLRF   x42
03EEC:  MOVLB  0
03EEE:  RCALL  3968
03EF0:  CLRF   03
03EF2:  MOVLB  1
03EF4:  MOVF   x14,W
03EF6:  ADDLW  15
03EF8:  MOVWF  FE9
03EFA:  MOVLW  01
03EFC:  ADDWFC 03,W
03EFE:  MOVWF  FEA
03F00:  MOVFF  FEF,442
03F04:  MOVLW  08
03F06:  MOVWF  FF6
03F08:  MOVLW  31
03F0A:  MOVWF  FF7
03F0C:  MOVLW  0E
03F0E:  MOVLB  4
03F10:  MOVWF  x43
03F12:  MOVLB  0
03F14:  RCALL  39D6
03F16:  MOVFF  442,44C
03F1A:  RCALL  398E
.................... 		//lcd_start(0);	printf(lcd_char,"Mode=%03lu    %c",mode,life_char[life_index]); 
.................... 		lcd_start(1);	printf(lcd_char,"PatternNo=%02u,%01u,%01u",signboard_color_set,led_timing,led_signaltype); 
03F1C:  MOVLW  01
03F1E:  MOVLB  4
03F20:  MOVWF  x42
03F22:  MOVLB  0
03F24:  RCALL  3968
03F26:  MOVLW  1A
03F28:  MOVWF  FF6
03F2A:  MOVLW  31
03F2C:  MOVWF  FF7
03F2E:  MOVLW  0A
03F30:  MOVLB  4
03F32:  MOVWF  x43
03F34:  MOVLB  0
03F36:  RCALL  39D6
03F38:  MOVFF  11A,442
03F3C:  MOVLW  01
03F3E:  MOVLB  4
03F40:  MOVWF  x43
03F42:  MOVLB  0
03F44:  RCALL  3D7E
03F46:  MOVLW  2C
03F48:  MOVLB  4
03F4A:  MOVWF  x4C
03F4C:  MOVLB  0
03F4E:  RCALL  398E
03F50:  MOVFF  11E,442
03F54:  MOVLW  08
03F56:  MOVLB  4
03F58:  MOVWF  x43
03F5A:  MOVLB  0
03F5C:  RCALL  3D7E
03F5E:  MOVLW  2C
03F60:  MOVLB  4
03F62:  MOVWF  x4C
03F64:  MOVLB  0
03F66:  RCALL  398E
03F68:  MOVFF  11D,442
03F6C:  MOVLW  08
03F6E:  MOVLB  4
03F70:  MOVWF  x43
03F72:  MOVLB  0
03F74:  RCALL  3D7E
.................... 	}else if(mode == 1){ 
03F76:  BRA    403C
03F78:  MOVLB  1
03F7A:  DECFSZ x0B,W
03F7C:  BRA    3FDC
03F7E:  MOVF   x0C,F
03F80:  BNZ   3FDC
.................... 		lcd_start(0);	printf(lcd_char,"                 %03lu%c",mode,life_char[life_index]); 
03F82:  MOVLB  4
03F84:  CLRF   x42
03F86:  MOVLB  0
03F88:  RCALL  3968
03F8A:  CLRF   03
03F8C:  MOVLB  1
03F8E:  MOVF   x14,W
03F90:  ADDLW  15
03F92:  MOVWF  FE9
03F94:  MOVLW  01
03F96:  ADDWFC 03,W
03F98:  MOVWF  FEA
03F9A:  MOVFF  FEF,442
03F9E:  MOVLW  34
03FA0:  MOVWF  FF6
03FA2:  MOVLW  31
03FA4:  MOVWF  FF7
03FA6:  MOVLW  11
03FA8:  MOVLB  4
03FAA:  MOVWF  x43
03FAC:  MOVLB  0
03FAE:  RCALL  39D6
03FB0:  MOVLW  0A
03FB2:  MOVWF  FE9
03FB4:  MOVFF  10C,444
03FB8:  MOVFF  10B,443
03FBC:  RCALL  3DFA
03FBE:  MOVFF  442,44C
03FC2:  RCALL  398E
.................... 		lcd_start(1);	printf(lcd_char," cWS2812b,2811(OUT:B0)-"); 
03FC4:  MOVLW  01
03FC6:  MOVLB  4
03FC8:  MOVWF  x42
03FCA:  MOVLB  0
03FCC:  RCALL  3968
03FCE:  MOVLW  4E
03FD0:  MOVWF  FF6
03FD2:  MOVLW  31
03FD4:  MOVWF  FF7
03FD6:  RCALL  39B6
.................... 	}else if(mode == 2){ 
03FD8:  BRA    403C
03FDA:  MOVLB  1
03FDC:  MOVF   x0B,W
03FDE:  SUBLW  02
03FE0:  BNZ   403E
03FE2:  MOVF   x0C,F
03FE4:  BNZ   403E
.................... 		lcd_start(0);	printf(lcd_char,"                 %03lu%c",mode,life_char[life_index]); 
03FE6:  MOVLB  4
03FE8:  CLRF   x42
03FEA:  MOVLB  0
03FEC:  RCALL  3968
03FEE:  CLRF   03
03FF0:  MOVLB  1
03FF2:  MOVF   x14,W
03FF4:  ADDLW  15
03FF6:  MOVWF  FE9
03FF8:  MOVLW  01
03FFA:  ADDWFC 03,W
03FFC:  MOVWF  FEA
03FFE:  MOVFF  FEF,442
04002:  MOVLW  66
04004:  MOVWF  FF6
04006:  MOVLW  31
04008:  MOVWF  FF7
0400A:  MOVLW  11
0400C:  MOVLB  4
0400E:  MOVWF  x43
04010:  MOVLB  0
04012:  RCALL  39D6
04014:  MOVLW  0A
04016:  MOVWF  FE9
04018:  MOVFF  10C,444
0401C:  MOVFF  10B,443
04020:  RCALL  3DFA
04022:  MOVFF  442,44C
04026:  RCALL  398E
.................... 		lcd_start(1);	printf(lcd_char," cWS2812b,2811(OUT:B0)-"); 
04028:  MOVLW  01
0402A:  MOVLB  4
0402C:  MOVWF  x42
0402E:  MOVLB  0
04030:  RCALL  3968
04032:  MOVLW  80
04034:  MOVWF  FF6
04036:  MOVLW  31
04038:  MOVWF  FF7
0403A:  RCALL  39B6
0403C:  MOVLB  1
.................... 	} 
.................... } 
0403E:  MOVLB  0
04040:  GOTO   52DA (RETURN)
.................... void modeselect_lcd_process(){ 
....................  
.................... 	int cursor[10] = {0x20,0x20,0x20,0x20,0x20,0x20,0x20,0x20,0x20}; 
.................... 	cursor[cursor_index] = 0x3e;//> 0x2a;//* 
.................... 	 
.................... 	lcd_start(0);printf(lcd_char,"%01cInfo           ",cursor[1]); 
.................... 	lcd_start(1);printf(lcd_char,"%01cIO             ",cursor[2]); 
....................  
.................... } 
....................  
.................... void hardwareinfo_lcd_process(){ 
.................... 	if(lcd_mode == 100){ 
.................... 		lcd_start(0);	printf(lcd_char,"CPU=PIC18F46K22 "); 
.................... 		lcd_start(1);	printf(lcd_char,"LCD=AQM1602XA   "); 
.................... 	} 
.................... } 
....................  
.................... void io_lcd_process(){ 
.................... 	if(lcd_mode == 200){ 
.................... 		lcd_start(0);	printf(lcd_char,"ra7-0=%01u%01u%01u%01u,%01u%01u%01u%01u ",ra7,ra6,ra5,ra4,ra3,ra2,ra1,ra0); 
.................... 		//lcd_start(1);	printf(lcd_char,"rb5-0=%01u%01u%01u%01u%01u%01u    ",rb5,rb4,rb3,rb2,rb1,rb0);//,rb6,rb7 
.................... 		lcd_start(1);	printf(lcd_char,"re1-0=%04lu,%04lumV",re1,re0); 
.................... 	} 
.................... } 
....................  
....................  
.................... //#include "am2321.c"//xExZT[ 
.................... //#include "lm13232afw.c"//OtBbNLCDW[ 
.................... //#include "tc74hc595.c"//oWbNIC 
.................... //#include "sw_process.c"//XCb` 
.................... //#include "tc74hc165.c"//WbNIC 
....................  
.................... //VA 
.................... #int_rda 
.................... void isr_rcv(){ 
.................... 	while(kbhit(c1)){  // }CRMobt@f[^SM 
*
0323A:  BTFSS  F9E.5
0323C:  BRA    3284
.................... 		get_command_c1[get_command_value_c1] = fgetc(c1);//Mf[^o 
0323E:  CLRF   03
03240:  MOVF   x60,W
03242:  ADDLW  61
03244:  MOVWF  FE9
03246:  MOVLW  00
03248:  ADDWFC 03,W
0324A:  MOVWF  FEA
0324C:  MOVFF  FEA,454
03250:  MOVFF  FE9,453
03254:  BRA    3222
03256:  MOVFF  454,FEA
0325A:  MOVFF  453,FE9
0325E:  MOVFF  01,FEF
.................... 		fprintf(c1,"%c",get_command_c1[get_command_value_c1]); 
03262:  CLRF   03
03264:  MOVF   x60,W
03266:  ADDLW  61
03268:  MOVWF  FE9
0326A:  MOVLW  00
0326C:  ADDWFC 03,W
0326E:  MOVWF  FEA
03270:  MOVFF  FEF,451
03274:  MOVLB  4
03276:  MOVF   x51,W
03278:  BTFSS  F9E.4
0327A:  BRA    3278
0327C:  MOVWF  FAD
.................... 		get_command_value_c1++;//CfbNX{P 
0327E:  MOVLB  0
03280:  INCF   x60,F
.................... 	} 
03282:  BRA    323A
.................... } 
....................  
03284:  BCF    F9E.5
03286:  GOTO   006C
.................... #int_timer0 
.................... void int_timer(){ 
.................... 	//10msec 
....................  
.................... 	set_timer0(timer0_value);//^C}[lZbg 
0328A:  MOVFF  113,FD7
0328E:  MOVFF  112,FD6
.................... 	 
.................... 	flicker_10 = !flicker_10; 
03292:  MOVF   2E,F
03294:  BZ    329A
03296:  MOVLW  00
03298:  BRA    329C
0329A:  MOVLW  01
0329C:  MOVWF  2E
.................... 	flicker_10_one = 1;	 
0329E:  MOVLW  01
032A0:  MOVWF  2F
.................... 	step_one = 1; 
032A2:  MOVLB  1
032A4:  MOVWF  x11
.................... 	input_process_one = 1; 
032A6:  MOVWF  40
.................... 	//ws2812_process_one = 1; 
.................... 	servo_process_one = 1; 
032A8:  MOVWF  41
....................  
.................... 	lcd_process_one++; 
032AA:  INCF   3E,F
.................... 	if(lcd_process_one == 1){ 
032AC:  DECFSZ 3E,W
032AE:  BRA    32B2
.................... 		//LCD{I20msecALCD 
....................  
.................... 		//C~l[VptO 
.................... 		//10msecXVLCDC~O 
.................... 		//illumiled_process_one++; 
.................... 		//TC{[hptO 
.................... 		signboard_process_one++; 
032B0:  INCF   42,F
.................... 	} 
....................  
.................... 	//AiOl 
.................... 	analog_value[analog_index] = read_adc()*4; 
032B2:  BCF    FD8.0
032B4:  RLCF   43,W
032B6:  CLRF   03
032B8:  ADDLW  44
032BA:  MOVWF  FE9
032BC:  MOVLW  00
032BE:  ADDWFC 03,W
032C0:  MOVWF  FEA
032C2:  BSF    FC2.1
032C4:  BTFSC  FC2.1
032C6:  BRA    32C4
032C8:  MOVLB  4
032CA:  RLCF   FC3,W
032CC:  MOVWF  02
032CE:  RLCF   FC4,W
032D0:  MOVWF  03
032D2:  RLCF   02,F
032D4:  RLCF   03,F
032D6:  MOVLW  FC
032D8:  ANDWF  02,F
032DA:  MOVFF  02,FEF
032DE:  MOVFF  03,FEC
.................... 	if(analog_index == 0){ 
032E2:  MOVF   43,F
032E4:  BNZ   3308
.................... 		re0 = read_adc()*2; 
032E6:  BSF    FC2.1
032E8:  BTFSC  FC2.1
032EA:  BRA    32E8
032EC:  BCF    FD8.0
032EE:  RLCF   FC3,W
032F0:  MOVWF  50
032F2:  RLCF   FC4,W
032F4:  MOVWF  51
....................  
.................... 		analog_index = 1; 
032F6:  MOVLW  01
032F8:  MOVWF  43
.................... 		set_adc_channel(6);//RE1(AN6) 
032FA:  MOVLW  18
032FC:  MOVWF  01
032FE:  MOVF   FC2,W
03300:  ANDLW  83
03302:  IORWF  01,W
03304:  MOVWF  FC2
.................... 	}else if(analog_index == 1){ 
03306:  BRA    332A
03308:  DECFSZ 43,W
0330A:  BRA    332A
.................... 		re1 = read_adc()*2; 
0330C:  BSF    FC2.1
0330E:  BTFSC  FC2.1
03310:  BRA    330E
03312:  BCF    FD8.0
03314:  RLCF   FC3,W
03316:  MOVWF  52
03318:  RLCF   FC4,W
0331A:  MOVWF  53
.................... 		 
.................... 		analog_index = 0; 
0331C:  CLRF   43
.................... 		set_adc_channel(5);//RE0(AN5) 
0331E:  MOVLW  14
03320:  MOVWF  01
03322:  MOVF   FC2,W
03324:  ANDLW  83
03326:  IORWF  01,W
03328:  MOVWF  FC2
.................... 	} 
.................... 	 
.................... 	if(counttimer1 > 9){ 
0332A:  MOVF   37,F
0332C:  BNZ   3334
0332E:  MOVF   36,W
03330:  SUBLW  09
03332:  BC    3358
.................... 		//100msecPs 
....................  
.................... 		counttimer1 = 0;//JE^[Zbg 
03334:  CLRF   37
03336:  CLRF   36
....................  
.................... 		flicker_100 = !flicker_100; 
03338:  MOVF   30,F
0333A:  BZ    3340
0333C:  MOVLW  00
0333E:  BRA    3342
03340:  MOVLW  01
03342:  MOVWF  30
.................... 		flicker_100_one = 1; 
03344:  MOVLW  01
03346:  MOVWF  31
....................  
.................... 		//Ct\p 
.................... 		if(life_index == 3){ 
03348:  MOVLB  1
0334A:  MOVF   x14,W
0334C:  SUBLW  03
0334E:  BNZ   3354
.................... 			life_index = 0; 
03350:  CLRF   x14
.................... 		}else{ 
03352:  BRA    3356
.................... 			life_index++; 
03354:  INCF   x14,F
03356:  MOVLB  4
.................... 		} 
.................... 	} 
.................... 	counttimer1++; 
03358:  INCF   36,F
0335A:  BTFSC  FD8.2
0335C:  INCF   37,F
....................  
.................... 	if(counttimer2 > 49){ 
0335E:  MOVF   39,F
03360:  BNZ   3368
03362:  MOVF   38,W
03364:  SUBLW  31
03366:  BC    337C
.................... 		//500msecPs 
.................... 		 
.................... 		counttimer2 = 0;//JE^[Zbg 
03368:  CLRF   39
0336A:  CLRF   38
....................  
.................... 		flicker_500 = !flicker_500; 
0336C:  MOVF   32,F
0336E:  BZ    3374
03370:  MOVLW  00
03372:  BRA    3376
03374:  MOVLW  01
03376:  MOVWF  32
.................... 		flicker_500_one = 1; 
03378:  MOVLW  01
0337A:  MOVWF  33
.................... 	} 
.................... 	counttimer2++; 
0337C:  INCF   38,F
0337E:  BTFSC  FD8.2
03380:  INCF   39,F
....................  
.................... 	if(counttimer3 > 99){ 
03382:  MOVF   3B,F
03384:  BNZ   338C
03386:  MOVF   3A,W
03388:  SUBLW  63
0338A:  BC    33A2
.................... 		//1secPs 
.................... 		 
.................... 		counttimer3 = 0;//JE^[Zbg 
0338C:  CLRF   3B
0338E:  CLRF   3A
.................... 		 
.................... 		flicker_1000 = !flicker_1000; 
03390:  MOVF   34,F
03392:  BZ    3398
03394:  MOVLW  00
03396:  BRA    339A
03398:  MOVLW  01
0339A:  MOVWF  34
.................... 		flicker_1000_one = 1; 
0339C:  MOVLW  01
0339E:  MOVWF  35
....................  
.................... 		//xExv 
.................... 		//QPv 
.................... 		//am2321_read_one = 1; 
....................  
.................... 		//rtc 
.................... 		rtc_process_one = 1; 
033A0:  MOVWF  3F
.................... 	} 
.................... 	counttimer3++; 
033A2:  INCF   3A,F
033A4:  BTFSC  FD8.2
033A6:  INCF   3B,F
.................... 	counttimer4++; 
033A8:  INCF   3C,F
033AA:  BTFSC  FD8.2
033AC:  INCF   3D,F
....................  
.................... } 
....................  
.................... //X^[gAbv 
033AE:  BCF    FF2.2
033B0:  MOVLB  0
033B2:  GOTO   006C
.................... void startup(){ 
....................  
.................... 	//NbN 
.................... 	setup_oscillator(OSC_16MHZ|OSC_PLL_ON); 
*
03A24:  MOVLW  70
03A26:  MOVWF  FD3
03A28:  BSF    F9B.6
03A2A:  BCF    F9B.7
....................  
.................... 	setup_timer_0(RTCC_INTERNAL | RTCC_DIV_256 );// 
03A2C:  MOVLW  87
03A2E:  MOVWF  FD5
.................... 	enable_interrupts(INT_TIMER0); //^C} 
03A30:  BSF    FF2.5
.................... 	enable_interrupts(INT_RDA); //VA 
03A32:  BSF    F9D.5
.................... 	enable_interrupts(GLOBAL); //S 
03A34:  MOVLW  C0
03A36:  IORWF  FF2,F
.................... 	setup_wdt(WDT_ON); 
03A38:  BSF    FD1.0
....................  
.................... 	//^C}[ 
.................... 	timer0_value = 0xffff - 627; 
03A3A:  MOVLW  FD
03A3C:  MOVLB  1
03A3E:  MOVWF  x13
03A40:  MOVLW  8C
03A42:  MOVWF  x12
.................... 	set_timer0(timer0_value); 
03A44:  MOVFF  113,FD7
03A48:  MOVFF  112,FD6
.................... 	//set_timer1(0); 
....................  
.................... 	//AiO|[g 
.................... 	setup_vref(VREF_2v048); 
03A4C:  MOVLW  A0
03A4E:  MOVLB  F
03A50:  MOVWF  x42
.................... 	//setup_vref(VREF_4v096); 
.................... 	//setup_vref(VREF_ON|VREF_ADC_4v096); 
.................... 	setup_adc(ADC_CLOCK_INTERNAL); 
03A52:  MOVF   FC0,W
03A54:  ANDLW  C0
03A56:  IORLW  07
03A58:  MOVWF  FC0
03A5A:  BSF    FC0.7
03A5C:  BSF    FC2.0
.................... 	setup_adc_ports(sAN5|sAN6,VSS_FVR);//RE0(AN5),RE1(AN6) 
03A5E:  MOVF   FC1,W
03A60:  ANDLW  F0
03A62:  IORLW  08
03A64:  MOVWF  FC1
03A66:  MOVLW  00
03A68:  MOVWF  x38
03A6A:  MOVLW  03
03A6C:  MOVWF  x3C
03A6E:  MOVLW  00
03A70:  MOVWF  x39
03A72:  MOVWF  x3A
03A74:  MOVWF  x3B
.................... 	//setup_adc_ports(sAN12,VSS_FVR);//RB0 
....................  
.................... 	//|[g 0:OUT 1:IN 
.................... 	set_tris_a(0b00001111);//PORT1 
03A76:  MOVLW  0F
03A78:  MOVWF  F92
.................... 	set_tris_b(0b00000000);//PORT 
03A7A:  MOVLW  00
03A7C:  MOVWF  F93
.................... 	set_tris_c(0b10011000);//UART,I2C,PORT 
03A7E:  MOVLW  98
03A80:  MOVWF  F94
.................... 	set_tris_d(0b00000000);//PORT 
03A82:  MOVLW  00
03A84:  MOVWF  F95
.................... 	set_tris_e(0b00000011);//PORT 
03A86:  BSF    F96.0
03A88:  BSF    F96.1
03A8A:  BCF    F96.2
03A8C:  BCF    F96.3
....................  
.................... 	cpu_startup_case = restart_cause();//N[hL^ 
03A8E:  MOVF   FD0,W
03A90:  ANDLW  0F
03A92:  BTFSS  FD0.4
03A94:  MOVLW  00
03A96:  BSF    FD0.0
03A98:  BSF    FD0.1
03A9A:  BSF    FD0.4
03A9C:  BSF    FD8.3
03A9E:  BSF    FD8.4
03AA0:  MOVWF  2D
....................  
.................... 	//l 
.................... 	//C[h 
.................... 	mode = READ_EEPROM(0x00) << 8;	mode = mode + READ_EEPROM(0x01);// 
03AA2:  MOVFF  FF2,438
03AA6:  BCF    FF2.7
03AA8:  CLRF   FAA
03AAA:  CLRF   FA9
03AAC:  BCF    FA6.6
03AAE:  BCF    FA6.7
03AB0:  BSF    FA6.0
03AB2:  MOVF   FA8,W
03AB4:  MOVLB  4
03AB6:  BTFSC  x38.7
03AB8:  BSF    FF2.7
03ABA:  MOVLB  1
03ABC:  MOVWF  x0C
03ABE:  CLRF   x0B
03AC0:  MOVFF  FF2,438
03AC4:  BCF    FF2.7
03AC6:  CLRF   FAA
03AC8:  MOVLW  01
03ACA:  MOVWF  FA9
03ACC:  BCF    FA6.6
03ACE:  BCF    FA6.7
03AD0:  BSF    FA6.0
03AD2:  MOVF   FA8,W
03AD4:  MOVLB  4
03AD6:  BTFSC  x38.7
03AD8:  BSF    FF2.7
03ADA:  MOVLB  1
03ADC:  ADDWF  x0B,F
03ADE:  MOVLW  00
03AE0:  ADDWFC x0C,F
.................... 	if(mode == 0xffff){		mode = 0;}//ftHgl 
03AE2:  INCFSZ x0B,W
03AE4:  BRA    3AEE
03AE6:  INCFSZ x0C,W
03AE8:  BRA    3AEE
03AEA:  CLRF   x0C
03AEC:  CLRF   x0B
.................... 	//C~l[V 
.................... 	// Illumi_color_set = 	READ_EEPROM(0x10);	if(Illumi_color_set == 0xff){Illumi_color_set = 0;} 
.................... 	// Illumi_mode_set = 	READ_EEPROM(0x11);	if(Illumi_mode_set == 0xff){Illumi_mode_set = 0;} 
.................... 	// Illumi_speed = 		READ_EEPROM(0x12);	if(Illumi_speed == 0xff){Illumi_speed = 1;} 
.................... 	// Illumi_signaltype = READ_EEPROM(0x13);	if(Illumi_signaltype == 0xff){Illumi_signaltype = 0;}//0=grb,1=rgb 
.................... 	// Illumi_timing = 	READ_EEPROM(0x14);	if(Illumi_timing == 0xff){Illumi_timing = 0;}//^C~Op^[ 
.................... 	// Illumi_brightness = READ_EEPROM(0x15);	if(Illumi_brightness == 0xff){Illumi_brightness = 10;}// 
....................  
.................... 	signboard_color_set = 	READ_EEPROM(0x10);	if(signboard_color_set == 0xff){signboard_color_set = 5;} 
03AEE:  MOVFF  FF2,438
03AF2:  BCF    FF2.7
03AF4:  CLRF   FAA
03AF6:  MOVLW  10
03AF8:  MOVWF  FA9
03AFA:  BCF    FA6.6
03AFC:  BCF    FA6.7
03AFE:  BSF    FA6.0
03B00:  MOVF   FA8,W
03B02:  MOVLB  4
03B04:  BTFSC  x38.7
03B06:  BSF    FF2.7
03B08:  MOVLB  1
03B0A:  MOVWF  x1A
03B0C:  INCFSZ x1A,W
03B0E:  BRA    3B14
03B10:  MOVLW  05
03B12:  MOVWF  x1A
.................... 	led_brightness = READ_EEPROM(0x15);	if(led_brightness == 0xff){led_brightness = 25;}// 
03B14:  MOVFF  FF2,438
03B18:  BCF    FF2.7
03B1A:  CLRF   FAA
03B1C:  MOVLW  15
03B1E:  MOVWF  FA9
03B20:  BCF    FA6.6
03B22:  BCF    FA6.7
03B24:  BSF    FA6.0
03B26:  MOVF   FA8,W
03B28:  MOVLB  4
03B2A:  BTFSC  x38.7
03B2C:  BSF    FF2.7
03B2E:  MOVLB  1
03B30:  MOVWF  x1F
03B32:  INCFSZ x1F,W
03B34:  BRA    3B3A
03B36:  MOVLW  19
03B38:  MOVWF  x1F
....................  
.................... 	//J[p^[obt@ 
.................... 	ws281x_color_set(signboard_color_set);//signboard_color_set 
03B3A:  MOVFF  11A,43C
03B3E:  MOVLB  0
03B40:  RCALL  3598
....................  
....................  
....................  
.................... 	//C[hLCD[hf 
.................... 	//lcd_mode = mode; 
....................  
.................... 	if(mode == 0){ 
03B42:  MOVLB  1
03B44:  MOVF   x0B,F
03B46:  BNZ   3B4E
03B48:  MOVF   x0C,F
03B4A:  BNZ   3B4E
.................... 		//cursor_index = 1; 
....................  
.................... 	}else if(mode == 10){					cursor_index = 1; 
03B4C:  BRA    3BB0
03B4E:  MOVF   x0B,W
03B50:  SUBLW  0A
03B52:  BNZ   3B60
03B54:  MOVF   x0C,F
03B56:  BNZ   3B60
03B58:  CLRF   x10
03B5A:  MOVLW  01
03B5C:  MOVWF  x0F
.................... 	}else if(mode >= 100 && mode < 199){	cursor_index = 1; 
03B5E:  BRA    3BB0
03B60:  MOVF   x0C,F
03B62:  BNZ   3B6A
03B64:  MOVF   x0B,W
03B66:  SUBLW  63
03B68:  BC    3B7C
03B6A:  MOVF   x0C,F
03B6C:  BNZ   3B7C
03B6E:  MOVF   x0B,W
03B70:  SUBLW  C6
03B72:  BNC   3B7C
03B74:  CLRF   x10
03B76:  MOVLW  01
03B78:  MOVWF  x0F
.................... 	}else if(mode == 600){					cursor_index = 1; 
03B7A:  BRA    3BB0
03B7C:  MOVF   x0B,W
03B7E:  SUBLW  58
03B80:  BNZ   3B90
03B82:  MOVF   x0C,W
03B84:  SUBLW  02
03B86:  BNZ   3B90
03B88:  CLRF   x10
03B8A:  MOVLW  01
03B8C:  MOVWF  x0F
.................... 	}else if(mode == 701){ 
03B8E:  BRA    3BB0
03B90:  MOVF   x0B,W
03B92:  SUBLW  BD
03B94:  BNZ   3B9E
03B96:  MOVF   x0C,W
03B98:  SUBLW  02
03B9A:  BNZ   3B9E
.................... 		//cursor_index = 1; 
.................... 		//ws281x_color_set(signboard_color_set); 
.................... 	}else if(mode == 702){ 
03B9C:  BRA    3BB0
03B9E:  MOVF   x0B,W
03BA0:  SUBLW  BE
03BA2:  BNZ   3BAC
03BA4:  MOVF   x0C,W
03BA6:  SUBLW  02
03BA8:  BNZ   3BAC
.................... 		//cursor_index = 6; 
.................... 		//ws281x_color_set(signboard_color_set); 
.................... 	}else{				cursor_index = 0;} 
03BAA:  BRA    3BB0
03BAC:  CLRF   x10
03BAE:  CLRF   x0F
....................  
.................... 	//dAeW[N 
.................... 	//delay_ms(100); 
.................... 	//delay_ms(500); 
....................  
.................... 	//EHb`hbO^C}[Zbg 
.................... 	restart_wdt(); 
03BB0:  CLRWDT
....................  
.................... 	//LCD 
.................... 	//AQM1602AAQM0802Agpdw 
.................... 	lcd_ini(5); 
03BB2:  MOVLW  05
03BB4:  MOVLB  4
03BB6:  MOVWF  x38
03BB8:  MOVLB  0
03BBA:  BRA    38AA
.................... 	 
.................... 	//X^[gXebv 
.................... 	//step = 0; 
.................... 	//delay_ms(100); 
.................... 	//AQM1602XA-RN-GBW,AQM1602Y-RN-GBWp 
.................... 	lcd_start(0);printf(lcd_char,"Signboard UNIT "); 
03BBC:  MOVLB  4
03BBE:  CLRF   x42
03BC0:  MOVLB  0
03BC2:  RCALL  3968
03BC4:  MOVLW  B6
03BC6:  MOVWF  FF6
03BC8:  MOVLW  33
03BCA:  MOVWF  FF7
03BCC:  RCALL  39B6
.................... 	lcd_start(1);printf(lcd_char,"Ver.%s",ver);	 
03BCE:  MOVLW  01
03BD0:  MOVLB  4
03BD2:  MOVWF  x42
03BD4:  MOVLB  0
03BD6:  RCALL  3968
03BD8:  MOVLW  C6
03BDA:  MOVWF  FF6
03BDC:  MOVLW  33
03BDE:  MOVWF  FF7
03BE0:  MOVLW  04
03BE2:  MOVLB  4
03BE4:  MOVWF  x43
03BE6:  MOVLB  0
03BE8:  RCALL  39D6
03BEA:  CLRF   FEA
03BEC:  MOVLW  20
03BEE:  MOVWF  FE9
03BF0:  BRA    39FE
.................... 	//lm6029acwp 
.................... 	//lcd_start(1);	printf(lcd_char,"Hello!               -"); 
.................... 	//lcd_start(0);	printf(lcd_char,"Mode=%03lu             -",mode); 
.................... 	//lcd_start(2);	printf(lcd_char,"cursor_index=%03lu     -",cursor_index); 
.................... 	//lcd_start(3);	printf(lcd_char,"                     -"); 
.................... 	//lcd_start(4);	printf(lcd_char,"                     -"); 
.................... 	//lcd_start(5);	printf(lcd_char,"                     -"); 
.................... 	//lcd_start(6);	printf(lcd_char,"                     -"); 
.................... 	//lcd_start(7);	printf(lcd_char,"                     -"); 
....................  
.................... 	//EHb`hbO^C}[ZbgEFCg 
.................... 	restart_wdt();	delay_ms(50);	restart_wdt();	delay_ms(50); 
03BF2:  CLRWDT
03BF4:  MOVLW  32
03BF6:  MOVLB  4
03BF8:  MOVWF  x41
03BFA:  MOVLB  0
03BFC:  RCALL  385C
03BFE:  CLRWDT
03C00:  MOVLW  32
03C02:  MOVLB  4
03C04:  MOVWF  x41
03C06:  MOVLB  0
03C08:  RCALL  385C
.................... 	restart_wdt();	delay_ms(50);	restart_wdt();	delay_ms(50); 
03C0A:  CLRWDT
03C0C:  MOVLW  32
03C0E:  MOVLB  4
03C10:  MOVWF  x41
03C12:  MOVLB  0
03C14:  RCALL  385C
03C16:  CLRWDT
03C18:  MOVLW  32
03C1A:  MOVLB  4
03C1C:  MOVWF  x41
03C1E:  MOVLB  0
03C20:  RCALL  385C
.................... 	restart_wdt();	delay_ms(50);	restart_wdt();	delay_ms(50); 
03C22:  CLRWDT
03C24:  MOVLW  32
03C26:  MOVLB  4
03C28:  MOVWF  x41
03C2A:  MOVLB  0
03C2C:  RCALL  385C
03C2E:  CLRWDT
03C30:  MOVLW  32
03C32:  MOVLB  4
03C34:  MOVWF  x41
03C36:  MOVLB  0
03C38:  RCALL  385C
.................... 	restart_wdt();	delay_ms(50);	restart_wdt();	delay_ms(50); 
03C3A:  CLRWDT
03C3C:  MOVLW  32
03C3E:  MOVLB  4
03C40:  MOVWF  x41
03C42:  MOVLB  0
03C44:  RCALL  385C
03C46:  CLRWDT
03C48:  MOVLW  32
03C4A:  MOVLB  4
03C4C:  MOVWF  x41
03C4E:  MOVLB  0
03C50:  RCALL  385C
.................... 	restart_wdt();	delay_ms(50);	restart_wdt();	delay_ms(50); 
03C52:  CLRWDT
03C54:  MOVLW  32
03C56:  MOVLB  4
03C58:  MOVWF  x41
03C5A:  MOVLB  0
03C5C:  RCALL  385C
03C5E:  CLRWDT
03C60:  MOVLW  32
03C62:  MOVLB  4
03C64:  MOVWF  x41
03C66:  MOVLB  0
03C68:  RCALL  385C
.................... 	restart_wdt();	delay_ms(50);	restart_wdt();	delay_ms(50); 
03C6A:  CLRWDT
03C6C:  MOVLW  32
03C6E:  MOVLB  4
03C70:  MOVWF  x41
03C72:  MOVLB  0
03C74:  RCALL  385C
03C76:  CLRWDT
03C78:  MOVLW  32
03C7A:  MOVLB  4
03C7C:  MOVWF  x41
03C7E:  MOVLB  0
03C80:  RCALL  385C
.................... 	restart_wdt();	delay_ms(50);	restart_wdt();	delay_ms(50); 
03C82:  CLRWDT
03C84:  MOVLW  32
03C86:  MOVLB  4
03C88:  MOVWF  x41
03C8A:  MOVLB  0
03C8C:  RCALL  385C
03C8E:  CLRWDT
03C90:  MOVLW  32
03C92:  MOVLB  4
03C94:  MOVWF  x41
03C96:  MOVLB  0
03C98:  RCALL  385C
.................... 	restart_wdt();	delay_ms(50);	restart_wdt();	delay_ms(50); 
03C9A:  CLRWDT
03C9C:  MOVLW  32
03C9E:  MOVLB  4
03CA0:  MOVWF  x41
03CA2:  MOVLB  0
03CA4:  RCALL  385C
03CA6:  CLRWDT
03CA8:  MOVLW  32
03CAA:  MOVLB  4
03CAC:  MOVWF  x41
03CAE:  MOVLB  0
03CB0:  RCALL  385C
.................... 	restart_wdt();	delay_ms(50);	restart_wdt();	delay_ms(50); 
03CB2:  CLRWDT
03CB4:  MOVLW  32
03CB6:  MOVLB  4
03CB8:  MOVWF  x41
03CBA:  MOVLB  0
03CBC:  RCALL  385C
03CBE:  CLRWDT
03CC0:  MOVLW  32
03CC2:  MOVLB  4
03CC4:  MOVWF  x41
03CC6:  MOVLB  0
03CC8:  RCALL  385C
.................... 	restart_wdt();	delay_ms(50);	restart_wdt();	delay_ms(50); 
03CCA:  CLRWDT
03CCC:  MOVLW  32
03CCE:  MOVLB  4
03CD0:  MOVWF  x41
03CD2:  MOVLB  0
03CD4:  RCALL  385C
03CD6:  CLRWDT
03CD8:  MOVLW  32
03CDA:  MOVLB  4
03CDC:  MOVWF  x41
03CDE:  MOVLB  0
03CE0:  RCALL  385C
....................  
.................... } 
03CE2:  GOTO   52B8 (RETURN)
....................  
.................... //C 
.................... void main(){ 
*
04FE4:  CLRF   FF8
04FE6:  BCF    FD0.7
04FE8:  BSF    07.7
04FEA:  CLRF   FEA
04FEC:  CLRF   FE9
04FEE:  MOVLW  70
04FF0:  MOVWF  FD3
04FF2:  BSF    F9B.6
04FF4:  BCF    F9B.7
04FF6:  CLRF   1F
04FF8:  BSF    FB8.3
04FFA:  MOVLW  40
04FFC:  MOVWF  FAF
04FFE:  MOVLW  03
05000:  MOVWF  FB0
05002:  MOVLW  A6
05004:  MOVWF  FAC
05006:  MOVLW  90
05008:  MOVWF  FAB
0500A:  BSF    F94.3
0500C:  BSF    F94.4
0500E:  BCF    FCB.0
05010:  BCF    FCB.1
05012:  BCF    FCB.3
05014:  MOVLW  7F
05016:  MOVWF  FC8
05018:  MOVLW  28
0501A:  MOVWF  FC6
0501C:  BSF    FC7.7
0501E:  BCF    FC7.6
05020:  SETF   F77
05022:  CLRF   2D
05024:  CLRF   2E
05026:  CLRF   2F
05028:  CLRF   30
0502A:  CLRF   31
0502C:  CLRF   32
0502E:  CLRF   33
05030:  CLRF   34
05032:  CLRF   35
05034:  CLRF   37
05036:  CLRF   36
05038:  CLRF   39
0503A:  CLRF   38
0503C:  CLRF   3B
0503E:  CLRF   3A
05040:  CLRF   3D
05042:  CLRF   3C
05044:  CLRF   3E
05046:  CLRF   3F
05048:  CLRF   40
0504A:  CLRF   41
0504C:  CLRF   42
0504E:  CLRF   43
05050:  CLRF   48
05052:  CLRF   49
05054:  CLRF   4A
05056:  CLRF   4B
05058:  CLRF   4C
0505A:  CLRF   4D
0505C:  CLRF   4E
0505E:  CLRF   4F
05060:  CLRF   51
05062:  CLRF   50
05064:  CLRF   53
05066:  CLRF   52
05068:  CLRF   54
0506A:  CLRF   55
0506C:  CLRF   56
0506E:  CLRF   57
05070:  CLRF   58
05072:  CLRF   59
05074:  CLRF   5A
05076:  CLRF   5B
05078:  CLRF   5D
0507A:  CLRF   5C
0507C:  CLRF   x60
0507E:  MOVLB  1
05080:  CLRF   x0C
05082:  MOVLW  0A
05084:  MOVWF  x0B
05086:  CLRF   x0E
05088:  MOVWF  x0D
0508A:  CLRF   x10
0508C:  CLRF   x0F
0508E:  CLRF   x11
05090:  CLRF   x13
05092:  CLRF   x12
05094:  CLRF   x14
05096:  MOVLW  04
05098:  MOVWF  x1A
0509A:  CLRF   x1B
0509C:  MOVLW  01
0509E:  MOVWF  x1C
050A0:  CLRF   x1D
050A2:  MOVWF  x1E
050A4:  MOVLW  32
050A6:  MOVWF  x1F
050A8:  CLRF   x20
050AA:  MOVLW  05
050AC:  MOVWF  x21
050AE:  MOVLW  01
050B0:  MOVLB  4
050B2:  MOVWF  x26
050B4:  CLRF   x25
050B6:  MOVLW  10
050B8:  MOVWF  x27
050BA:  CLRF   x28
050BC:  CLRF   x29
050BE:  MOVLB  1
050C0:  CLRF   x88
050C2:  MOVF   FC1,W
050C4:  ANDLW  F0
050C6:  MOVWF  FC1
050C8:  MOVLW  00
050CA:  MOVLB  F
050CC:  MOVWF  x38
050CE:  MOVWF  x3C
050D0:  MOVWF  x39
050D2:  MOVWF  x3A
050D4:  MOVWF  x3B
050D6:  CLRF   F77
050D8:  CLRF   F78
050DA:  CLRF   F79
050DC:  CLRF   19
050DE:  CLRF   1A
050E0:  MOVLW  32
050E2:  MOVWF  20
050E4:  MOVLW  30
050E6:  MOVWF  21
050E8:  MOVLW  32
050EA:  MOVWF  22
050EC:  MOVLW  30
050EE:  MOVWF  23
050F0:  MOVWF  24
050F2:  MOVLW  36
050F4:  MOVWF  25
050F6:  MOVLW  31
050F8:  MOVWF  26
050FA:  MOVLW  30
050FC:  MOVWF  27
050FE:  MOVLW  31
05100:  MOVWF  28
05102:  MOVWF  29
05104:  MOVLW  35
05106:  MOVWF  2A
05108:  MOVLW  37
0510A:  MOVWF  2B
0510C:  CLRF   2C
0510E:  CLRF   44
05110:  CLRF   45
05112:  CLRF   46
05114:  CLRF   47
05116:  MOVLW  2C
05118:  MOVWF  5E
0511A:  CLRF   5F
0511C:  MOVLB  0
0511E:  CLRF   x61
05120:  CLRF   x62
05122:  CLRF   x63
05124:  CLRF   x64
05126:  CLRF   x65
05128:  CLRF   x66
0512A:  CLRF   x67
0512C:  CLRF   x68
0512E:  CLRF   x69
05130:  CLRF   x6A
05132:  CLRF   x6B
05134:  CLRF   x6C
05136:  CLRF   x6D
05138:  CLRF   x6E
0513A:  CLRF   x6F
0513C:  CLRF   x70
0513E:  CLRF   x71
05140:  CLRF   x72
05142:  CLRF   x73
05144:  CLRF   x74
05146:  CLRF   x75
05148:  CLRF   x76
0514A:  CLRF   x77
0514C:  CLRF   x78
0514E:  CLRF   x79
05150:  CLRF   x7A
05152:  CLRF   x7B
05154:  CLRF   x7C
05156:  CLRF   x7D
05158:  CLRF   x7E
0515A:  CLRF   x7F
0515C:  CLRF   x80
0515E:  CLRF   x81
05160:  CLRF   x82
05162:  CLRF   x83
05164:  CLRF   x84
05166:  CLRF   x85
05168:  CLRF   x86
0516A:  CLRF   x87
0516C:  CLRF   x88
0516E:  CLRF   x89
05170:  CLRF   x8A
05172:  CLRF   x8B
05174:  CLRF   x8C
05176:  CLRF   x8D
05178:  CLRF   x8E
0517A:  CLRF   x8F
0517C:  CLRF   x90
0517E:  CLRF   x91
05180:  CLRF   x92
05182:  CLRF   x93
05184:  CLRF   x94
05186:  CLRF   x95
05188:  CLRF   x96
0518A:  CLRF   x97
0518C:  CLRF   x98
0518E:  CLRF   x99
05190:  CLRF   x9A
05192:  CLRF   x9B
05194:  CLRF   x9C
05196:  CLRF   x9D
05198:  CLRF   x9E
0519A:  CLRF   x9F
0519C:  CLRF   xA0
0519E:  CLRF   xA1
051A0:  CLRF   xA2
051A2:  CLRF   xA3
051A4:  CLRF   xA4
051A6:  CLRF   xA5
051A8:  CLRF   xA6
051AA:  CLRF   xA7
051AC:  CLRF   xA8
051AE:  CLRF   xA9
051B0:  CLRF   xAA
051B2:  CLRF   xAB
051B4:  CLRF   xAC
051B6:  CLRF   xAD
051B8:  CLRF   xAE
051BA:  CLRF   xAF
051BC:  CLRF   xB0
051BE:  CLRF   xB1
051C0:  CLRF   xB2
051C2:  CLRF   xB3
051C4:  CLRF   xB4
051C6:  CLRF   xB5
051C8:  CLRF   xB6
051CA:  CLRF   xB7
051CC:  CLRF   xB8
051CE:  CLRF   xB9
051D0:  CLRF   xBA
051D2:  CLRF   xBB
051D4:  CLRF   xBC
051D6:  CLRF   xBD
051D8:  CLRF   xBE
051DA:  CLRF   xBF
051DC:  CLRF   xC0
051DE:  CLRF   xC1
051E0:  CLRF   xC2
051E2:  CLRF   xC3
051E4:  CLRF   xC4
051E6:  CLRF   xC5
051E8:  CLRF   xC6
051EA:  CLRF   xC7
051EC:  CLRF   xC8
051EE:  CLRF   xC9
051F0:  CLRF   xCA
051F2:  CLRF   xCB
051F4:  CLRF   xCC
051F6:  CLRF   xCD
051F8:  CLRF   xCE
051FA:  CLRF   xCF
051FC:  CLRF   xD0
051FE:  CLRF   xD1
05200:  CLRF   xD2
05202:  CLRF   xD3
05204:  CLRF   xD4
05206:  CLRF   xD5
05208:  CLRF   xD6
0520A:  CLRF   xD7
0520C:  CLRF   xD8
0520E:  CLRF   xD9
05210:  CLRF   xDA
05212:  CLRF   xDB
05214:  CLRF   xDC
05216:  CLRF   xDD
05218:  CLRF   xDE
0521A:  CLRF   xDF
0521C:  CLRF   xE0
0521E:  CLRF   xE1
05220:  CLRF   xE2
05222:  CLRF   xE3
05224:  CLRF   xE4
05226:  CLRF   xE5
05228:  CLRF   xE6
0522A:  CLRF   xE7
0522C:  CLRF   xE8
0522E:  CLRF   xE9
05230:  CLRF   xEA
05232:  CLRF   xEB
05234:  CLRF   xEC
05236:  CLRF   xED
05238:  CLRF   xEE
0523A:  CLRF   xEF
0523C:  CLRF   xF0
0523E:  CLRF   xF1
05240:  CLRF   xF2
05242:  CLRF   xF3
05244:  CLRF   xF4
05246:  CLRF   xF5
05248:  CLRF   xF6
0524A:  CLRF   xF7
0524C:  CLRF   xF8
0524E:  CLRF   xF9
05250:  CLRF   xFA
05252:  CLRF   xFB
05254:  CLRF   xFC
05256:  CLRF   xFD
05258:  CLRF   xFE
0525A:  CLRF   xFF
0525C:  MOVLB  1
0525E:  CLRF   x00
05260:  CLRF   x01
05262:  CLRF   x02
05264:  CLRF   x03
05266:  CLRF   x04
05268:  CLRF   x05
0526A:  CLRF   x06
0526C:  CLRF   x07
0526E:  CLRF   x08
05270:  CLRF   x09
05272:  CLRF   x0A
05274:  MOVLW  2F
05276:  MOVWF  x15
05278:  MOVLW  2D
0527A:  MOVWF  x16
0527C:  MOVLW  5F
0527E:  MOVWF  x17
05280:  MOVLW  2E
05282:  MOVWF  x18
05284:  CLRF   x19
05286:  MOVLW  04
05288:  MOVLB  4
0528A:  MOVWF  x2A
0528C:  MOVLW  0E
0528E:  MOVWF  x2B
05290:  MOVLW  15
05292:  MOVWF  x2C
05294:  MOVLW  04
05296:  MOVWF  x2D
05298:  MOVWF  x2E
0529A:  MOVWF  x2F
0529C:  CLRF   x30
0529E:  MOVWF  x31
052A0:  MOVWF  x32
052A2:  MOVWF  x33
052A4:  MOVLW  15
052A6:  MOVWF  x34
052A8:  MOVLW  0E
052AA:  MOVWF  x35
052AC:  MOVLW  04
052AE:  MOVWF  x36
052B0:  CLRF   x37
....................  
.................... 	//X^[gAbv 
.................... 	startup(); 
052B2:  MOVLB  0
052B4:  GOTO   3A24
....................  
.................... 	while(true){ 
....................  
.................... 		restart_wdt();// WDT timer reset 
052B8:  CLRWDT
....................  
.................... 		// 
.................... 		if(input_process_one != 0){ 
052BA:  MOVF   40,F
052BC:  BZ    52C4
.................... 			input_process_one = 0; 
052BE:  CLRF   40
....................  
.................... 			input_process(); 
052C0:  GOTO   3CE6
.................... 		} 
....................  
.................... 		//xv 
.................... 		//if(am2321_read_one != 0){ 
.................... 		//	am2321_read_one = 0; 
....................  
.................... 		//	am2321_read(); 
.................... 		//} 
....................  
.................... 		if(mode >= 0 && mode < 100){ 
052C4:  MOVLB  1
052C6:  MOVF   x0C,F
052C8:  BNZ   52EE
052CA:  MOVF   x0B,W
052CC:  SUBLW  63
052CE:  BNC   52EE
.................... 			//modeselect_process(); 
....................  
.................... 			//C~l[VLED 
.................... 			//^C~O 
.................... 			//illumiled_process(); 
....................  
.................... 			//LCD\ 
.................... 			if(lcd_process_one == 1){ 
052D0:  DECFSZ 3E,W
052D2:  BRA    52DE
.................... 				//illumiled_lcd_process(); 
.................... 				signboard_lcd_process(); 
052D4:  MOVLB  0
052D6:  GOTO   3EB6
.................... 				//lcd_process(); 
.................... 			}else if(lcd_process_one >= 3){ 
052DA:  BRA    52EA
052DC:  MOVLB  1
052DE:  MOVF   3E,W
052E0:  SUBLW  02
052E2:  BC    52EC
.................... 				lcd_process_one = 0; 
052E4:  CLRF   3E
.................... 				//TC{[h 
.................... 				signboard_process(); 
052E6:  MOVLB  0
052E8:  BRA    4D96
052EA:  MOVLB  1
....................  
.................... 			} 
.................... 		}else{ 
052EC:  BRA    52FA
.................... 			//LCD 
.................... 			//LCD 
.................... 			if(lcd_process_one > 0){	lcd_process_one = 0;	lcd_process();	} 
052EE:  MOVF   3E,F
052F0:  BZ    52FA
052F2:  CLRF   3E
052F4:  MOVLB  0
052F6:  BRA    4EAC
052F8:  MOVLB  1
.................... 		} 
....................  
.................... 		//o 
.................... 		output_process(); 
052FA:  MOVLB  0
052FC:  BRA    4F02
.................... 	} 
052FE:  BRA    52B8
.................... } 
....................  
.................... //{Iprocess_lcd16x2.cprocess_lcd128x64dot.cB 
.................... // void lcd_process(){ 
....................  
.................... // 	aqmxx02a_setcursor(0,0); 
.................... // 	printf(aqmxx02a_puts,"20191006 2132  e"); 
.................... // 	aqmxx02a_setcursor(0,1); 
.................... // 	printf(aqmxx02a_puts,"zeatec.jp      %c",life_char[life_index]); 
....................  
.................... // 	//AQM1602A 
.................... // 	//aqmxx02a_setcursor(0,0); 
.................... // 	//printf(aqmxx02a_puts,"analog=%04lu,%04lu",analog_value[0],analog_value[1]); 
.................... // 	//aqmxx02a_setcursor(0,1); 
.................... // 	//printf(aqmxx02a_puts,"zeatec.jp      %c",life_char[life_index]); 
....................  
.................... // 	//lcd_start(1);printf(lcd_char,"ZEATEC co.,ltd. "); 
.................... // 	//lcd_start(2);printf(lcd_char," PIC16F46K22+LCD"); 
....................  
.................... // 	//float f; 
.................... // 	//f=12.345; 
.................... // 	//printf(tostring,"\f%6.3f",f); 
.................... // } 
....................  
.................... //|[g 
.................... void input_process(){ 
.................... 	//10msec 
05300:  SLEEP 
....................  
.................... 	ra0 = !input(PIN_A0);sw1 = ra0; 
*
03CE6:  BSF    F92.0
03CE8:  CLRF   48
03CEA:  BTFSS  F80.0
03CEC:  INCF   48,F
03CEE:  MOVFF  48,54
.................... 	ra1 = !input(PIN_A1);sw2 = ra1; 
03CF2:  BSF    F92.1
03CF4:  CLRF   49
03CF6:  BTFSS  F80.1
03CF8:  INCF   49,F
03CFA:  MOVFF  49,56
.................... 	ra2 = !input(PIN_A2);sw3 = ra2; 
03CFE:  BSF    F92.2
03D00:  CLRF   4A
03D02:  BTFSS  F80.2
03D04:  INCF   4A,F
03D06:  MOVFF  4A,58
.................... 	ra3 = !input(PIN_A3);sw4 = ra3; 
03D0A:  BSF    F92.3
03D0C:  CLRF   4B
03D0E:  BTFSS  F80.3
03D10:  INCF   4B,F
03D12:  MOVFF  4B,5A
.................... 	//ra4 = !input(PIN_A4); 
.................... 	//ra5 = !input(PIN_A5); 
.................... 	//ra6 = !input(PIN_A6); 
.................... 	//ra7 = !input(PIN_A7); 
....................  
.................... 	//I^lCg 
.................... 	//ra0 = !input(PIN_A0);	if(ra0_re != ra0 && ra0 == 0){	sw1 = 1;}	ra1_re = ra1; 
.................... 	//ra1 = !input(PIN_A1);	if(ra1_re != ra1 && ra1 == 0){	sw2 = 1;}	ra2_re = ra2; 
.................... 	//ra2 = !input(PIN_A2);	if(ra2_re != ra2 && ra2 == 0){	sw3 = 1;}	ra3_re = ra3;	 
.................... 	//ra3 = !input(PIN_A3);	if(ra3_re != ra3 && ra3 == 0){	sw4 = 1;}	ra4_re = ra4; 
....................  
.................... 	if(sw1 == 0){ 
03D16:  MOVF   54,F
03D18:  BNZ   3D20
.................... 		sw1_count_longpress = 0; 
03D1A:  CLRF   5D
03D1C:  CLRF   5C
.................... 	}else if(sw1 == 1 && sw1_count_longpress < 100){ 
03D1E:  BRA    3D4C
03D20:  DECFSZ 54,W
03D22:  BRA    3D36
03D24:  MOVF   5D,F
03D26:  BNZ   3D36
03D28:  MOVF   5C,W
03D2A:  SUBLW  63
03D2C:  BNC   3D36
.................... 		sw1_count_longpress++; 
03D2E:  INCF   5C,F
03D30:  BTFSC  FD8.2
03D32:  INCF   5D,F
.................... 	}else if(sw1 == 1 && sw1_count_longpress == 100){ 
03D34:  BRA    3D4C
03D36:  DECFSZ 54,W
03D38:  BRA    3D4C
03D3A:  MOVF   5C,W
03D3C:  SUBLW  64
03D3E:  BNZ   3D4C
03D40:  MOVF   5D,F
03D42:  BNZ   3D4C
.................... 		mode = 10; 
03D44:  MOVLB  1
03D46:  CLRF   x0C
03D48:  MOVLW  0A
03D4A:  MOVWF  x0B
03D4C:  MOVLB  0
.................... 		 
.................... 	} 
....................  
.................... } 
03D4E:  GOTO   52C4 (RETURN)
....................  
.................... //o|[g 
.................... void output_process(){ 
....................  
.................... 	//output_bit(PIN_A0,!0); 
.................... 	//output_bit(PIN_A1,!0); 
.................... 	//output_bit(PIN_A2,!0); 
.................... 	//output_bit(PIN_A3,!0); 
.................... 	ra4 = 0;output_bit(PIN_A4,!ra4); 
*
04F02:  CLRF   4C
04F04:  MOVF   4C,F
04F06:  BZ    4F0C
04F08:  BCF    F89.4
04F0A:  BRA    4F0E
04F0C:  BSF    F89.4
04F0E:  BCF    F92.4
.................... 	ra5 = 0;output_bit(PIN_A5,!ra5); 
04F10:  CLRF   4D
04F12:  BZ    4F18
04F14:  BCF    F89.5
04F16:  BRA    4F1A
04F18:  BSF    F89.5
04F1A:  BCF    F92.5
.................... 	//ra6 = 0;output_bit(PIN_A6,!ra6);//C~l[VLEDgp 
.................... 	//output_bit(PIN_A7,!flicker_10);//T[{vZXgp 
....................  
.................... 	//output_bit(PIN_B0,!0);//rb0//flicker_500//TC{[hgp 
.................... 	output_bit(PIN_B1,!0);//rb1//flicker_500 
04F1C:  BSF    F8A.1
04F1E:  BCF    F93.1
.................... 	output_bit(PIN_B2,!flicker_100);//rb2 
04F20:  MOVF   30,F
04F22:  BZ    4F28
04F24:  BCF    F8A.2
04F26:  BRA    4F2A
04F28:  BSF    F8A.2
04F2A:  BCF    F93.2
.................... 	output_bit(PIN_B3,!flicker_500);//rb3 
04F2C:  MOVF   32,F
04F2E:  BZ    4F34
04F30:  BCF    F8A.3
04F32:  BRA    4F36
04F34:  BSF    F8A.3
04F36:  BCF    F93.3
.................... 	output_bit(PIN_B4,!flicker_1000);//rb4 
04F38:  MOVF   34,F
04F3A:  BZ    4F40
04F3C:  BCF    F8A.4
04F3E:  BRA    4F42
04F40:  BSF    F8A.4
04F42:  BCF    F93.4
.................... 	output_bit(PIN_B5,!flicker_10);//rb5 
04F44:  MOVF   2E,F
04F46:  BZ    4F4C
04F48:  BCF    F8A.5
04F4A:  BRA    4F4E
04F4C:  BSF    F8A.5
04F4E:  BCF    F93.5
....................  
.................... 	// 
.................... 	//output_bit(PIN_C0,!flicker_10); 
.................... 	//output_bit(PIN_C1,!flicker_1000); 
.................... 	//output_bit(PIN_C2,!flicker_10); 
.................... 	//output_bit(PIN_C5,flicker_1000); 
....................  
.................... 	//output_bit(PIN_D0,!flicker_10); 
.................... 	//output_bit(PIN_D1,!flicker_1000); 
.................... 	//output_bit(PIN_D2,!flicker_10); 
.................... 	//output_bit(PIN_D3,!flicker_1000); 
.................... 	//output_bit(PIN_D4,!flicker_10); 
.................... 	//output_bit(PIN_D5,!flicker_1000); 
.................... 	//output_bit(PIN_D6,!flicker_10); 
.................... 	//output_bit(PIN_D7,!flicker_1000); 
....................  
.................... 	//output_bit(PIN_E0,!flicker_100);//flicker_1000 
.................... 	//output_bit(PIN_E1,!flicker_500);//flicker_1000 
.................... 	//output_bit(PIN_E2,!flicker_100); 
....................  
.................... 	switch(cpu_startup_case){ 
04F50:  MOVF   2D,W
04F52:  XORLW  07
04F54:  BZ    4F70
04F56:  XORLW  0C
04F58:  BZ    4F7E
04F5A:  XORLW  04
04F5C:  BZ    4F8C
04F5E:  XORLW  03
04F60:  BZ    4F9A
04F62:  XORLW  02
04F64:  BZ    4FA8
04F66:  XORLW  0D
04F68:  BZ    4FB6
04F6A:  XORLW  03
04F6C:  BZ    4FC4
04F6E:  BRA    4FD2
.................... 		//restart list. 
.................... 		//WDT_TIMEOUT       7 
.................... 		//MCLR_FROM_SLEEP  11 
.................... 		//MCLR_FROM_RUN    15 
.................... 		//NORMAL_POWER_UP  12 
.................... 		//BROWNOUT_RESTART 14 
.................... 		//WDT_FROM_SLEEP    3 
.................... 		//RESET_INSTRUCTION 0 
.................... 		case WDT_TIMEOUT:		output_bit(PIN_E2,!flicker_10);		break; 
04F70:  MOVF   2E,F
04F72:  BZ    4F78
04F74:  BCF    F8D.2
04F76:  BRA    4F7A
04F78:  BSF    F8D.2
04F7A:  BCF    F96.2
04F7C:  BRA    4FE0
.................... 		case MCLR_FROM_SLEEP:	output_bit(PIN_E2,!flicker_100);	break; 
04F7E:  MOVF   30,F
04F80:  BZ    4F86
04F82:  BCF    F8D.2
04F84:  BRA    4F88
04F86:  BSF    F8D.2
04F88:  BCF    F96.2
04F8A:  BRA    4FE0
.................... 		case MCLR_FROM_RUN:		output_bit(PIN_E2,!flicker_100);	break;		 
04F8C:  MOVF   30,F
04F8E:  BZ    4F94
04F90:  BCF    F8D.2
04F92:  BRA    4F96
04F94:  BSF    F8D.2
04F96:  BCF    F96.2
04F98:  BRA    4FE0
.................... 		case NORMAL_POWER_UP:	output_bit(PIN_E2,!flicker_1000);	break; 
04F9A:  MOVF   34,F
04F9C:  BZ    4FA2
04F9E:  BCF    F8D.2
04FA0:  BRA    4FA4
04FA2:  BSF    F8D.2
04FA4:  BCF    F96.2
04FA6:  BRA    4FE0
.................... 		case BROWNOUT_RESTART:	output_bit(PIN_E2,!flicker_100);	break;		 
04FA8:  MOVF   30,F
04FAA:  BZ    4FB0
04FAC:  BCF    F8D.2
04FAE:  BRA    4FB2
04FB0:  BSF    F8D.2
04FB2:  BCF    F96.2
04FB4:  BRA    4FE0
.................... 		case WDT_FROM_SLEEP:	output_bit(PIN_E2,!flicker_100);	break; 
04FB6:  MOVF   30,F
04FB8:  BZ    4FBE
04FBA:  BCF    F8D.2
04FBC:  BRA    4FC0
04FBE:  BSF    F8D.2
04FC0:  BCF    F96.2
04FC2:  BRA    4FE0
.................... 		case RESET_INSTRUCTION:	output_bit(PIN_E2,!flicker_100);	break; 
04FC4:  MOVF   30,F
04FC6:  BZ    4FCC
04FC8:  BCF    F8D.2
04FCA:  BRA    4FCE
04FCC:  BSF    F8D.2
04FCE:  BCF    F96.2
04FD0:  BRA    4FE0
.................... 		default:				output_bit(PIN_E2,!flicker_500);	break; 
04FD2:  MOVF   32,F
04FD4:  BZ    4FDA
04FD6:  BCF    F8D.2
04FD8:  BRA    4FDC
04FDA:  BSF    F8D.2
04FDC:  BCF    F96.2
04FDE:  BRA    4FE0
.................... 	} 
....................  
.................... 	//PORT1 
....................  
.................... 	//PORT2 
....................  
.................... 	//PORT3 
....................  
.................... } 
04FE0:  GOTO   52FE (RETURN)
....................  
.................... //XCb`(ev[g) 
.................... void sw_process(){ 
.................... 	int tmp_sw1_true = 0,tmp_sw2_true = 0,tmp_sw3_true = 0,tmp_sw4_true = 0; 
....................  
.................... 	//XCb` 
.................... 	if(sw1_re != sw1 && sw1 == 0){	tmp_sw1_true = 1;}	sw1_re = sw1; 
.................... 	if(sw2_re != sw2 && sw2 == 0){	tmp_sw2_true = 1;}	sw2_re = sw2; 
.................... 	if(sw3_re != sw3 && sw3 == 0){	tmp_sw3_true = 1;}	sw3_re = sw3; 
.................... 	if(sw4_re != sw4 && sw4 == 0){	tmp_sw4_true = 1;}	sw4_re = sw4; 
....................  
.................... 	//enter 
.................... 	if(tmp_sw1_true != 0){tmp_sw1_true = 0; 
.................... 	} 
....................  
.................... 	//cansel 
.................... 	if(tmp_sw2_true != 0){tmp_sw2_true = 0; 
.................... 	} 
....................  
.................... 	// 
.................... 	if(tmp_sw3_true != 0){tmp_sw3_true = 0; 
.................... 	} 
.................... 	// 
.................... 	if(tmp_sw4_true != 0){tmp_sw4_true = 0; 
.................... 	} 
.................... } 
....................  
.................... //[hZNg 
.................... /* void modeselect_process(){ 
.................... 	int tmp_sw1_true = 0,tmp_sw2_true = 0,tmp_sw3_true = 0,tmp_sw4_true = 0; 
....................  
.................... 	//XCb` 
.................... 	if(sw1_re != sw1 && sw1 == 0){	tmp_sw1_true = 1;}	sw1_re = sw1; 
.................... 	if(sw2_re != sw2 && sw2 == 0){	tmp_sw2_true = 1;}	sw2_re = sw2; 
.................... 	if(sw3_re != sw3 && sw3 == 0){	tmp_sw3_true = 1;}	sw3_re = sw3; 
.................... 	if(sw4_re != sw4 && sw4 == 0){	tmp_sw4_true = 1;}	sw4_re = sw4; 
....................  
.................... 	//enter 
.................... 	if(tmp_sw1_true != 0){tmp_sw1_true = 0; 
....................  
.................... 		if(mode <10){ 
.................... 			//I[vjO 
....................  
.................... 			mode = 10;	 
.................... 			if(cursor_index == 1){ 
.................... 				//\ 
.................... 				save_mode(0); 
.................... 			}else if(cursor_index == 2){ 
.................... 				//\[ 
.................... 				save_mode(mode); 
.................... 			} 
.................... 			cursor_index = 1; 
.................... 		}else if(mode >= 10 && mode <100){ 
.................... 			//[hI 
....................  
.................... 			mode = cursor_index*100; 
.................... 			//lcd_mode = mode; 
....................  
.................... 			save_mode(mode);//[ 
....................  
.................... 			//y[WJ[\ 
.................... 			if(cursor_index == 1){			cursor_index = 1;//n[hEFACtH 
.................... 			}else if(cursor_index == 2){ 
.................... 			}else if(cursor_index == 6){	cursor_index = 1;//T[{ 
.................... 			}else if(cursor_index == 7){	cursor_index = 1;//C~l[VLED 
.................... 			}else{							cursor_index = 0;	} 
.................... 		} 
....................  
.................... 	} 
....................  
.................... 	//cansel 
.................... 	if(tmp_sw2_true != 0){tmp_sw2_true = 0;	} 
....................  
.................... 	//up 
.................... 	if(tmp_sw3_true != 0){tmp_sw3_true = 0; 
.................... 		//J[\ 
.................... 		if(mode < 10){						if(cursor_index > 1){	cursor_index--;	} 
.................... 		}else if(mode >= 10 && mode <100){	if(cursor_index > 1){	cursor_index--;	}} 
.................... 	} 
.................... 	//down 
.................... 	if(tmp_sw4_true != 0){tmp_sw4_true = 0; 
.................... 		//J[\ 
.................... 		if(mode <10){						if(cursor_index < 2){	cursor_index++;	} 
.................... 		}else if(mode >= 10 && mode <100){	if(cursor_index < 12){	cursor_index++;	}} 
.................... 	} 
.................... } */ 
....................  
.................... //VA|[gR}h 
.................... void serial_process1(){ 
.................... 	int tmp1 = 0; 
.................... 	char *command; 
.................... 	//long long_param1; 
.................... 	//char *str_param1; 
.................... 	//char *str_param2; 
.................... 	//int rdata = 0; 
.................... 	//int tmp_alarm_id = 0; 
....................  
.................... 	if(get_command_c1[get_command_value_c1-1]==0xd){ 
.................... 		//R}hp[^ 
.................... 		command = strtok(get_command_c1,punctuate); 
.................... 		//param1 = atoi(strtok(null,punctuate)); 
.................... 		//param1 = strtok(null,punctuate); 
....................  
.................... 		fprintf(c1,"\r\n"); 
....................  
.................... 		//wv 
.................... 		strcpy(compare_command_c1,"?\r"); 
.................... 		if(strcmp(command,compare_command_c1)==0){ 
.................... 			fprintf(c1,"ZT-****-SOFT Ver.0.90 UART1\r\n"); 
.................... 			fprintf(c1,"analog_value=%04ldmV\r\n",analog_value); 
.................... 			fprintf(c1,"ra1=%d\r\n",ra1); 
.................... 			//fprintf(c1,"temperature=%ld\r\n",temperature);//x 
.................... 			//fprintf(c1,"humidity=%ld\r\n",humidity);//x 
.................... 			//fprintf(c1,"0=SUN,1=mon,2=tue,3=wed,4=thu,5=fri,6=sat,7=all,8=week,9=off,\r\n"); 
.................... 			 
.................... 		} 
....................  
.................... 		//strcpy(compare_command_c1,"p"); 
.................... 		//if(strcmp(command,compare_command_c1)==0){ 
.................... 		//	//p[^ 
.................... 		//	//up,1v1param1 
.................... 		//	fprintf(c1,"param1_u=%u ok.\r\n",param1); 
.................... 		//} 
....................  
.................... 		//SNA 
.................... 		for(tmp1=0;tmp1<80;++tmp1){ 
.................... 			get_command_c1[tmp1] = 0x0; 
.................... 		} 
.................... 		get_command_value_c1 = 0; 
....................  
.................... 		//QpR}hNA 
.................... 		for(tmp1=0;tmp1<10;++tmp1){ 
.................... 			compare_command_c1[tmp1] = 0x0; 
.................... 		} 
.................... 	} 
.................... } 
....................  
.................... //[[h 
.................... void save_mode(long save_mode){ 
.................... 	long tmp_mode = 10; 
.................... 	tmp_mode = save_mode; 
.................... 	write_eeprom(0x01,tmp_mode);	tmp_mode = tmp_mode >> 8; 
.................... 	write_eeprom(0x00,tmp_mode); 
.................... } 

Configuration Fuses:
   Word  1: F800   INTRC_IO PLLEN PRIMARY_ON FCMEN IESO
   Word  2: 1A18   PUT NOBROWNOUT BORV19 WDT_SW WDT64
   Word  3: BF00   CCP2C1 PBADEN CCP3B5 HFOFST TIMER3C0 CCP2D2 MCLR
   Word  4: 0081   STVREN NOLVP NOXINST NODEBUG
   Word  5: C000   PROTECT NOCPB NOCPD
   Word  6: E00F   NOWRT NOWRTC NOWRTB NOWRTD
   Word  7: 400F   NOEBTR NOEBTRB
